
Clean_Project.elf:     file format elf32-littlearm

Sections:
Idx Name          Size      VMA       LMA       File off  Algn
  0 .isr_vector   0000010c  08000000  08000000  00010000  2**0
                  CONTENTS, ALLOC, LOAD, READONLY, DATA
  1 .text         000089d4  08000110  08000110  00010110  2**3
                  CONTENTS, ALLOC, LOAD, READONLY, CODE
  2 .rodata       000000a0  08008ae8  08008ae8  00018ae8  2**3
                  CONTENTS, ALLOC, LOAD, READONLY, DATA
  3 .ARM.extab    00000000  08008b88  08008b88  00020168  2**0
                  CONTENTS
  4 .ARM          00000000  08008b88  08008b88  00020168  2**0
                  CONTENTS
  5 .preinit_array 00000000  08008b88  08008b88  00020168  2**0
                  CONTENTS, ALLOC, LOAD, DATA
  6 .init_array   00000004  08008b88  08008b88  00018b88  2**2
                  CONTENTS, ALLOC, LOAD, DATA
  7 .fini_array   00000004  08008b8c  08008b8c  00018b8c  2**2
                  CONTENTS, ALLOC, LOAD, DATA
  8 .data         00000168  20000000  08008b90  00020000  2**2
                  CONTENTS, ALLOC, LOAD, DATA
  9 .bss          00001950  20000168  08008cf8  00020168  2**2
                  ALLOC
 10 ._user_heap_stack 00000600  20001ab8  08008cf8  00021ab8  2**0
                  ALLOC
 11 .ARM.attributes 00000029  00000000  00000000  00020168  2**0
                  CONTENTS, READONLY
 12 .debug_info   00012f7d  00000000  00000000  00020191  2**0
                  CONTENTS, READONLY, DEBUGGING, OCTETS
 13 .debug_abbrev 0000322c  00000000  00000000  0003310e  2**0
                  CONTENTS, READONLY, DEBUGGING, OCTETS
 14 .debug_aranges 00000b10  00000000  00000000  00036340  2**3
                  CONTENTS, READONLY, DEBUGGING, OCTETS
 15 .debug_ranges 00000988  00000000  00000000  00036e50  2**3
                  CONTENTS, READONLY, DEBUGGING, OCTETS
 16 .debug_macro  0001abfa  00000000  00000000  000377d8  2**0
                  CONTENTS, READONLY, DEBUGGING, OCTETS
 17 .debug_line   0001032c  00000000  00000000  000523d2  2**0
                  CONTENTS, READONLY, DEBUGGING, OCTETS
 18 .debug_str    0008c7cd  00000000  00000000  000626fe  2**0
                  CONTENTS, READONLY, DEBUGGING, OCTETS
 19 .comment      00000053  00000000  00000000  000eeecb  2**0
                  CONTENTS, READONLY
 20 .debug_frame  00002d04  00000000  00000000  000eef20  2**2
                  CONTENTS, READONLY, DEBUGGING, OCTETS

Disassembly of section .text:

08000110 <__do_global_dtors_aux>:
 8000110:	b510      	push	{r4, lr}
 8000112:	4c05      	ldr	r4, [pc, #20]	; (8000128 <__do_global_dtors_aux+0x18>)
 8000114:	7823      	ldrb	r3, [r4, #0]
 8000116:	b933      	cbnz	r3, 8000126 <__do_global_dtors_aux+0x16>
 8000118:	4b04      	ldr	r3, [pc, #16]	; (800012c <__do_global_dtors_aux+0x1c>)
 800011a:	b113      	cbz	r3, 8000122 <__do_global_dtors_aux+0x12>
 800011c:	4804      	ldr	r0, [pc, #16]	; (8000130 <__do_global_dtors_aux+0x20>)
 800011e:	f3af 8000 	nop.w
 8000122:	2301      	movs	r3, #1
 8000124:	7023      	strb	r3, [r4, #0]
 8000126:	bd10      	pop	{r4, pc}
 8000128:	20000168 	.word	0x20000168
 800012c:	00000000 	.word	0x00000000
 8000130:	08008acc 	.word	0x08008acc

08000134 <frame_dummy>:
 8000134:	b508      	push	{r3, lr}
 8000136:	4b03      	ldr	r3, [pc, #12]	; (8000144 <frame_dummy+0x10>)
 8000138:	b11b      	cbz	r3, 8000142 <frame_dummy+0xe>
 800013a:	4903      	ldr	r1, [pc, #12]	; (8000148 <frame_dummy+0x14>)
 800013c:	4803      	ldr	r0, [pc, #12]	; (800014c <frame_dummy+0x18>)
 800013e:	f3af 8000 	nop.w
 8000142:	bd08      	pop	{r3, pc}
 8000144:	00000000 	.word	0x00000000
 8000148:	2000016c 	.word	0x2000016c
 800014c:	08008acc 	.word	0x08008acc

08000150 <__aeabi_drsub>:
 8000150:	f081 4100 	eor.w	r1, r1, #2147483648	; 0x80000000
 8000154:	e002      	b.n	800015c <__adddf3>
 8000156:	bf00      	nop

08000158 <__aeabi_dsub>:
 8000158:	f083 4300 	eor.w	r3, r3, #2147483648	; 0x80000000

0800015c <__adddf3>:
 800015c:	b530      	push	{r4, r5, lr}
 800015e:	ea4f 0441 	mov.w	r4, r1, lsl #1
 8000162:	ea4f 0543 	mov.w	r5, r3, lsl #1
 8000166:	ea94 0f05 	teq	r4, r5
 800016a:	bf08      	it	eq
 800016c:	ea90 0f02 	teqeq	r0, r2
 8000170:	bf1f      	itttt	ne
 8000172:	ea54 0c00 	orrsne.w	ip, r4, r0
 8000176:	ea55 0c02 	orrsne.w	ip, r5, r2
 800017a:	ea7f 5c64 	mvnsne.w	ip, r4, asr #21
 800017e:	ea7f 5c65 	mvnsne.w	ip, r5, asr #21
 8000182:	f000 80e2 	beq.w	800034a <__adddf3+0x1ee>
 8000186:	ea4f 5454 	mov.w	r4, r4, lsr #21
 800018a:	ebd4 5555 	rsbs	r5, r4, r5, lsr #21
 800018e:	bfb8      	it	lt
 8000190:	426d      	neglt	r5, r5
 8000192:	dd0c      	ble.n	80001ae <__adddf3+0x52>
 8000194:	442c      	add	r4, r5
 8000196:	ea80 0202 	eor.w	r2, r0, r2
 800019a:	ea81 0303 	eor.w	r3, r1, r3
 800019e:	ea82 0000 	eor.w	r0, r2, r0
 80001a2:	ea83 0101 	eor.w	r1, r3, r1
 80001a6:	ea80 0202 	eor.w	r2, r0, r2
 80001aa:	ea81 0303 	eor.w	r3, r1, r3
 80001ae:	2d36      	cmp	r5, #54	; 0x36
 80001b0:	bf88      	it	hi
 80001b2:	bd30      	pophi	{r4, r5, pc}
 80001b4:	f011 4f00 	tst.w	r1, #2147483648	; 0x80000000
 80001b8:	ea4f 3101 	mov.w	r1, r1, lsl #12
 80001bc:	f44f 1c80 	mov.w	ip, #1048576	; 0x100000
 80001c0:	ea4c 3111 	orr.w	r1, ip, r1, lsr #12
 80001c4:	d002      	beq.n	80001cc <__adddf3+0x70>
 80001c6:	4240      	negs	r0, r0
 80001c8:	eb61 0141 	sbc.w	r1, r1, r1, lsl #1
 80001cc:	f013 4f00 	tst.w	r3, #2147483648	; 0x80000000
 80001d0:	ea4f 3303 	mov.w	r3, r3, lsl #12
 80001d4:	ea4c 3313 	orr.w	r3, ip, r3, lsr #12
 80001d8:	d002      	beq.n	80001e0 <__adddf3+0x84>
 80001da:	4252      	negs	r2, r2
 80001dc:	eb63 0343 	sbc.w	r3, r3, r3, lsl #1
 80001e0:	ea94 0f05 	teq	r4, r5
 80001e4:	f000 80a7 	beq.w	8000336 <__adddf3+0x1da>
 80001e8:	f1a4 0401 	sub.w	r4, r4, #1
 80001ec:	f1d5 0e20 	rsbs	lr, r5, #32
 80001f0:	db0d      	blt.n	800020e <__adddf3+0xb2>
 80001f2:	fa02 fc0e 	lsl.w	ip, r2, lr
 80001f6:	fa22 f205 	lsr.w	r2, r2, r5
 80001fa:	1880      	adds	r0, r0, r2
 80001fc:	f141 0100 	adc.w	r1, r1, #0
 8000200:	fa03 f20e 	lsl.w	r2, r3, lr
 8000204:	1880      	adds	r0, r0, r2
 8000206:	fa43 f305 	asr.w	r3, r3, r5
 800020a:	4159      	adcs	r1, r3
 800020c:	e00e      	b.n	800022c <__adddf3+0xd0>
 800020e:	f1a5 0520 	sub.w	r5, r5, #32
 8000212:	f10e 0e20 	add.w	lr, lr, #32
 8000216:	2a01      	cmp	r2, #1
 8000218:	fa03 fc0e 	lsl.w	ip, r3, lr
 800021c:	bf28      	it	cs
 800021e:	f04c 0c02 	orrcs.w	ip, ip, #2
 8000222:	fa43 f305 	asr.w	r3, r3, r5
 8000226:	18c0      	adds	r0, r0, r3
 8000228:	eb51 71e3 	adcs.w	r1, r1, r3, asr #31
 800022c:	f001 4500 	and.w	r5, r1, #2147483648	; 0x80000000
 8000230:	d507      	bpl.n	8000242 <__adddf3+0xe6>
 8000232:	f04f 0e00 	mov.w	lr, #0
 8000236:	f1dc 0c00 	rsbs	ip, ip, #0
 800023a:	eb7e 0000 	sbcs.w	r0, lr, r0
 800023e:	eb6e 0101 	sbc.w	r1, lr, r1
 8000242:	f5b1 1f80 	cmp.w	r1, #1048576	; 0x100000
 8000246:	d31b      	bcc.n	8000280 <__adddf3+0x124>
 8000248:	f5b1 1f00 	cmp.w	r1, #2097152	; 0x200000
 800024c:	d30c      	bcc.n	8000268 <__adddf3+0x10c>
 800024e:	0849      	lsrs	r1, r1, #1
 8000250:	ea5f 0030 	movs.w	r0, r0, rrx
 8000254:	ea4f 0c3c 	mov.w	ip, ip, rrx
 8000258:	f104 0401 	add.w	r4, r4, #1
 800025c:	ea4f 5244 	mov.w	r2, r4, lsl #21
 8000260:	f512 0f80 	cmn.w	r2, #4194304	; 0x400000
 8000264:	f080 809a 	bcs.w	800039c <__adddf3+0x240>
 8000268:	f1bc 4f00 	cmp.w	ip, #2147483648	; 0x80000000
 800026c:	bf08      	it	eq
 800026e:	ea5f 0c50 	movseq.w	ip, r0, lsr #1
 8000272:	f150 0000 	adcs.w	r0, r0, #0
 8000276:	eb41 5104 	adc.w	r1, r1, r4, lsl #20
 800027a:	ea41 0105 	orr.w	r1, r1, r5
 800027e:	bd30      	pop	{r4, r5, pc}
 8000280:	ea5f 0c4c 	movs.w	ip, ip, lsl #1
 8000284:	4140      	adcs	r0, r0
 8000286:	eb41 0101 	adc.w	r1, r1, r1
 800028a:	3c01      	subs	r4, #1
 800028c:	bf28      	it	cs
 800028e:	f5b1 1f80 	cmpcs.w	r1, #1048576	; 0x100000
 8000292:	d2e9      	bcs.n	8000268 <__adddf3+0x10c>
 8000294:	f091 0f00 	teq	r1, #0
 8000298:	bf04      	itt	eq
 800029a:	4601      	moveq	r1, r0
 800029c:	2000      	moveq	r0, #0
 800029e:	fab1 f381 	clz	r3, r1
 80002a2:	bf08      	it	eq
 80002a4:	3320      	addeq	r3, #32
 80002a6:	f1a3 030b 	sub.w	r3, r3, #11
 80002aa:	f1b3 0220 	subs.w	r2, r3, #32
 80002ae:	da0c      	bge.n	80002ca <__adddf3+0x16e>
 80002b0:	320c      	adds	r2, #12
 80002b2:	dd08      	ble.n	80002c6 <__adddf3+0x16a>
 80002b4:	f102 0c14 	add.w	ip, r2, #20
 80002b8:	f1c2 020c 	rsb	r2, r2, #12
 80002bc:	fa01 f00c 	lsl.w	r0, r1, ip
 80002c0:	fa21 f102 	lsr.w	r1, r1, r2
 80002c4:	e00c      	b.n	80002e0 <__adddf3+0x184>
 80002c6:	f102 0214 	add.w	r2, r2, #20
 80002ca:	bfd8      	it	le
 80002cc:	f1c2 0c20 	rsble	ip, r2, #32
 80002d0:	fa01 f102 	lsl.w	r1, r1, r2
 80002d4:	fa20 fc0c 	lsr.w	ip, r0, ip
 80002d8:	bfdc      	itt	le
 80002da:	ea41 010c 	orrle.w	r1, r1, ip
 80002de:	4090      	lslle	r0, r2
 80002e0:	1ae4      	subs	r4, r4, r3
 80002e2:	bfa2      	ittt	ge
 80002e4:	eb01 5104 	addge.w	r1, r1, r4, lsl #20
 80002e8:	4329      	orrge	r1, r5
 80002ea:	bd30      	popge	{r4, r5, pc}
 80002ec:	ea6f 0404 	mvn.w	r4, r4
 80002f0:	3c1f      	subs	r4, #31
 80002f2:	da1c      	bge.n	800032e <__adddf3+0x1d2>
 80002f4:	340c      	adds	r4, #12
 80002f6:	dc0e      	bgt.n	8000316 <__adddf3+0x1ba>
 80002f8:	f104 0414 	add.w	r4, r4, #20
 80002fc:	f1c4 0220 	rsb	r2, r4, #32
 8000300:	fa20 f004 	lsr.w	r0, r0, r4
 8000304:	fa01 f302 	lsl.w	r3, r1, r2
 8000308:	ea40 0003 	orr.w	r0, r0, r3
 800030c:	fa21 f304 	lsr.w	r3, r1, r4
 8000310:	ea45 0103 	orr.w	r1, r5, r3
 8000314:	bd30      	pop	{r4, r5, pc}
 8000316:	f1c4 040c 	rsb	r4, r4, #12
 800031a:	f1c4 0220 	rsb	r2, r4, #32
 800031e:	fa20 f002 	lsr.w	r0, r0, r2
 8000322:	fa01 f304 	lsl.w	r3, r1, r4
 8000326:	ea40 0003 	orr.w	r0, r0, r3
 800032a:	4629      	mov	r1, r5
 800032c:	bd30      	pop	{r4, r5, pc}
 800032e:	fa21 f004 	lsr.w	r0, r1, r4
 8000332:	4629      	mov	r1, r5
 8000334:	bd30      	pop	{r4, r5, pc}
 8000336:	f094 0f00 	teq	r4, #0
 800033a:	f483 1380 	eor.w	r3, r3, #1048576	; 0x100000
 800033e:	bf06      	itte	eq
 8000340:	f481 1180 	eoreq.w	r1, r1, #1048576	; 0x100000
 8000344:	3401      	addeq	r4, #1
 8000346:	3d01      	subne	r5, #1
 8000348:	e74e      	b.n	80001e8 <__adddf3+0x8c>
 800034a:	ea7f 5c64 	mvns.w	ip, r4, asr #21
 800034e:	bf18      	it	ne
 8000350:	ea7f 5c65 	mvnsne.w	ip, r5, asr #21
 8000354:	d029      	beq.n	80003aa <__adddf3+0x24e>
 8000356:	ea94 0f05 	teq	r4, r5
 800035a:	bf08      	it	eq
 800035c:	ea90 0f02 	teqeq	r0, r2
 8000360:	d005      	beq.n	800036e <__adddf3+0x212>
 8000362:	ea54 0c00 	orrs.w	ip, r4, r0
 8000366:	bf04      	itt	eq
 8000368:	4619      	moveq	r1, r3
 800036a:	4610      	moveq	r0, r2
 800036c:	bd30      	pop	{r4, r5, pc}
 800036e:	ea91 0f03 	teq	r1, r3
 8000372:	bf1e      	ittt	ne
 8000374:	2100      	movne	r1, #0
 8000376:	2000      	movne	r0, #0
 8000378:	bd30      	popne	{r4, r5, pc}
 800037a:	ea5f 5c54 	movs.w	ip, r4, lsr #21
 800037e:	d105      	bne.n	800038c <__adddf3+0x230>
 8000380:	0040      	lsls	r0, r0, #1
 8000382:	4149      	adcs	r1, r1
 8000384:	bf28      	it	cs
 8000386:	f041 4100 	orrcs.w	r1, r1, #2147483648	; 0x80000000
 800038a:	bd30      	pop	{r4, r5, pc}
 800038c:	f514 0480 	adds.w	r4, r4, #4194304	; 0x400000
 8000390:	bf3c      	itt	cc
 8000392:	f501 1180 	addcc.w	r1, r1, #1048576	; 0x100000
 8000396:	bd30      	popcc	{r4, r5, pc}
 8000398:	f001 4500 	and.w	r5, r1, #2147483648	; 0x80000000
 800039c:	f045 41fe 	orr.w	r1, r5, #2130706432	; 0x7f000000
 80003a0:	f441 0170 	orr.w	r1, r1, #15728640	; 0xf00000
 80003a4:	f04f 0000 	mov.w	r0, #0
 80003a8:	bd30      	pop	{r4, r5, pc}
 80003aa:	ea7f 5c64 	mvns.w	ip, r4, asr #21
 80003ae:	bf1a      	itte	ne
 80003b0:	4619      	movne	r1, r3
 80003b2:	4610      	movne	r0, r2
 80003b4:	ea7f 5c65 	mvnseq.w	ip, r5, asr #21
 80003b8:	bf1c      	itt	ne
 80003ba:	460b      	movne	r3, r1
 80003bc:	4602      	movne	r2, r0
 80003be:	ea50 3401 	orrs.w	r4, r0, r1, lsl #12
 80003c2:	bf06      	itte	eq
 80003c4:	ea52 3503 	orrseq.w	r5, r2, r3, lsl #12
 80003c8:	ea91 0f03 	teqeq	r1, r3
 80003cc:	f441 2100 	orrne.w	r1, r1, #524288	; 0x80000
 80003d0:	bd30      	pop	{r4, r5, pc}
 80003d2:	bf00      	nop

080003d4 <__aeabi_ui2d>:
 80003d4:	f090 0f00 	teq	r0, #0
 80003d8:	bf04      	itt	eq
 80003da:	2100      	moveq	r1, #0
 80003dc:	4770      	bxeq	lr
 80003de:	b530      	push	{r4, r5, lr}
 80003e0:	f44f 6480 	mov.w	r4, #1024	; 0x400
 80003e4:	f104 0432 	add.w	r4, r4, #50	; 0x32
 80003e8:	f04f 0500 	mov.w	r5, #0
 80003ec:	f04f 0100 	mov.w	r1, #0
 80003f0:	e750      	b.n	8000294 <__adddf3+0x138>
 80003f2:	bf00      	nop

080003f4 <__aeabi_i2d>:
 80003f4:	f090 0f00 	teq	r0, #0
 80003f8:	bf04      	itt	eq
 80003fa:	2100      	moveq	r1, #0
 80003fc:	4770      	bxeq	lr
 80003fe:	b530      	push	{r4, r5, lr}
 8000400:	f44f 6480 	mov.w	r4, #1024	; 0x400
 8000404:	f104 0432 	add.w	r4, r4, #50	; 0x32
 8000408:	f010 4500 	ands.w	r5, r0, #2147483648	; 0x80000000
 800040c:	bf48      	it	mi
 800040e:	4240      	negmi	r0, r0
 8000410:	f04f 0100 	mov.w	r1, #0
 8000414:	e73e      	b.n	8000294 <__adddf3+0x138>
 8000416:	bf00      	nop

08000418 <__aeabi_f2d>:
 8000418:	0042      	lsls	r2, r0, #1
 800041a:	ea4f 01e2 	mov.w	r1, r2, asr #3
 800041e:	ea4f 0131 	mov.w	r1, r1, rrx
 8000422:	ea4f 7002 	mov.w	r0, r2, lsl #28
 8000426:	bf1f      	itttt	ne
 8000428:	f012 437f 	andsne.w	r3, r2, #4278190080	; 0xff000000
 800042c:	f093 4f7f 	teqne	r3, #4278190080	; 0xff000000
 8000430:	f081 5160 	eorne.w	r1, r1, #939524096	; 0x38000000
 8000434:	4770      	bxne	lr
 8000436:	f032 427f 	bics.w	r2, r2, #4278190080	; 0xff000000
 800043a:	bf08      	it	eq
 800043c:	4770      	bxeq	lr
 800043e:	f093 4f7f 	teq	r3, #4278190080	; 0xff000000
 8000442:	bf04      	itt	eq
 8000444:	f441 2100 	orreq.w	r1, r1, #524288	; 0x80000
 8000448:	4770      	bxeq	lr
 800044a:	b530      	push	{r4, r5, lr}
 800044c:	f44f 7460 	mov.w	r4, #896	; 0x380
 8000450:	f001 4500 	and.w	r5, r1, #2147483648	; 0x80000000
 8000454:	f021 4100 	bic.w	r1, r1, #2147483648	; 0x80000000
 8000458:	e71c      	b.n	8000294 <__adddf3+0x138>
 800045a:	bf00      	nop

0800045c <__aeabi_ul2d>:
 800045c:	ea50 0201 	orrs.w	r2, r0, r1
 8000460:	bf08      	it	eq
 8000462:	4770      	bxeq	lr
 8000464:	b530      	push	{r4, r5, lr}
 8000466:	f04f 0500 	mov.w	r5, #0
 800046a:	e00a      	b.n	8000482 <__aeabi_l2d+0x16>

0800046c <__aeabi_l2d>:
 800046c:	ea50 0201 	orrs.w	r2, r0, r1
 8000470:	bf08      	it	eq
 8000472:	4770      	bxeq	lr
 8000474:	b530      	push	{r4, r5, lr}
 8000476:	f011 4500 	ands.w	r5, r1, #2147483648	; 0x80000000
 800047a:	d502      	bpl.n	8000482 <__aeabi_l2d+0x16>
 800047c:	4240      	negs	r0, r0
 800047e:	eb61 0141 	sbc.w	r1, r1, r1, lsl #1
 8000482:	f44f 6480 	mov.w	r4, #1024	; 0x400
 8000486:	f104 0432 	add.w	r4, r4, #50	; 0x32
 800048a:	ea5f 5c91 	movs.w	ip, r1, lsr #22
 800048e:	f43f aed8 	beq.w	8000242 <__adddf3+0xe6>
 8000492:	f04f 0203 	mov.w	r2, #3
 8000496:	ea5f 0cdc 	movs.w	ip, ip, lsr #3
 800049a:	bf18      	it	ne
 800049c:	3203      	addne	r2, #3
 800049e:	ea5f 0cdc 	movs.w	ip, ip, lsr #3
 80004a2:	bf18      	it	ne
 80004a4:	3203      	addne	r2, #3
 80004a6:	eb02 02dc 	add.w	r2, r2, ip, lsr #3
 80004aa:	f1c2 0320 	rsb	r3, r2, #32
 80004ae:	fa00 fc03 	lsl.w	ip, r0, r3
 80004b2:	fa20 f002 	lsr.w	r0, r0, r2
 80004b6:	fa01 fe03 	lsl.w	lr, r1, r3
 80004ba:	ea40 000e 	orr.w	r0, r0, lr
 80004be:	fa21 f102 	lsr.w	r1, r1, r2
 80004c2:	4414      	add	r4, r2
 80004c4:	e6bd      	b.n	8000242 <__adddf3+0xe6>
 80004c6:	bf00      	nop

080004c8 <__aeabi_dmul>:
 80004c8:	b570      	push	{r4, r5, r6, lr}
 80004ca:	f04f 0cff 	mov.w	ip, #255	; 0xff
 80004ce:	f44c 6ce0 	orr.w	ip, ip, #1792	; 0x700
 80004d2:	ea1c 5411 	ands.w	r4, ip, r1, lsr #20
 80004d6:	bf1d      	ittte	ne
 80004d8:	ea1c 5513 	andsne.w	r5, ip, r3, lsr #20
 80004dc:	ea94 0f0c 	teqne	r4, ip
 80004e0:	ea95 0f0c 	teqne	r5, ip
 80004e4:	f000 f8de 	bleq	80006a4 <__aeabi_dmul+0x1dc>
 80004e8:	442c      	add	r4, r5
 80004ea:	ea81 0603 	eor.w	r6, r1, r3
 80004ee:	ea21 514c 	bic.w	r1, r1, ip, lsl #21
 80004f2:	ea23 534c 	bic.w	r3, r3, ip, lsl #21
 80004f6:	ea50 3501 	orrs.w	r5, r0, r1, lsl #12
 80004fa:	bf18      	it	ne
 80004fc:	ea52 3503 	orrsne.w	r5, r2, r3, lsl #12
 8000500:	f441 1180 	orr.w	r1, r1, #1048576	; 0x100000
 8000504:	f443 1380 	orr.w	r3, r3, #1048576	; 0x100000
 8000508:	d038      	beq.n	800057c <__aeabi_dmul+0xb4>
 800050a:	fba0 ce02 	umull	ip, lr, r0, r2
 800050e:	f04f 0500 	mov.w	r5, #0
 8000512:	fbe1 e502 	umlal	lr, r5, r1, r2
 8000516:	f006 4200 	and.w	r2, r6, #2147483648	; 0x80000000
 800051a:	fbe0 e503 	umlal	lr, r5, r0, r3
 800051e:	f04f 0600 	mov.w	r6, #0
 8000522:	fbe1 5603 	umlal	r5, r6, r1, r3
 8000526:	f09c 0f00 	teq	ip, #0
 800052a:	bf18      	it	ne
 800052c:	f04e 0e01 	orrne.w	lr, lr, #1
 8000530:	f1a4 04ff 	sub.w	r4, r4, #255	; 0xff
 8000534:	f5b6 7f00 	cmp.w	r6, #512	; 0x200
 8000538:	f564 7440 	sbc.w	r4, r4, #768	; 0x300
 800053c:	d204      	bcs.n	8000548 <__aeabi_dmul+0x80>
 800053e:	ea5f 0e4e 	movs.w	lr, lr, lsl #1
 8000542:	416d      	adcs	r5, r5
 8000544:	eb46 0606 	adc.w	r6, r6, r6
 8000548:	ea42 21c6 	orr.w	r1, r2, r6, lsl #11
 800054c:	ea41 5155 	orr.w	r1, r1, r5, lsr #21
 8000550:	ea4f 20c5 	mov.w	r0, r5, lsl #11
 8000554:	ea40 505e 	orr.w	r0, r0, lr, lsr #21
 8000558:	ea4f 2ece 	mov.w	lr, lr, lsl #11
 800055c:	f1b4 0cfd 	subs.w	ip, r4, #253	; 0xfd
 8000560:	bf88      	it	hi
 8000562:	f5bc 6fe0 	cmphi.w	ip, #1792	; 0x700
 8000566:	d81e      	bhi.n	80005a6 <__aeabi_dmul+0xde>
 8000568:	f1be 4f00 	cmp.w	lr, #2147483648	; 0x80000000
 800056c:	bf08      	it	eq
 800056e:	ea5f 0e50 	movseq.w	lr, r0, lsr #1
 8000572:	f150 0000 	adcs.w	r0, r0, #0
 8000576:	eb41 5104 	adc.w	r1, r1, r4, lsl #20
 800057a:	bd70      	pop	{r4, r5, r6, pc}
 800057c:	f006 4600 	and.w	r6, r6, #2147483648	; 0x80000000
 8000580:	ea46 0101 	orr.w	r1, r6, r1
 8000584:	ea40 0002 	orr.w	r0, r0, r2
 8000588:	ea81 0103 	eor.w	r1, r1, r3
 800058c:	ebb4 045c 	subs.w	r4, r4, ip, lsr #1
 8000590:	bfc2      	ittt	gt
 8000592:	ebd4 050c 	rsbsgt	r5, r4, ip
 8000596:	ea41 5104 	orrgt.w	r1, r1, r4, lsl #20
 800059a:	bd70      	popgt	{r4, r5, r6, pc}
 800059c:	f441 1180 	orr.w	r1, r1, #1048576	; 0x100000
 80005a0:	f04f 0e00 	mov.w	lr, #0
 80005a4:	3c01      	subs	r4, #1
 80005a6:	f300 80ab 	bgt.w	8000700 <__aeabi_dmul+0x238>
 80005aa:	f114 0f36 	cmn.w	r4, #54	; 0x36
 80005ae:	bfde      	ittt	le
 80005b0:	2000      	movle	r0, #0
 80005b2:	f001 4100 	andle.w	r1, r1, #2147483648	; 0x80000000
 80005b6:	bd70      	pople	{r4, r5, r6, pc}
 80005b8:	f1c4 0400 	rsb	r4, r4, #0
 80005bc:	3c20      	subs	r4, #32
 80005be:	da35      	bge.n	800062c <__aeabi_dmul+0x164>
 80005c0:	340c      	adds	r4, #12
 80005c2:	dc1b      	bgt.n	80005fc <__aeabi_dmul+0x134>
 80005c4:	f104 0414 	add.w	r4, r4, #20
 80005c8:	f1c4 0520 	rsb	r5, r4, #32
 80005cc:	fa00 f305 	lsl.w	r3, r0, r5
 80005d0:	fa20 f004 	lsr.w	r0, r0, r4
 80005d4:	fa01 f205 	lsl.w	r2, r1, r5
 80005d8:	ea40 0002 	orr.w	r0, r0, r2
 80005dc:	f001 4200 	and.w	r2, r1, #2147483648	; 0x80000000
 80005e0:	f021 4100 	bic.w	r1, r1, #2147483648	; 0x80000000
 80005e4:	eb10 70d3 	adds.w	r0, r0, r3, lsr #31
 80005e8:	fa21 f604 	lsr.w	r6, r1, r4
 80005ec:	eb42 0106 	adc.w	r1, r2, r6
 80005f0:	ea5e 0e43 	orrs.w	lr, lr, r3, lsl #1
 80005f4:	bf08      	it	eq
 80005f6:	ea20 70d3 	biceq.w	r0, r0, r3, lsr #31
 80005fa:	bd70      	pop	{r4, r5, r6, pc}
 80005fc:	f1c4 040c 	rsb	r4, r4, #12
 8000600:	f1c4 0520 	rsb	r5, r4, #32
 8000604:	fa00 f304 	lsl.w	r3, r0, r4
 8000608:	fa20 f005 	lsr.w	r0, r0, r5
 800060c:	fa01 f204 	lsl.w	r2, r1, r4
 8000610:	ea40 0002 	orr.w	r0, r0, r2
 8000614:	f001 4100 	and.w	r1, r1, #2147483648	; 0x80000000
 8000618:	eb10 70d3 	adds.w	r0, r0, r3, lsr #31
 800061c:	f141 0100 	adc.w	r1, r1, #0
 8000620:	ea5e 0e43 	orrs.w	lr, lr, r3, lsl #1
 8000624:	bf08      	it	eq
 8000626:	ea20 70d3 	biceq.w	r0, r0, r3, lsr #31
 800062a:	bd70      	pop	{r4, r5, r6, pc}
 800062c:	f1c4 0520 	rsb	r5, r4, #32
 8000630:	fa00 f205 	lsl.w	r2, r0, r5
 8000634:	ea4e 0e02 	orr.w	lr, lr, r2
 8000638:	fa20 f304 	lsr.w	r3, r0, r4
 800063c:	fa01 f205 	lsl.w	r2, r1, r5
 8000640:	ea43 0302 	orr.w	r3, r3, r2
 8000644:	fa21 f004 	lsr.w	r0, r1, r4
 8000648:	f001 4100 	and.w	r1, r1, #2147483648	; 0x80000000
 800064c:	fa21 f204 	lsr.w	r2, r1, r4
 8000650:	ea20 0002 	bic.w	r0, r0, r2
 8000654:	eb00 70d3 	add.w	r0, r0, r3, lsr #31
 8000658:	ea5e 0e43 	orrs.w	lr, lr, r3, lsl #1
 800065c:	bf08      	it	eq
 800065e:	ea20 70d3 	biceq.w	r0, r0, r3, lsr #31
 8000662:	bd70      	pop	{r4, r5, r6, pc}
 8000664:	f094 0f00 	teq	r4, #0
 8000668:	d10f      	bne.n	800068a <__aeabi_dmul+0x1c2>
 800066a:	f001 4600 	and.w	r6, r1, #2147483648	; 0x80000000
 800066e:	0040      	lsls	r0, r0, #1
 8000670:	eb41 0101 	adc.w	r1, r1, r1
 8000674:	f411 1f80 	tst.w	r1, #1048576	; 0x100000
 8000678:	bf08      	it	eq
 800067a:	3c01      	subeq	r4, #1
 800067c:	d0f7      	beq.n	800066e <__aeabi_dmul+0x1a6>
 800067e:	ea41 0106 	orr.w	r1, r1, r6
 8000682:	f095 0f00 	teq	r5, #0
 8000686:	bf18      	it	ne
 8000688:	4770      	bxne	lr
 800068a:	f003 4600 	and.w	r6, r3, #2147483648	; 0x80000000
 800068e:	0052      	lsls	r2, r2, #1
 8000690:	eb43 0303 	adc.w	r3, r3, r3
 8000694:	f413 1f80 	tst.w	r3, #1048576	; 0x100000
 8000698:	bf08      	it	eq
 800069a:	3d01      	subeq	r5, #1
 800069c:	d0f7      	beq.n	800068e <__aeabi_dmul+0x1c6>
 800069e:	ea43 0306 	orr.w	r3, r3, r6
 80006a2:	4770      	bx	lr
 80006a4:	ea94 0f0c 	teq	r4, ip
 80006a8:	ea0c 5513 	and.w	r5, ip, r3, lsr #20
 80006ac:	bf18      	it	ne
 80006ae:	ea95 0f0c 	teqne	r5, ip
 80006b2:	d00c      	beq.n	80006ce <__aeabi_dmul+0x206>
 80006b4:	ea50 0641 	orrs.w	r6, r0, r1, lsl #1
 80006b8:	bf18      	it	ne
 80006ba:	ea52 0643 	orrsne.w	r6, r2, r3, lsl #1
 80006be:	d1d1      	bne.n	8000664 <__aeabi_dmul+0x19c>
 80006c0:	ea81 0103 	eor.w	r1, r1, r3
 80006c4:	f001 4100 	and.w	r1, r1, #2147483648	; 0x80000000
 80006c8:	f04f 0000 	mov.w	r0, #0
 80006cc:	bd70      	pop	{r4, r5, r6, pc}
 80006ce:	ea50 0641 	orrs.w	r6, r0, r1, lsl #1
 80006d2:	bf06      	itte	eq
 80006d4:	4610      	moveq	r0, r2
 80006d6:	4619      	moveq	r1, r3
 80006d8:	ea52 0643 	orrsne.w	r6, r2, r3, lsl #1
 80006dc:	d019      	beq.n	8000712 <__aeabi_dmul+0x24a>
 80006de:	ea94 0f0c 	teq	r4, ip
 80006e2:	d102      	bne.n	80006ea <__aeabi_dmul+0x222>
 80006e4:	ea50 3601 	orrs.w	r6, r0, r1, lsl #12
 80006e8:	d113      	bne.n	8000712 <__aeabi_dmul+0x24a>
 80006ea:	ea95 0f0c 	teq	r5, ip
 80006ee:	d105      	bne.n	80006fc <__aeabi_dmul+0x234>
 80006f0:	ea52 3603 	orrs.w	r6, r2, r3, lsl #12
 80006f4:	bf1c      	itt	ne
 80006f6:	4610      	movne	r0, r2
 80006f8:	4619      	movne	r1, r3
 80006fa:	d10a      	bne.n	8000712 <__aeabi_dmul+0x24a>
 80006fc:	ea81 0103 	eor.w	r1, r1, r3
 8000700:	f001 4100 	and.w	r1, r1, #2147483648	; 0x80000000
 8000704:	f041 41fe 	orr.w	r1, r1, #2130706432	; 0x7f000000
 8000708:	f441 0170 	orr.w	r1, r1, #15728640	; 0xf00000
 800070c:	f04f 0000 	mov.w	r0, #0
 8000710:	bd70      	pop	{r4, r5, r6, pc}
 8000712:	f041 41fe 	orr.w	r1, r1, #2130706432	; 0x7f000000
 8000716:	f441 0178 	orr.w	r1, r1, #16252928	; 0xf80000
 800071a:	bd70      	pop	{r4, r5, r6, pc}

0800071c <__aeabi_ddiv>:
 800071c:	b570      	push	{r4, r5, r6, lr}
 800071e:	f04f 0cff 	mov.w	ip, #255	; 0xff
 8000722:	f44c 6ce0 	orr.w	ip, ip, #1792	; 0x700
 8000726:	ea1c 5411 	ands.w	r4, ip, r1, lsr #20
 800072a:	bf1d      	ittte	ne
 800072c:	ea1c 5513 	andsne.w	r5, ip, r3, lsr #20
 8000730:	ea94 0f0c 	teqne	r4, ip
 8000734:	ea95 0f0c 	teqne	r5, ip
 8000738:	f000 f8a7 	bleq	800088a <__aeabi_ddiv+0x16e>
 800073c:	eba4 0405 	sub.w	r4, r4, r5
 8000740:	ea81 0e03 	eor.w	lr, r1, r3
 8000744:	ea52 3503 	orrs.w	r5, r2, r3, lsl #12
 8000748:	ea4f 3101 	mov.w	r1, r1, lsl #12
 800074c:	f000 8088 	beq.w	8000860 <__aeabi_ddiv+0x144>
 8000750:	ea4f 3303 	mov.w	r3, r3, lsl #12
 8000754:	f04f 5580 	mov.w	r5, #268435456	; 0x10000000
 8000758:	ea45 1313 	orr.w	r3, r5, r3, lsr #4
 800075c:	ea43 6312 	orr.w	r3, r3, r2, lsr #24
 8000760:	ea4f 2202 	mov.w	r2, r2, lsl #8
 8000764:	ea45 1511 	orr.w	r5, r5, r1, lsr #4
 8000768:	ea45 6510 	orr.w	r5, r5, r0, lsr #24
 800076c:	ea4f 2600 	mov.w	r6, r0, lsl #8
 8000770:	f00e 4100 	and.w	r1, lr, #2147483648	; 0x80000000
 8000774:	429d      	cmp	r5, r3
 8000776:	bf08      	it	eq
 8000778:	4296      	cmpeq	r6, r2
 800077a:	f144 04fd 	adc.w	r4, r4, #253	; 0xfd
 800077e:	f504 7440 	add.w	r4, r4, #768	; 0x300
 8000782:	d202      	bcs.n	800078a <__aeabi_ddiv+0x6e>
 8000784:	085b      	lsrs	r3, r3, #1
 8000786:	ea4f 0232 	mov.w	r2, r2, rrx
 800078a:	1ab6      	subs	r6, r6, r2
 800078c:	eb65 0503 	sbc.w	r5, r5, r3
 8000790:	085b      	lsrs	r3, r3, #1
 8000792:	ea4f 0232 	mov.w	r2, r2, rrx
 8000796:	f44f 1080 	mov.w	r0, #1048576	; 0x100000
 800079a:	f44f 2c00 	mov.w	ip, #524288	; 0x80000
 800079e:	ebb6 0e02 	subs.w	lr, r6, r2
 80007a2:	eb75 0e03 	sbcs.w	lr, r5, r3
 80007a6:	bf22      	ittt	cs
 80007a8:	1ab6      	subcs	r6, r6, r2
 80007aa:	4675      	movcs	r5, lr
 80007ac:	ea40 000c 	orrcs.w	r0, r0, ip
 80007b0:	085b      	lsrs	r3, r3, #1
 80007b2:	ea4f 0232 	mov.w	r2, r2, rrx
 80007b6:	ebb6 0e02 	subs.w	lr, r6, r2
 80007ba:	eb75 0e03 	sbcs.w	lr, r5, r3
 80007be:	bf22      	ittt	cs
 80007c0:	1ab6      	subcs	r6, r6, r2
 80007c2:	4675      	movcs	r5, lr
 80007c4:	ea40 005c 	orrcs.w	r0, r0, ip, lsr #1
 80007c8:	085b      	lsrs	r3, r3, #1
 80007ca:	ea4f 0232 	mov.w	r2, r2, rrx
 80007ce:	ebb6 0e02 	subs.w	lr, r6, r2
 80007d2:	eb75 0e03 	sbcs.w	lr, r5, r3
 80007d6:	bf22      	ittt	cs
 80007d8:	1ab6      	subcs	r6, r6, r2
 80007da:	4675      	movcs	r5, lr
 80007dc:	ea40 009c 	orrcs.w	r0, r0, ip, lsr #2
 80007e0:	085b      	lsrs	r3, r3, #1
 80007e2:	ea4f 0232 	mov.w	r2, r2, rrx
 80007e6:	ebb6 0e02 	subs.w	lr, r6, r2
 80007ea:	eb75 0e03 	sbcs.w	lr, r5, r3
 80007ee:	bf22      	ittt	cs
 80007f0:	1ab6      	subcs	r6, r6, r2
 80007f2:	4675      	movcs	r5, lr
 80007f4:	ea40 00dc 	orrcs.w	r0, r0, ip, lsr #3
 80007f8:	ea55 0e06 	orrs.w	lr, r5, r6
 80007fc:	d018      	beq.n	8000830 <__aeabi_ddiv+0x114>
 80007fe:	ea4f 1505 	mov.w	r5, r5, lsl #4
 8000802:	ea45 7516 	orr.w	r5, r5, r6, lsr #28
 8000806:	ea4f 1606 	mov.w	r6, r6, lsl #4
 800080a:	ea4f 03c3 	mov.w	r3, r3, lsl #3
 800080e:	ea43 7352 	orr.w	r3, r3, r2, lsr #29
 8000812:	ea4f 02c2 	mov.w	r2, r2, lsl #3
 8000816:	ea5f 1c1c 	movs.w	ip, ip, lsr #4
 800081a:	d1c0      	bne.n	800079e <__aeabi_ddiv+0x82>
 800081c:	f411 1f80 	tst.w	r1, #1048576	; 0x100000
 8000820:	d10b      	bne.n	800083a <__aeabi_ddiv+0x11e>
 8000822:	ea41 0100 	orr.w	r1, r1, r0
 8000826:	f04f 0000 	mov.w	r0, #0
 800082a:	f04f 4c00 	mov.w	ip, #2147483648	; 0x80000000
 800082e:	e7b6      	b.n	800079e <__aeabi_ddiv+0x82>
 8000830:	f411 1f80 	tst.w	r1, #1048576	; 0x100000
 8000834:	bf04      	itt	eq
 8000836:	4301      	orreq	r1, r0
 8000838:	2000      	moveq	r0, #0
 800083a:	f1b4 0cfd 	subs.w	ip, r4, #253	; 0xfd
 800083e:	bf88      	it	hi
 8000840:	f5bc 6fe0 	cmphi.w	ip, #1792	; 0x700
 8000844:	f63f aeaf 	bhi.w	80005a6 <__aeabi_dmul+0xde>
 8000848:	ebb5 0c03 	subs.w	ip, r5, r3
 800084c:	bf04      	itt	eq
 800084e:	ebb6 0c02 	subseq.w	ip, r6, r2
 8000852:	ea5f 0c50 	movseq.w	ip, r0, lsr #1
 8000856:	f150 0000 	adcs.w	r0, r0, #0
 800085a:	eb41 5104 	adc.w	r1, r1, r4, lsl #20
 800085e:	bd70      	pop	{r4, r5, r6, pc}
 8000860:	f00e 4e00 	and.w	lr, lr, #2147483648	; 0x80000000
 8000864:	ea4e 3111 	orr.w	r1, lr, r1, lsr #12
 8000868:	eb14 045c 	adds.w	r4, r4, ip, lsr #1
 800086c:	bfc2      	ittt	gt
 800086e:	ebd4 050c 	rsbsgt	r5, r4, ip
 8000872:	ea41 5104 	orrgt.w	r1, r1, r4, lsl #20
 8000876:	bd70      	popgt	{r4, r5, r6, pc}
 8000878:	f441 1180 	orr.w	r1, r1, #1048576	; 0x100000
 800087c:	f04f 0e00 	mov.w	lr, #0
 8000880:	3c01      	subs	r4, #1
 8000882:	e690      	b.n	80005a6 <__aeabi_dmul+0xde>
 8000884:	ea45 0e06 	orr.w	lr, r5, r6
 8000888:	e68d      	b.n	80005a6 <__aeabi_dmul+0xde>
 800088a:	ea0c 5513 	and.w	r5, ip, r3, lsr #20
 800088e:	ea94 0f0c 	teq	r4, ip
 8000892:	bf08      	it	eq
 8000894:	ea95 0f0c 	teqeq	r5, ip
 8000898:	f43f af3b 	beq.w	8000712 <__aeabi_dmul+0x24a>
 800089c:	ea94 0f0c 	teq	r4, ip
 80008a0:	d10a      	bne.n	80008b8 <__aeabi_ddiv+0x19c>
 80008a2:	ea50 3401 	orrs.w	r4, r0, r1, lsl #12
 80008a6:	f47f af34 	bne.w	8000712 <__aeabi_dmul+0x24a>
 80008aa:	ea95 0f0c 	teq	r5, ip
 80008ae:	f47f af25 	bne.w	80006fc <__aeabi_dmul+0x234>
 80008b2:	4610      	mov	r0, r2
 80008b4:	4619      	mov	r1, r3
 80008b6:	e72c      	b.n	8000712 <__aeabi_dmul+0x24a>
 80008b8:	ea95 0f0c 	teq	r5, ip
 80008bc:	d106      	bne.n	80008cc <__aeabi_ddiv+0x1b0>
 80008be:	ea52 3503 	orrs.w	r5, r2, r3, lsl #12
 80008c2:	f43f aefd 	beq.w	80006c0 <__aeabi_dmul+0x1f8>
 80008c6:	4610      	mov	r0, r2
 80008c8:	4619      	mov	r1, r3
 80008ca:	e722      	b.n	8000712 <__aeabi_dmul+0x24a>
 80008cc:	ea50 0641 	orrs.w	r6, r0, r1, lsl #1
 80008d0:	bf18      	it	ne
 80008d2:	ea52 0643 	orrsne.w	r6, r2, r3, lsl #1
 80008d6:	f47f aec5 	bne.w	8000664 <__aeabi_dmul+0x19c>
 80008da:	ea50 0441 	orrs.w	r4, r0, r1, lsl #1
 80008de:	f47f af0d 	bne.w	80006fc <__aeabi_dmul+0x234>
 80008e2:	ea52 0543 	orrs.w	r5, r2, r3, lsl #1
 80008e6:	f47f aeeb 	bne.w	80006c0 <__aeabi_dmul+0x1f8>
 80008ea:	e712      	b.n	8000712 <__aeabi_dmul+0x24a>

080008ec <__gedf2>:
 80008ec:	f04f 3cff 	mov.w	ip, #4294967295	; 0xffffffff
 80008f0:	e006      	b.n	8000900 <__cmpdf2+0x4>
 80008f2:	bf00      	nop

080008f4 <__ledf2>:
 80008f4:	f04f 0c01 	mov.w	ip, #1
 80008f8:	e002      	b.n	8000900 <__cmpdf2+0x4>
 80008fa:	bf00      	nop

080008fc <__cmpdf2>:
 80008fc:	f04f 0c01 	mov.w	ip, #1
 8000900:	f84d cd04 	str.w	ip, [sp, #-4]!
 8000904:	ea4f 0c41 	mov.w	ip, r1, lsl #1
 8000908:	ea7f 5c6c 	mvns.w	ip, ip, asr #21
 800090c:	ea4f 0c43 	mov.w	ip, r3, lsl #1
 8000910:	bf18      	it	ne
 8000912:	ea7f 5c6c 	mvnsne.w	ip, ip, asr #21
 8000916:	d01b      	beq.n	8000950 <__cmpdf2+0x54>
 8000918:	b001      	add	sp, #4
 800091a:	ea50 0c41 	orrs.w	ip, r0, r1, lsl #1
 800091e:	bf0c      	ite	eq
 8000920:	ea52 0c43 	orrseq.w	ip, r2, r3, lsl #1
 8000924:	ea91 0f03 	teqne	r1, r3
 8000928:	bf02      	ittt	eq
 800092a:	ea90 0f02 	teqeq	r0, r2
 800092e:	2000      	moveq	r0, #0
 8000930:	4770      	bxeq	lr
 8000932:	f110 0f00 	cmn.w	r0, #0
 8000936:	ea91 0f03 	teq	r1, r3
 800093a:	bf58      	it	pl
 800093c:	4299      	cmppl	r1, r3
 800093e:	bf08      	it	eq
 8000940:	4290      	cmpeq	r0, r2
 8000942:	bf2c      	ite	cs
 8000944:	17d8      	asrcs	r0, r3, #31
 8000946:	ea6f 70e3 	mvncc.w	r0, r3, asr #31
 800094a:	f040 0001 	orr.w	r0, r0, #1
 800094e:	4770      	bx	lr
 8000950:	ea4f 0c41 	mov.w	ip, r1, lsl #1
 8000954:	ea7f 5c6c 	mvns.w	ip, ip, asr #21
 8000958:	d102      	bne.n	8000960 <__cmpdf2+0x64>
 800095a:	ea50 3c01 	orrs.w	ip, r0, r1, lsl #12
 800095e:	d107      	bne.n	8000970 <__cmpdf2+0x74>
 8000960:	ea4f 0c43 	mov.w	ip, r3, lsl #1
 8000964:	ea7f 5c6c 	mvns.w	ip, ip, asr #21
 8000968:	d1d6      	bne.n	8000918 <__cmpdf2+0x1c>
 800096a:	ea52 3c03 	orrs.w	ip, r2, r3, lsl #12
 800096e:	d0d3      	beq.n	8000918 <__cmpdf2+0x1c>
 8000970:	f85d 0b04 	ldr.w	r0, [sp], #4
 8000974:	4770      	bx	lr
 8000976:	bf00      	nop

08000978 <__aeabi_cdrcmple>:
 8000978:	4684      	mov	ip, r0
 800097a:	4610      	mov	r0, r2
 800097c:	4662      	mov	r2, ip
 800097e:	468c      	mov	ip, r1
 8000980:	4619      	mov	r1, r3
 8000982:	4663      	mov	r3, ip
 8000984:	e000      	b.n	8000988 <__aeabi_cdcmpeq>
 8000986:	bf00      	nop

08000988 <__aeabi_cdcmpeq>:
 8000988:	b501      	push	{r0, lr}
 800098a:	f7ff ffb7 	bl	80008fc <__cmpdf2>
 800098e:	2800      	cmp	r0, #0
 8000990:	bf48      	it	mi
 8000992:	f110 0f00 	cmnmi.w	r0, #0
 8000996:	bd01      	pop	{r0, pc}

08000998 <__aeabi_dcmpeq>:
 8000998:	f84d ed08 	str.w	lr, [sp, #-8]!
 800099c:	f7ff fff4 	bl	8000988 <__aeabi_cdcmpeq>
 80009a0:	bf0c      	ite	eq
 80009a2:	2001      	moveq	r0, #1
 80009a4:	2000      	movne	r0, #0
 80009a6:	f85d fb08 	ldr.w	pc, [sp], #8
 80009aa:	bf00      	nop

080009ac <__aeabi_dcmplt>:
 80009ac:	f84d ed08 	str.w	lr, [sp, #-8]!
 80009b0:	f7ff ffea 	bl	8000988 <__aeabi_cdcmpeq>
 80009b4:	bf34      	ite	cc
 80009b6:	2001      	movcc	r0, #1
 80009b8:	2000      	movcs	r0, #0
 80009ba:	f85d fb08 	ldr.w	pc, [sp], #8
 80009be:	bf00      	nop

080009c0 <__aeabi_dcmple>:
 80009c0:	f84d ed08 	str.w	lr, [sp, #-8]!
 80009c4:	f7ff ffe0 	bl	8000988 <__aeabi_cdcmpeq>
 80009c8:	bf94      	ite	ls
 80009ca:	2001      	movls	r0, #1
 80009cc:	2000      	movhi	r0, #0
 80009ce:	f85d fb08 	ldr.w	pc, [sp], #8
 80009d2:	bf00      	nop

080009d4 <__aeabi_dcmpge>:
 80009d4:	f84d ed08 	str.w	lr, [sp, #-8]!
 80009d8:	f7ff ffce 	bl	8000978 <__aeabi_cdrcmple>
 80009dc:	bf94      	ite	ls
 80009de:	2001      	movls	r0, #1
 80009e0:	2000      	movhi	r0, #0
 80009e2:	f85d fb08 	ldr.w	pc, [sp], #8
 80009e6:	bf00      	nop

080009e8 <__aeabi_dcmpgt>:
 80009e8:	f84d ed08 	str.w	lr, [sp, #-8]!
 80009ec:	f7ff ffc4 	bl	8000978 <__aeabi_cdrcmple>
 80009f0:	bf34      	ite	cc
 80009f2:	2001      	movcc	r0, #1
 80009f4:	2000      	movcs	r0, #0
 80009f6:	f85d fb08 	ldr.w	pc, [sp], #8
 80009fa:	bf00      	nop

080009fc <__aeabi_dcmpun>:
 80009fc:	ea4f 0c41 	mov.w	ip, r1, lsl #1
 8000a00:	ea7f 5c6c 	mvns.w	ip, ip, asr #21
 8000a04:	d102      	bne.n	8000a0c <__aeabi_dcmpun+0x10>
 8000a06:	ea50 3c01 	orrs.w	ip, r0, r1, lsl #12
 8000a0a:	d10a      	bne.n	8000a22 <__aeabi_dcmpun+0x26>
 8000a0c:	ea4f 0c43 	mov.w	ip, r3, lsl #1
 8000a10:	ea7f 5c6c 	mvns.w	ip, ip, asr #21
 8000a14:	d102      	bne.n	8000a1c <__aeabi_dcmpun+0x20>
 8000a16:	ea52 3c03 	orrs.w	ip, r2, r3, lsl #12
 8000a1a:	d102      	bne.n	8000a22 <__aeabi_dcmpun+0x26>
 8000a1c:	f04f 0000 	mov.w	r0, #0
 8000a20:	4770      	bx	lr
 8000a22:	f04f 0001 	mov.w	r0, #1
 8000a26:	4770      	bx	lr

08000a28 <__aeabi_d2f>:
 8000a28:	ea4f 0241 	mov.w	r2, r1, lsl #1
 8000a2c:	f1b2 43e0 	subs.w	r3, r2, #1879048192	; 0x70000000
 8000a30:	bf24      	itt	cs
 8000a32:	f5b3 1c00 	subscs.w	ip, r3, #2097152	; 0x200000
 8000a36:	f1dc 5cfe 	rsbscs	ip, ip, #532676608	; 0x1fc00000
 8000a3a:	d90d      	bls.n	8000a58 <__aeabi_d2f+0x30>
 8000a3c:	f001 4c00 	and.w	ip, r1, #2147483648	; 0x80000000
 8000a40:	ea4f 02c0 	mov.w	r2, r0, lsl #3
 8000a44:	ea4c 7050 	orr.w	r0, ip, r0, lsr #29
 8000a48:	f1b2 4f00 	cmp.w	r2, #2147483648	; 0x80000000
 8000a4c:	eb40 0083 	adc.w	r0, r0, r3, lsl #2
 8000a50:	bf08      	it	eq
 8000a52:	f020 0001 	biceq.w	r0, r0, #1
 8000a56:	4770      	bx	lr
 8000a58:	f011 4f80 	tst.w	r1, #1073741824	; 0x40000000
 8000a5c:	d121      	bne.n	8000aa2 <__aeabi_d2f+0x7a>
 8000a5e:	f113 7238 	adds.w	r2, r3, #48234496	; 0x2e00000
 8000a62:	bfbc      	itt	lt
 8000a64:	f001 4000 	andlt.w	r0, r1, #2147483648	; 0x80000000
 8000a68:	4770      	bxlt	lr
 8000a6a:	f441 1180 	orr.w	r1, r1, #1048576	; 0x100000
 8000a6e:	ea4f 5252 	mov.w	r2, r2, lsr #21
 8000a72:	f1c2 0218 	rsb	r2, r2, #24
 8000a76:	f1c2 0c20 	rsb	ip, r2, #32
 8000a7a:	fa10 f30c 	lsls.w	r3, r0, ip
 8000a7e:	fa20 f002 	lsr.w	r0, r0, r2
 8000a82:	bf18      	it	ne
 8000a84:	f040 0001 	orrne.w	r0, r0, #1
 8000a88:	ea4f 23c1 	mov.w	r3, r1, lsl #11
 8000a8c:	ea4f 23d3 	mov.w	r3, r3, lsr #11
 8000a90:	fa03 fc0c 	lsl.w	ip, r3, ip
 8000a94:	ea40 000c 	orr.w	r0, r0, ip
 8000a98:	fa23 f302 	lsr.w	r3, r3, r2
 8000a9c:	ea4f 0343 	mov.w	r3, r3, lsl #1
 8000aa0:	e7cc      	b.n	8000a3c <__aeabi_d2f+0x14>
 8000aa2:	ea7f 5362 	mvns.w	r3, r2, asr #21
 8000aa6:	d107      	bne.n	8000ab8 <__aeabi_d2f+0x90>
 8000aa8:	ea50 3301 	orrs.w	r3, r0, r1, lsl #12
 8000aac:	bf1e      	ittt	ne
 8000aae:	f04f 40fe 	movne.w	r0, #2130706432	; 0x7f000000
 8000ab2:	f440 0040 	orrne.w	r0, r0, #12582912	; 0xc00000
 8000ab6:	4770      	bxne	lr
 8000ab8:	f001 4000 	and.w	r0, r1, #2147483648	; 0x80000000
 8000abc:	f040 40fe 	orr.w	r0, r0, #2130706432	; 0x7f000000
 8000ac0:	f440 0000 	orr.w	r0, r0, #8388608	; 0x800000
 8000ac4:	4770      	bx	lr
 8000ac6:	bf00      	nop

08000ac8 <__aeabi_f2uiz>:
 8000ac8:	0042      	lsls	r2, r0, #1
 8000aca:	d20e      	bcs.n	8000aea <__aeabi_f2uiz+0x22>
 8000acc:	f1b2 4ffe 	cmp.w	r2, #2130706432	; 0x7f000000
 8000ad0:	d30b      	bcc.n	8000aea <__aeabi_f2uiz+0x22>
 8000ad2:	f04f 039e 	mov.w	r3, #158	; 0x9e
 8000ad6:	ebb3 6212 	subs.w	r2, r3, r2, lsr #24
 8000ada:	d409      	bmi.n	8000af0 <__aeabi_f2uiz+0x28>
 8000adc:	ea4f 2300 	mov.w	r3, r0, lsl #8
 8000ae0:	f043 4300 	orr.w	r3, r3, #2147483648	; 0x80000000
 8000ae4:	fa23 f002 	lsr.w	r0, r3, r2
 8000ae8:	4770      	bx	lr
 8000aea:	f04f 0000 	mov.w	r0, #0
 8000aee:	4770      	bx	lr
 8000af0:	f112 0f61 	cmn.w	r2, #97	; 0x61
 8000af4:	d101      	bne.n	8000afa <__aeabi_f2uiz+0x32>
 8000af6:	0242      	lsls	r2, r0, #9
 8000af8:	d102      	bne.n	8000b00 <__aeabi_f2uiz+0x38>
 8000afa:	f04f 30ff 	mov.w	r0, #4294967295	; 0xffffffff
 8000afe:	4770      	bx	lr
 8000b00:	f04f 0000 	mov.w	r0, #0
 8000b04:	4770      	bx	lr
 8000b06:	bf00      	nop

08000b08 <TurnLedOn>:
 8000b08:	b580      	push	{r7, lr}
 8000b0a:	af00      	add	r7, sp, #0
 8000b0c:	210d      	movs	r1, #13
 8000b0e:	4802      	ldr	r0, [pc, #8]	; (8000b18 <TurnLedOn+0x10>)
 8000b10:	f000 f8aa 	bl	8000c68 <ResetPin>
 8000b14:	bf00      	nop
 8000b16:	bd80      	pop	{r7, pc}
 8000b18:	40011000 	.word	0x40011000

08000b1c <TurnLedOff>:
 8000b1c:	b580      	push	{r7, lr}
 8000b1e:	af00      	add	r7, sp, #0
 8000b20:	210d      	movs	r1, #13
 8000b22:	4802      	ldr	r0, [pc, #8]	; (8000b2c <TurnLedOff+0x10>)
 8000b24:	f000 f88f 	bl	8000c46 <SetPin>
 8000b28:	bf00      	nop
 8000b2a:	bd80      	pop	{r7, pc}
 8000b2c:	40011000 	.word	0x40011000

08000b30 <DMA1_Channel3_IRQHandler>:
// Local buffer
uint8_t tmp_buf[DMA_NUM_OF_TRANSACTIONS];

// Interrupt handler
void DMA1_Channel3_IRQHandler()
{
 8000b30:	b480      	push	{r7}
 8000b32:	b083      	sub	sp, #12
 8000b34:	af00      	add	r7, sp, #0
	//GPIOC->BSRR |= 0x40000000;		//*********

    // Clear interrupt flag
    DMA1->IFCR |= DMA_IFCR_CTCIF3;
 8000b36:	4b10      	ldr	r3, [pc, #64]	; (8000b78 <DMA1_Channel3_IRQHandler+0x48>)
 8000b38:	685b      	ldr	r3, [r3, #4]
 8000b3a:	4a0f      	ldr	r2, [pc, #60]	; (8000b78 <DMA1_Channel3_IRQHandler+0x48>)
 8000b3c:	f443 7300 	orr.w	r3, r3, #512	; 0x200
 8000b40:	6053      	str	r3, [r2, #4]
    
    // Return data
    for (int i = 0; i < DMA_NUM_OF_TRANSACTIONS; i++)
 8000b42:	2300      	movs	r3, #0
 8000b44:	607b      	str	r3, [r7, #4]
 8000b46:	e00b      	b.n	8000b60 <DMA1_Channel3_IRQHandler+0x30>
        buf_ptr[i] = tmp_buf[i];
 8000b48:	4b0c      	ldr	r3, [pc, #48]	; (8000b7c <DMA1_Channel3_IRQHandler+0x4c>)
 8000b4a:	681a      	ldr	r2, [r3, #0]
 8000b4c:	687b      	ldr	r3, [r7, #4]
 8000b4e:	4413      	add	r3, r2
 8000b50:	490b      	ldr	r1, [pc, #44]	; (8000b80 <DMA1_Channel3_IRQHandler+0x50>)
 8000b52:	687a      	ldr	r2, [r7, #4]
 8000b54:	440a      	add	r2, r1
 8000b56:	7812      	ldrb	r2, [r2, #0]
 8000b58:	701a      	strb	r2, [r3, #0]
    for (int i = 0; i < DMA_NUM_OF_TRANSACTIONS; i++)
 8000b5a:	687b      	ldr	r3, [r7, #4]
 8000b5c:	3301      	adds	r3, #1
 8000b5e:	607b      	str	r3, [r7, #4]
 8000b60:	687b      	ldr	r3, [r7, #4]
 8000b62:	2b2f      	cmp	r3, #47	; 0x2f
 8000b64:	ddf0      	ble.n	8000b48 <DMA1_Channel3_IRQHandler+0x18>
    *upd_flag_ptr = true;
 8000b66:	4b07      	ldr	r3, [pc, #28]	; (8000b84 <DMA1_Channel3_IRQHandler+0x54>)
 8000b68:	681b      	ldr	r3, [r3, #0]
 8000b6a:	2201      	movs	r2, #1
 8000b6c:	701a      	strb	r2, [r3, #0]
    
    //GPIOC->BSRR |= 0x4000;			//*********

}
 8000b6e:	bf00      	nop
 8000b70:	370c      	adds	r7, #12
 8000b72:	46bd      	mov	sp, r7
 8000b74:	bc80      	pop	{r7}
 8000b76:	4770      	bx	lr
 8000b78:	40020000 	.word	0x40020000
 8000b7c:	20000a5c 	.word	0x20000a5c
 8000b80:	20000a60 	.word	0x20000a60
 8000b84:	20000a58 	.word	0x20000a58

08000b88 <InitDma>:
void InitDma(uint8_t * buf, bool* upd_flag)
{
 8000b88:	b480      	push	{r7}
 8000b8a:	b083      	sub	sp, #12
 8000b8c:	af00      	add	r7, sp, #0
 8000b8e:	6078      	str	r0, [r7, #4]
 8000b90:	6039      	str	r1, [r7, #0]
    // Return data configuretion
    buf_ptr = buf;
 8000b92:	4a0e      	ldr	r2, [pc, #56]	; (8000bcc <InitDma+0x44>)
 8000b94:	687b      	ldr	r3, [r7, #4]
 8000b96:	6013      	str	r3, [r2, #0]
    upd_flag_ptr = upd_flag;
 8000b98:	4a0d      	ldr	r2, [pc, #52]	; (8000bd0 <InitDma+0x48>)
 8000b9a:	683b      	ldr	r3, [r7, #0]
 8000b9c:	6013      	str	r3, [r2, #0]
    
    // Channel configuration
    // Peripheral address
    DMA1_Channel3->CPAR = (uint32_t)&(PARALLEL_PORT->IDR);
 8000b9e:	4b0d      	ldr	r3, [pc, #52]	; (8000bd4 <InitDma+0x4c>)
 8000ba0:	4a0d      	ldr	r2, [pc, #52]	; (8000bd8 <InitDma+0x50>)
 8000ba2:	609a      	str	r2, [r3, #8]
    
    DMA1_Channel3->CCR  =   DMA_CCR_MEM2MEM    * 0 |   // memory to memory mode
 8000ba4:	4b0b      	ldr	r3, [pc, #44]	; (8000bd4 <InitDma+0x4c>)
 8000ba6:	22a2      	movs	r2, #162	; 0xa2
 8000ba8:	601a      	str	r2, [r3, #0]
                            DMA_CCR_CIRC       * 1 |   // circular mode
                            DMA_CCR_DIR        * 0 |   // data transfer direction 0: read from peripheral; 1: from memory
                            DMA_CCR_TCIE       * 1;    // transfer complete interrupt enable
    
    // Memory address
    DMA1_Channel3->CMAR = (uint32_t)tmp_buf;
 8000baa:	4b0a      	ldr	r3, [pc, #40]	; (8000bd4 <InitDma+0x4c>)
 8000bac:	4a0b      	ldr	r2, [pc, #44]	; (8000bdc <InitDma+0x54>)
 8000bae:	60da      	str	r2, [r3, #12]
    // Number of transactions
    DMA1_Channel3->CNDTR = DMA_NUM_OF_TRANSACTIONS;
 8000bb0:	4b08      	ldr	r3, [pc, #32]	; (8000bd4 <InitDma+0x4c>)
 8000bb2:	2230      	movs	r2, #48	; 0x30
 8000bb4:	605a      	str	r2, [r3, #4]
        
    // Channel enable
    DMA1_Channel3->CCR |= DMA_CCR_EN;
 8000bb6:	4b07      	ldr	r3, [pc, #28]	; (8000bd4 <InitDma+0x4c>)
 8000bb8:	681b      	ldr	r3, [r3, #0]
 8000bba:	4a06      	ldr	r2, [pc, #24]	; (8000bd4 <InitDma+0x4c>)
 8000bbc:	f043 0301 	orr.w	r3, r3, #1
 8000bc0:	6013      	str	r3, [r2, #0]
}
 8000bc2:	bf00      	nop
 8000bc4:	370c      	adds	r7, #12
 8000bc6:	46bd      	mov	sp, r7
 8000bc8:	bc80      	pop	{r7}
 8000bca:	4770      	bx	lr
 8000bcc:	20000a5c 	.word	0x20000a5c
 8000bd0:	20000a58 	.word	0x20000a58
 8000bd4:	40020030 	.word	0x40020030
 8000bd8:	40010808 	.word	0x40010808
 8000bdc:	20000a60 	.word	0x20000a60

08000be0 <SetGpioMode>:
 8000be0:	b480      	push	{r7}
 8000be2:	b085      	sub	sp, #20
 8000be4:	af00      	add	r7, sp, #0
 8000be6:	60f8      	str	r0, [r7, #12]
 8000be8:	60b9      	str	r1, [r7, #8]
 8000bea:	607a      	str	r2, [r7, #4]
 8000bec:	68bb      	ldr	r3, [r7, #8]
 8000bee:	2b07      	cmp	r3, #7
 8000bf0:	dd13      	ble.n	8000c1a <SetGpioMode+0x3a>
 8000bf2:	68fb      	ldr	r3, [r7, #12]
 8000bf4:	685b      	ldr	r3, [r3, #4]
 8000bf6:	68ba      	ldr	r2, [r7, #8]
 8000bf8:	3a08      	subs	r2, #8
 8000bfa:	0092      	lsls	r2, r2, #2
 8000bfc:	210f      	movs	r1, #15
 8000bfe:	fa01 f202 	lsl.w	r2, r1, r2
 8000c02:	43d2      	mvns	r2, r2
 8000c04:	4013      	ands	r3, r2
 8000c06:	68ba      	ldr	r2, [r7, #8]
 8000c08:	3a08      	subs	r2, #8
 8000c0a:	0092      	lsls	r2, r2, #2
 8000c0c:	6879      	ldr	r1, [r7, #4]
 8000c0e:	fa01 f202 	lsl.w	r2, r1, r2
 8000c12:	431a      	orrs	r2, r3
 8000c14:	68fb      	ldr	r3, [r7, #12]
 8000c16:	605a      	str	r2, [r3, #4]
 8000c18:	e010      	b.n	8000c3c <SetGpioMode+0x5c>
 8000c1a:	68fb      	ldr	r3, [r7, #12]
 8000c1c:	681b      	ldr	r3, [r3, #0]
 8000c1e:	68ba      	ldr	r2, [r7, #8]
 8000c20:	0092      	lsls	r2, r2, #2
 8000c22:	210f      	movs	r1, #15
 8000c24:	fa01 f202 	lsl.w	r2, r1, r2
 8000c28:	43d2      	mvns	r2, r2
 8000c2a:	4013      	ands	r3, r2
 8000c2c:	68ba      	ldr	r2, [r7, #8]
 8000c2e:	0092      	lsls	r2, r2, #2
 8000c30:	6879      	ldr	r1, [r7, #4]
 8000c32:	fa01 f202 	lsl.w	r2, r1, r2
 8000c36:	431a      	orrs	r2, r3
 8000c38:	68fb      	ldr	r3, [r7, #12]
 8000c3a:	601a      	str	r2, [r3, #0]
 8000c3c:	bf00      	nop
 8000c3e:	3714      	adds	r7, #20
 8000c40:	46bd      	mov	sp, r7
 8000c42:	bc80      	pop	{r7}
 8000c44:	4770      	bx	lr

08000c46 <SetPin>:
 8000c46:	b480      	push	{r7}
 8000c48:	b083      	sub	sp, #12
 8000c4a:	af00      	add	r7, sp, #0
 8000c4c:	6078      	str	r0, [r7, #4]
 8000c4e:	6039      	str	r1, [r7, #0]
 8000c50:	2201      	movs	r2, #1
 8000c52:	683b      	ldr	r3, [r7, #0]
 8000c54:	fa02 f303 	lsl.w	r3, r2, r3
 8000c58:	461a      	mov	r2, r3
 8000c5a:	687b      	ldr	r3, [r7, #4]
 8000c5c:	611a      	str	r2, [r3, #16]
 8000c5e:	bf00      	nop
 8000c60:	370c      	adds	r7, #12
 8000c62:	46bd      	mov	sp, r7
 8000c64:	bc80      	pop	{r7}
 8000c66:	4770      	bx	lr

08000c68 <ResetPin>:
 8000c68:	b480      	push	{r7}
 8000c6a:	b083      	sub	sp, #12
 8000c6c:	af00      	add	r7, sp, #0
 8000c6e:	6078      	str	r0, [r7, #4]
 8000c70:	6039      	str	r1, [r7, #0]
 8000c72:	683b      	ldr	r3, [r7, #0]
 8000c74:	3310      	adds	r3, #16
 8000c76:	2201      	movs	r2, #1
 8000c78:	fa02 f303 	lsl.w	r3, r2, r3
 8000c7c:	461a      	mov	r2, r3
 8000c7e:	687b      	ldr	r3, [r7, #4]
 8000c80:	611a      	str	r2, [r3, #16]
 8000c82:	bf00      	nop
 8000c84:	370c      	adds	r7, #12
 8000c86:	46bd      	mov	sp, r7
 8000c88:	bc80      	pop	{r7}
 8000c8a:	4770      	bx	lr

08000c8c <__NVIC_EnableIRQ>:
  \details Enables a device specific interrupt in the NVIC interrupt controller.
  \param [in]      IRQn  Device specific interrupt number.
  \note    IRQn must not be negative.
 */
__STATIC_INLINE void __NVIC_EnableIRQ(IRQn_Type IRQn)
{
 8000c8c:	b480      	push	{r7}
 8000c8e:	b083      	sub	sp, #12
 8000c90:	af00      	add	r7, sp, #0
 8000c92:	4603      	mov	r3, r0
 8000c94:	71fb      	strb	r3, [r7, #7]
  if ((int32_t)(IRQn) >= 0)
 8000c96:	f997 3007 	ldrsb.w	r3, [r7, #7]
 8000c9a:	2b00      	cmp	r3, #0
 8000c9c:	db0b      	blt.n	8000cb6 <__NVIC_EnableIRQ+0x2a>
  {
    NVIC->ISER[(((uint32_t)IRQn) >> 5UL)] = (uint32_t)(1UL << (((uint32_t)IRQn) & 0x1FUL));
 8000c9e:	79fb      	ldrb	r3, [r7, #7]
 8000ca0:	f003 021f 	and.w	r2, r3, #31
 8000ca4:	4906      	ldr	r1, [pc, #24]	; (8000cc0 <__NVIC_EnableIRQ+0x34>)
 8000ca6:	f997 3007 	ldrsb.w	r3, [r7, #7]
 8000caa:	095b      	lsrs	r3, r3, #5
 8000cac:	2001      	movs	r0, #1
 8000cae:	fa00 f202 	lsl.w	r2, r0, r2
 8000cb2:	f841 2023 	str.w	r2, [r1, r3, lsl #2]
  }
}
 8000cb6:	bf00      	nop
 8000cb8:	370c      	adds	r7, #12
 8000cba:	46bd      	mov	sp, r7
 8000cbc:	bc80      	pop	{r7}
 8000cbe:	4770      	bx	lr
 8000cc0:	e000e100 	.word	0xe000e100

08000cc4 <InitRcc>:
#include "gpio.h"
#include "debug_led.h"


void InitRcc(void)
{
 8000cc4:	b480      	push	{r7}
 8000cc6:	af00      	add	r7, sp, #0
    // port A
    RCC->APB2ENR |= RCC_APB2ENR_IOPAEN;
 8000cc8:	4b19      	ldr	r3, [pc, #100]	; (8000d30 <InitRcc+0x6c>)
 8000cca:	699b      	ldr	r3, [r3, #24]
 8000ccc:	4a18      	ldr	r2, [pc, #96]	; (8000d30 <InitRcc+0x6c>)
 8000cce:	f043 0304 	orr.w	r3, r3, #4
 8000cd2:	6193      	str	r3, [r2, #24]
    // port B
    RCC->APB2ENR |= RCC_APB2ENR_IOPBEN;
 8000cd4:	4b16      	ldr	r3, [pc, #88]	; (8000d30 <InitRcc+0x6c>)
 8000cd6:	699b      	ldr	r3, [r3, #24]
 8000cd8:	4a15      	ldr	r2, [pc, #84]	; (8000d30 <InitRcc+0x6c>)
 8000cda:	f043 0308 	orr.w	r3, r3, #8
 8000cde:	6193      	str	r3, [r2, #24]
    // port C
    RCC->APB2ENR |= RCC_APB2ENR_IOPCEN;
 8000ce0:	4b13      	ldr	r3, [pc, #76]	; (8000d30 <InitRcc+0x6c>)
 8000ce2:	699b      	ldr	r3, [r3, #24]
 8000ce4:	4a12      	ldr	r2, [pc, #72]	; (8000d30 <InitRcc+0x6c>)
 8000ce6:	f043 0310 	orr.w	r3, r3, #16
 8000cea:	6193      	str	r3, [r2, #24]
    // TIM2
    RCC->APB1ENR |= RCC_APB1ENR_TIM2EN;
 8000cec:	4b10      	ldr	r3, [pc, #64]	; (8000d30 <InitRcc+0x6c>)
 8000cee:	69db      	ldr	r3, [r3, #28]
 8000cf0:	4a0f      	ldr	r2, [pc, #60]	; (8000d30 <InitRcc+0x6c>)
 8000cf2:	f043 0301 	orr.w	r3, r3, #1
 8000cf6:	61d3      	str	r3, [r2, #28]
    // TIM3
    RCC->APB1ENR |= RCC_APB1ENR_TIM3EN;
 8000cf8:	4b0d      	ldr	r3, [pc, #52]	; (8000d30 <InitRcc+0x6c>)
 8000cfa:	69db      	ldr	r3, [r3, #28]
 8000cfc:	4a0c      	ldr	r2, [pc, #48]	; (8000d30 <InitRcc+0x6c>)
 8000cfe:	f043 0302 	orr.w	r3, r3, #2
 8000d02:	61d3      	str	r3, [r2, #28]
    // TIM4
    RCC->APB1ENR |= RCC_APB1ENR_TIM4EN;
 8000d04:	4b0a      	ldr	r3, [pc, #40]	; (8000d30 <InitRcc+0x6c>)
 8000d06:	69db      	ldr	r3, [r3, #28]
 8000d08:	4a09      	ldr	r2, [pc, #36]	; (8000d30 <InitRcc+0x6c>)
 8000d0a:	f043 0304 	orr.w	r3, r3, #4
 8000d0e:	61d3      	str	r3, [r2, #28]
    // AFIO
    RCC->APB2ENR |= RCC_APB2ENR_AFIOEN;
 8000d10:	4b07      	ldr	r3, [pc, #28]	; (8000d30 <InitRcc+0x6c>)
 8000d12:	699b      	ldr	r3, [r3, #24]
 8000d14:	4a06      	ldr	r2, [pc, #24]	; (8000d30 <InitRcc+0x6c>)
 8000d16:	f043 0301 	orr.w	r3, r3, #1
 8000d1a:	6193      	str	r3, [r2, #24]
    // DMA1
    RCC->AHBENR |= RCC_AHBENR_DMA1EN;
 8000d1c:	4b04      	ldr	r3, [pc, #16]	; (8000d30 <InitRcc+0x6c>)
 8000d1e:	695b      	ldr	r3, [r3, #20]
 8000d20:	4a03      	ldr	r2, [pc, #12]	; (8000d30 <InitRcc+0x6c>)
 8000d22:	f043 0301 	orr.w	r3, r3, #1
 8000d26:	6153      	str	r3, [r2, #20]
}
 8000d28:	bf00      	nop
 8000d2a:	46bd      	mov	sp, r7
 8000d2c:	bc80      	pop	{r7}
 8000d2e:	4770      	bx	lr
 8000d30:	40021000 	.word	0x40021000

08000d34 <InitInterrupt>:
void InitInterrupt(void)
{
 8000d34:	b580      	push	{r7, lr}
 8000d36:	af00      	add	r7, sp, #0
    // DMA1 channel 3
    NVIC_EnableIRQ(DMA1_Channel3_IRQn);
 8000d38:	200d      	movs	r0, #13
 8000d3a:	f7ff ffa7 	bl	8000c8c <__NVIC_EnableIRQ>
}
 8000d3e:	bf00      	nop
 8000d40:	bd80      	pop	{r7, pc}
	...

08000d44 <InitGpio>:
void InitGpio(void)
{
 8000d44:	b580      	push	{r7, lr}
 8000d46:	af00      	add	r7, sp, #0
    // Remap A15, B3, B4
    /*AFIO->MAPR |=   AFIO_MAPR_SWJ_CFG_2 * 0 |
                    AFIO_MAPR_SWJ_CFG_1 * 1 |
                    AFIO_MAPR_SWJ_CFG_0 * 0;*/
    // Remap TIM2
    AFIO->MAPR |= AFIO_MAPR_TIM2_REMAP_1;   // remap C3 to PB10; C4 to PB11
 8000d48:	4b1b      	ldr	r3, [pc, #108]	; (8000db8 <InitGpio+0x74>)
 8000d4a:	685b      	ldr	r3, [r3, #4]
 8000d4c:	4a1a      	ldr	r2, [pc, #104]	; (8000db8 <InitGpio+0x74>)
 8000d4e:	f443 7300 	orr.w	r3, r3, #512	; 0x200
 8000d52:	6053      	str	r3, [r2, #4]
    
    // Pulses power for optical sensors and registers control
    SetGpioMode(UNLOCK_PIN, PIN_MODE_10MHZ_AFPP);
 8000d54:	2209      	movs	r2, #9
 8000d56:	210a      	movs	r1, #10
 8000d58:	4818      	ldr	r0, [pc, #96]	; (8000dbc <InitGpio+0x78>)
 8000d5a:	f7ff ff41 	bl	8000be0 <SetGpioMode>
    SetGpioMode(LOCK_PIN, PIN_MODE_10MHZ_AFPP);
 8000d5e:	2209      	movs	r2, #9
 8000d60:	210b      	movs	r1, #11
 8000d62:	4816      	ldr	r0, [pc, #88]	; (8000dbc <InitGpio+0x78>)
 8000d64:	f7ff ff3c 	bl	8000be0 <SetGpioMode>
    // Pulse for multiplexer
    SetGpioMode(MUX_PIN, PIN_MODE_10MHZ_AFPP);
 8000d68:	2209      	movs	r2, #9
 8000d6a:	2101      	movs	r1, #1
 8000d6c:	4813      	ldr	r0, [pc, #76]	; (8000dbc <InitGpio+0x78>)
 8000d6e:	f7ff ff37 	bl	8000be0 <SetGpioMode>
    // Reset input and output counters
    SetGpioMode(RESET_PIN, PIN_MODE_2MHZ_OPP);
 8000d72:	2202      	movs	r2, #2
 8000d74:	2100      	movs	r1, #0
 8000d76:	4811      	ldr	r0, [pc, #68]	; (8000dbc <InitGpio+0x78>)
 8000d78:	f7ff ff32 	bl	8000be0 <SetGpioMode>

    SetGpioMode(GPIOA, 0, PIN_MODE_IPULL);
 8000d7c:	2208      	movs	r2, #8
 8000d7e:	2100      	movs	r1, #0
 8000d80:	480f      	ldr	r0, [pc, #60]	; (8000dc0 <InitGpio+0x7c>)
 8000d82:	f7ff ff2d 	bl	8000be0 <SetGpioMode>
    SetGpioMode(GPIOA, 1, PIN_MODE_IPULL);
 8000d86:	2208      	movs	r2, #8
 8000d88:	2101      	movs	r1, #1
 8000d8a:	480d      	ldr	r0, [pc, #52]	; (8000dc0 <InitGpio+0x7c>)
 8000d8c:	f7ff ff28 	bl	8000be0 <SetGpioMode>
    SetPin(GPIOA, 0);
 8000d90:	2100      	movs	r1, #0
 8000d92:	480b      	ldr	r0, [pc, #44]	; (8000dc0 <InitGpio+0x7c>)
 8000d94:	f7ff ff57 	bl	8000c46 <SetPin>
    SetPin(GPIOA, 1);
 8000d98:	2101      	movs	r1, #1
 8000d9a:	4809      	ldr	r0, [pc, #36]	; (8000dc0 <InitGpio+0x7c>)
 8000d9c:	f7ff ff53 	bl	8000c46 <SetPin>


    // Debug LED
    SetGpioMode(LED_PIN, PIN_MODE_10MHZ_OPP);
 8000da0:	2201      	movs	r2, #1
 8000da2:	210d      	movs	r1, #13
 8000da4:	4807      	ldr	r0, [pc, #28]	; (8000dc4 <InitGpio+0x80>)
 8000da6:	f7ff ff1b 	bl	8000be0 <SetGpioMode>
    SetGpioMode(GPIOC, 14, PIN_MODE_10MHZ_OPP);		// for test
 8000daa:	2201      	movs	r2, #1
 8000dac:	210e      	movs	r1, #14
 8000dae:	4805      	ldr	r0, [pc, #20]	; (8000dc4 <InitGpio+0x80>)
 8000db0:	f7ff ff16 	bl	8000be0 <SetGpioMode>
}
 8000db4:	bf00      	nop
 8000db6:	bd80      	pop	{r7, pc}
 8000db8:	40010000 	.word	0x40010000
 8000dbc:	40010c00 	.word	0x40010c00
 8000dc0:	40010800 	.word	0x40010800
 8000dc4:	40011000 	.word	0x40011000

08000dc8 <main>:
uint32_t Tzz = 0;
uint16_t SPEEDTABLE[720] = { };
uint8_t on[88] = { };
uint8_t KEY = 0;

int main(void) {
 8000dc8:	b5b0      	push	{r4, r5, r7, lr}
 8000dca:	b082      	sub	sp, #8
 8000dcc:	af00      	add	r7, sp, #0

	HAL_Init();
 8000dce:	f000 fd49 	bl	8001864 <HAL_Init>
	SystemClock_Config();
 8000dd2:	f000 f96d 	bl	80010b0 <SystemClock_Config>
	MX_USB_DEVICE_Init();
 8000dd6:	f006 faf7 	bl	80073c8 <MX_USB_DEVICE_Init>

	InitRcc();
 8000dda:	f7ff ff73 	bl	8000cc4 <InitRcc>
	InitGpio();
 8000dde:	f7ff ffb1 	bl	8000d44 <InitGpio>
	InitSysTick();
 8000de2:	f000 fa37 	bl	8001254 <InitSysTick>

	TurnLedOff();
 8000de6:	f7ff fe99 	bl	8000b1c <TurnLedOff>
	SetPin(RESET_PIN);
 8000dea:	2100      	movs	r1, #0
 8000dec:	48a6      	ldr	r0, [pc, #664]	; (8001088 <main+0x2c0>)
 8000dee:	f7ff ff2a 	bl	8000c46 <SetPin>
	delay_ms(1);
 8000df2:	2001      	movs	r0, #1
 8000df4:	f000 faaa 	bl	800134c <delay_ms>
	ResetPin(RESET_PIN);
 8000df8:	2100      	movs	r1, #0
 8000dfa:	48a3      	ldr	r0, [pc, #652]	; (8001088 <main+0x2c0>)
 8000dfc:	f7ff ff34 	bl	8000c68 <ResetPin>
	delay_ms(1);
 8000e00:	2001      	movs	r0, #1
 8000e02:	f000 faa3 	bl	800134c <delay_ms>

	InitInterrupt();
 8000e06:	f7ff ff95 	bl	8000d34 <InitInterrupt>
	InitDma((uint8_t*) dma_buf, &data_updated);
 8000e0a:	49a0      	ldr	r1, [pc, #640]	; (800108c <main+0x2c4>)
 8000e0c:	48a0      	ldr	r0, [pc, #640]	; (8001090 <main+0x2c8>)
 8000e0e:	f7ff febb 	bl	8000b88 <InitDma>
	InitTim3();
 8000e12:	f000 fa69 	bl	80012e8 <InitTim3>
	InitTim2();
 8000e16:	f000 fa2f 	bl	8001278 <InitTim2>

	TurnLedOn();
 8000e1a:	f7ff fe75 	bl	8000b08 <TurnLedOn>

	for (uint16_t ti = 2; ti < 720; ti++) {
 8000e1e:	2302      	movs	r3, #2
 8000e20:	80fb      	strh	r3, [r7, #6]
 8000e22:	e04b      	b.n	8000ebc <main+0xf4>

		// Curve: ()
		float m = (127.3458197598687 * pow(ti, 0)) - (0.34605667148848934 * pow(ti, 1))
 8000e24:	88fb      	ldrh	r3, [r7, #6]
 8000e26:	4618      	mov	r0, r3
 8000e28:	f7ff fad4 	bl	80003d4 <__aeabi_ui2d>
 8000e2c:	f04f 0000 	mov.w	r0, #0
 8000e30:	4998      	ldr	r1, [pc, #608]	; (8001094 <main+0x2cc>)
 8000e32:	a38f      	add	r3, pc, #572	; (adr r3, 8001070 <main+0x2a8>)
 8000e34:	e9d3 2300 	ldrd	r2, r3, [r3]
 8000e38:	f7ff fb46 	bl	80004c8 <__aeabi_dmul>
 8000e3c:	4602      	mov	r2, r0
 8000e3e:	460b      	mov	r3, r1
 8000e40:	4614      	mov	r4, r2
 8000e42:	461d      	mov	r5, r3
 8000e44:	88fb      	ldrh	r3, [r7, #6]
 8000e46:	4618      	mov	r0, r3
 8000e48:	f7ff fac4 	bl	80003d4 <__aeabi_ui2d>
 8000e4c:	a38a      	add	r3, pc, #552	; (adr r3, 8001078 <main+0x2b0>)
 8000e4e:	e9d3 2300 	ldrd	r2, r3, [r3]
 8000e52:	f7ff fb39 	bl	80004c8 <__aeabi_dmul>
 8000e56:	4602      	mov	r2, r0
 8000e58:	460b      	mov	r3, r1
 8000e5a:	4620      	mov	r0, r4
 8000e5c:	4629      	mov	r1, r5
 8000e5e:	f7ff f97b 	bl	8000158 <__aeabi_dsub>
 8000e62:	4602      	mov	r2, r0
 8000e64:	460b      	mov	r3, r1
 8000e66:	4614      	mov	r4, r2
 8000e68:	461d      	mov	r5, r3
				+ (2.3691161981451332E-4 * pow(ti, 2));
 8000e6a:	88fb      	ldrh	r3, [r7, #6]
 8000e6c:	4618      	mov	r0, r3
 8000e6e:	f7ff fab1 	bl	80003d4 <__aeabi_ui2d>
 8000e72:	f04f 0200 	mov.w	r2, #0
 8000e76:	f04f 4380 	mov.w	r3, #1073741824	; 0x40000000
 8000e7a:	f006 fe97 	bl	8007bac <pow>
 8000e7e:	a380      	add	r3, pc, #512	; (adr r3, 8001080 <main+0x2b8>)
 8000e80:	e9d3 2300 	ldrd	r2, r3, [r3]
 8000e84:	f7ff fb20 	bl	80004c8 <__aeabi_dmul>
 8000e88:	4602      	mov	r2, r0
 8000e8a:	460b      	mov	r3, r1
 8000e8c:	4620      	mov	r0, r4
 8000e8e:	4629      	mov	r1, r5
 8000e90:	f7ff f964 	bl	800015c <__adddf3>
 8000e94:	4602      	mov	r2, r0
 8000e96:	460b      	mov	r3, r1
		float m = (127.3458197598687 * pow(ti, 0)) - (0.34605667148848934 * pow(ti, 1))
 8000e98:	4610      	mov	r0, r2
 8000e9a:	4619      	mov	r1, r3
 8000e9c:	f7ff fdc4 	bl	8000a28 <__aeabi_d2f>
 8000ea0:	4603      	mov	r3, r0
 8000ea2:	603b      	str	r3, [r7, #0]
		SPEEDTABLE[ti] = m;
 8000ea4:	88fc      	ldrh	r4, [r7, #6]
 8000ea6:	6838      	ldr	r0, [r7, #0]
 8000ea8:	f7ff fe0e 	bl	8000ac8 <__aeabi_f2uiz>
 8000eac:	4603      	mov	r3, r0
 8000eae:	b29a      	uxth	r2, r3
 8000eb0:	4b79      	ldr	r3, [pc, #484]	; (8001098 <main+0x2d0>)
 8000eb2:	f823 2014 	strh.w	r2, [r3, r4, lsl #1]
	for (uint16_t ti = 2; ti < 720; ti++) {
 8000eb6:	88fb      	ldrh	r3, [r7, #6]
 8000eb8:	3301      	adds	r3, #1
 8000eba:	80fb      	strh	r3, [r7, #6]
 8000ebc:	88fb      	ldrh	r3, [r7, #6]
 8000ebe:	f5b3 7f34 	cmp.w	r3, #720	; 0x2d0
 8000ec2:	d3af      	bcc.n	8000e24 <main+0x5c>
	}

	SPEEDTABLE[1] = 127;
 8000ec4:	4b74      	ldr	r3, [pc, #464]	; (8001098 <main+0x2d0>)
 8000ec6:	227f      	movs	r2, #127	; 0x7f
 8000ec8:	805a      	strh	r2, [r3, #2]

	TurnLedOff();
 8000eca:	f7ff fe27 	bl	8000b1c <TurnLedOff>
//			GPIOC->BSRR |= 0x40000000;
//		} else {
//			GPIOC->BSRR |= 0x4000;
//		}

		for (KEY = 0; KEY < 48; KEY++) {
 8000ece:	4b73      	ldr	r3, [pc, #460]	; (800109c <main+0x2d4>)
 8000ed0:	2200      	movs	r2, #0
 8000ed2:	701a      	strb	r2, [r3, #0]
 8000ed4:	e0c5      	b.n	8001062 <main+0x29a>
//			for (int i = 0; i < 8; i += 2) {
				if ((dma_buf[KEY] & (1 << 0)) == 0 && (dma_buf[KEY] & (1 << 1)) != 0 && (sys_tick - Tyy[KEY]) > 800
 8000ed6:	4b71      	ldr	r3, [pc, #452]	; (800109c <main+0x2d4>)
 8000ed8:	781b      	ldrb	r3, [r3, #0]
 8000eda:	461a      	mov	r2, r3
 8000edc:	4b6c      	ldr	r3, [pc, #432]	; (8001090 <main+0x2c8>)
 8000ede:	5c9b      	ldrb	r3, [r3, r2]
 8000ee0:	b2db      	uxtb	r3, r3
 8000ee2:	f003 0301 	and.w	r3, r3, #1
 8000ee6:	2b00      	cmp	r3, #0
 8000ee8:	d12a      	bne.n	8000f40 <main+0x178>
 8000eea:	4b6c      	ldr	r3, [pc, #432]	; (800109c <main+0x2d4>)
 8000eec:	781b      	ldrb	r3, [r3, #0]
 8000eee:	461a      	mov	r2, r3
 8000ef0:	4b67      	ldr	r3, [pc, #412]	; (8001090 <main+0x2c8>)
 8000ef2:	5c9b      	ldrb	r3, [r3, r2]
 8000ef4:	b2db      	uxtb	r3, r3
 8000ef6:	f003 0302 	and.w	r3, r3, #2
 8000efa:	2b00      	cmp	r3, #0
 8000efc:	d020      	beq.n	8000f40 <main+0x178>
 8000efe:	4b68      	ldr	r3, [pc, #416]	; (80010a0 <main+0x2d8>)
 8000f00:	681a      	ldr	r2, [r3, #0]
 8000f02:	4b66      	ldr	r3, [pc, #408]	; (800109c <main+0x2d4>)
 8000f04:	781b      	ldrb	r3, [r3, #0]
 8000f06:	4619      	mov	r1, r3
 8000f08:	4b66      	ldr	r3, [pc, #408]	; (80010a4 <main+0x2dc>)
 8000f0a:	f853 3021 	ldr.w	r3, [r3, r1, lsl #2]
 8000f0e:	1ad3      	subs	r3, r2, r3
 8000f10:	f5b3 7f48 	cmp.w	r3, #800	; 0x320
 8000f14:	d914      	bls.n	8000f40 <main+0x178>
						&& on[KEY] == 0) {
 8000f16:	4b61      	ldr	r3, [pc, #388]	; (800109c <main+0x2d4>)
 8000f18:	781b      	ldrb	r3, [r3, #0]
 8000f1a:	461a      	mov	r2, r3
 8000f1c:	4b62      	ldr	r3, [pc, #392]	; (80010a8 <main+0x2e0>)
 8000f1e:	5c9b      	ldrb	r3, [r3, r2]
 8000f20:	2b00      	cmp	r3, #0
 8000f22:	d10d      	bne.n	8000f40 <main+0x178>
					Txx[KEY] = sys_tick;
 8000f24:	4b5d      	ldr	r3, [pc, #372]	; (800109c <main+0x2d4>)
 8000f26:	781b      	ldrb	r3, [r3, #0]
 8000f28:	4619      	mov	r1, r3
 8000f2a:	4b5d      	ldr	r3, [pc, #372]	; (80010a0 <main+0x2d8>)
 8000f2c:	681b      	ldr	r3, [r3, #0]
 8000f2e:	4a5f      	ldr	r2, [pc, #380]	; (80010ac <main+0x2e4>)
 8000f30:	f842 3021 	str.w	r3, [r2, r1, lsl #2]
					on[KEY] = 1;
 8000f34:	4b59      	ldr	r3, [pc, #356]	; (800109c <main+0x2d4>)
 8000f36:	781b      	ldrb	r3, [r3, #0]
 8000f38:	461a      	mov	r2, r3
 8000f3a:	4b5b      	ldr	r3, [pc, #364]	; (80010a8 <main+0x2e0>)
 8000f3c:	2101      	movs	r1, #1
 8000f3e:	5499      	strb	r1, [r3, r2]
				}

				if ((dma_buf[KEY] & (1 << 0)) == 0 && (dma_buf[KEY] & (1 << 1)) == 0 && (sys_tick - Txx[KEY]) > 1
 8000f40:	4b56      	ldr	r3, [pc, #344]	; (800109c <main+0x2d4>)
 8000f42:	781b      	ldrb	r3, [r3, #0]
 8000f44:	461a      	mov	r2, r3
 8000f46:	4b52      	ldr	r3, [pc, #328]	; (8001090 <main+0x2c8>)
 8000f48:	5c9b      	ldrb	r3, [r3, r2]
 8000f4a:	b2db      	uxtb	r3, r3
 8000f4c:	f003 0301 	and.w	r3, r3, #1
 8000f50:	2b00      	cmp	r3, #0
 8000f52:	d15a      	bne.n	800100a <main+0x242>
 8000f54:	4b51      	ldr	r3, [pc, #324]	; (800109c <main+0x2d4>)
 8000f56:	781b      	ldrb	r3, [r3, #0]
 8000f58:	461a      	mov	r2, r3
 8000f5a:	4b4d      	ldr	r3, [pc, #308]	; (8001090 <main+0x2c8>)
 8000f5c:	5c9b      	ldrb	r3, [r3, r2]
 8000f5e:	b2db      	uxtb	r3, r3
 8000f60:	f003 0302 	and.w	r3, r3, #2
 8000f64:	2b00      	cmp	r3, #0
 8000f66:	d150      	bne.n	800100a <main+0x242>
 8000f68:	4b4d      	ldr	r3, [pc, #308]	; (80010a0 <main+0x2d8>)
 8000f6a:	681a      	ldr	r2, [r3, #0]
 8000f6c:	4b4b      	ldr	r3, [pc, #300]	; (800109c <main+0x2d4>)
 8000f6e:	781b      	ldrb	r3, [r3, #0]
 8000f70:	4619      	mov	r1, r3
 8000f72:	4b4e      	ldr	r3, [pc, #312]	; (80010ac <main+0x2e4>)
 8000f74:	f853 3021 	ldr.w	r3, [r3, r1, lsl #2]
 8000f78:	1ad3      	subs	r3, r2, r3
 8000f7a:	2b01      	cmp	r3, #1
 8000f7c:	d945      	bls.n	800100a <main+0x242>
						&& (sys_tick - Txx[KEY]) < 720 && on[KEY] == 1) {
 8000f7e:	4b48      	ldr	r3, [pc, #288]	; (80010a0 <main+0x2d8>)
 8000f80:	681a      	ldr	r2, [r3, #0]
 8000f82:	4b46      	ldr	r3, [pc, #280]	; (800109c <main+0x2d4>)
 8000f84:	781b      	ldrb	r3, [r3, #0]
 8000f86:	4619      	mov	r1, r3
 8000f88:	4b48      	ldr	r3, [pc, #288]	; (80010ac <main+0x2e4>)
 8000f8a:	f853 3021 	ldr.w	r3, [r3, r1, lsl #2]
 8000f8e:	1ad3      	subs	r3, r2, r3
 8000f90:	f5b3 7f34 	cmp.w	r3, #720	; 0x2d0
 8000f94:	d239      	bcs.n	800100a <main+0x242>
 8000f96:	4b41      	ldr	r3, [pc, #260]	; (800109c <main+0x2d4>)
 8000f98:	781b      	ldrb	r3, [r3, #0]
 8000f9a:	461a      	mov	r2, r3
 8000f9c:	4b42      	ldr	r3, [pc, #264]	; (80010a8 <main+0x2e0>)
 8000f9e:	5c9b      	ldrb	r3, [r3, r2]
 8000fa0:	2b01      	cmp	r3, #1
 8000fa2:	d132      	bne.n	800100a <main+0x242>
					Tyy[KEY] = sys_tick;
 8000fa4:	4b3d      	ldr	r3, [pc, #244]	; (800109c <main+0x2d4>)
 8000fa6:	781b      	ldrb	r3, [r3, #0]
 8000fa8:	4619      	mov	r1, r3
 8000faa:	4b3d      	ldr	r3, [pc, #244]	; (80010a0 <main+0x2d8>)
 8000fac:	681b      	ldr	r3, [r3, #0]
 8000fae:	4a3d      	ldr	r2, [pc, #244]	; (80010a4 <main+0x2dc>)
 8000fb0:	f842 3021 	str.w	r3, [r2, r1, lsl #2]
					on[KEY] = 0;
 8000fb4:	4b39      	ldr	r3, [pc, #228]	; (800109c <main+0x2d4>)
 8000fb6:	781b      	ldrb	r3, [r3, #0]
 8000fb8:	461a      	mov	r2, r3
 8000fba:	4b3b      	ldr	r3, [pc, #236]	; (80010a8 <main+0x2e0>)
 8000fbc:	2100      	movs	r1, #0
 8000fbe:	5499      	strb	r1, [r3, r2]
					USBD_AddNoteOn(0, 1, KEY + 30, SPEEDTABLE[Tyy[KEY] - Txx[KEY]]);
 8000fc0:	4b36      	ldr	r3, [pc, #216]	; (800109c <main+0x2d4>)
 8000fc2:	781b      	ldrb	r3, [r3, #0]
 8000fc4:	331e      	adds	r3, #30
 8000fc6:	b2d9      	uxtb	r1, r3
 8000fc8:	4b34      	ldr	r3, [pc, #208]	; (800109c <main+0x2d4>)
 8000fca:	781b      	ldrb	r3, [r3, #0]
 8000fcc:	461a      	mov	r2, r3
 8000fce:	4b35      	ldr	r3, [pc, #212]	; (80010a4 <main+0x2dc>)
 8000fd0:	f853 2022 	ldr.w	r2, [r3, r2, lsl #2]
 8000fd4:	4b31      	ldr	r3, [pc, #196]	; (800109c <main+0x2d4>)
 8000fd6:	781b      	ldrb	r3, [r3, #0]
 8000fd8:	4618      	mov	r0, r3
 8000fda:	4b34      	ldr	r3, [pc, #208]	; (80010ac <main+0x2e4>)
 8000fdc:	f853 3020 	ldr.w	r3, [r3, r0, lsl #2]
 8000fe0:	1ad3      	subs	r3, r2, r3
 8000fe2:	4a2d      	ldr	r2, [pc, #180]	; (8001098 <main+0x2d0>)
 8000fe4:	f832 3013 	ldrh.w	r3, [r2, r3, lsl #1]
 8000fe8:	b2db      	uxtb	r3, r3
 8000fea:	460a      	mov	r2, r1
 8000fec:	2101      	movs	r1, #1
 8000fee:	2000      	movs	r0, #0
 8000ff0:	f000 fb00 	bl	80015f4 <USBD_AddNoteOn>
					USBD_AddNoteOff(0, 1, KEY + 30);
 8000ff4:	4b29      	ldr	r3, [pc, #164]	; (800109c <main+0x2d4>)
 8000ff6:	781b      	ldrb	r3, [r3, #0]
 8000ff8:	331e      	adds	r3, #30
 8000ffa:	b2db      	uxtb	r3, r3
 8000ffc:	461a      	mov	r2, r3
 8000ffe:	2101      	movs	r1, #1
 8001000:	2000      	movs	r0, #0
 8001002:	f000 fb26 	bl	8001652 <USBD_AddNoteOff>
					USBD_SendMidiMessages();
 8001006:	f000 fb4b 	bl	80016a0 <USBD_SendMidiMessages>
				}

				if ((dma_buf[KEY] & (1 << 0)) != 0 && (dma_buf[KEY] & (1 << 1)) != 0 && (sys_tick - Tyy[KEY]) > 800) {
 800100a:	4b24      	ldr	r3, [pc, #144]	; (800109c <main+0x2d4>)
 800100c:	781b      	ldrb	r3, [r3, #0]
 800100e:	461a      	mov	r2, r3
 8001010:	4b1f      	ldr	r3, [pc, #124]	; (8001090 <main+0x2c8>)
 8001012:	5c9b      	ldrb	r3, [r3, r2]
 8001014:	b2db      	uxtb	r3, r3
 8001016:	f003 0301 	and.w	r3, r3, #1
 800101a:	2b00      	cmp	r3, #0
 800101c:	d01b      	beq.n	8001056 <main+0x28e>
 800101e:	4b1f      	ldr	r3, [pc, #124]	; (800109c <main+0x2d4>)
 8001020:	781b      	ldrb	r3, [r3, #0]
 8001022:	461a      	mov	r2, r3
 8001024:	4b1a      	ldr	r3, [pc, #104]	; (8001090 <main+0x2c8>)
 8001026:	5c9b      	ldrb	r3, [r3, r2]
 8001028:	b2db      	uxtb	r3, r3
 800102a:	f003 0302 	and.w	r3, r3, #2
 800102e:	2b00      	cmp	r3, #0
 8001030:	d011      	beq.n	8001056 <main+0x28e>
 8001032:	4b1b      	ldr	r3, [pc, #108]	; (80010a0 <main+0x2d8>)
 8001034:	681a      	ldr	r2, [r3, #0]
 8001036:	4b19      	ldr	r3, [pc, #100]	; (800109c <main+0x2d4>)
 8001038:	781b      	ldrb	r3, [r3, #0]
 800103a:	4619      	mov	r1, r3
 800103c:	4b19      	ldr	r3, [pc, #100]	; (80010a4 <main+0x2dc>)
 800103e:	f853 3021 	ldr.w	r3, [r3, r1, lsl #2]
 8001042:	1ad3      	subs	r3, r2, r3
 8001044:	f5b3 7f48 	cmp.w	r3, #800	; 0x320
 8001048:	d905      	bls.n	8001056 <main+0x28e>
					on[KEY] = 0;
 800104a:	4b14      	ldr	r3, [pc, #80]	; (800109c <main+0x2d4>)
 800104c:	781b      	ldrb	r3, [r3, #0]
 800104e:	461a      	mov	r2, r3
 8001050:	4b15      	ldr	r3, [pc, #84]	; (80010a8 <main+0x2e0>)
 8001052:	2100      	movs	r1, #0
 8001054:	5499      	strb	r1, [r3, r2]
		for (KEY = 0; KEY < 48; KEY++) {
 8001056:	4b11      	ldr	r3, [pc, #68]	; (800109c <main+0x2d4>)
 8001058:	781b      	ldrb	r3, [r3, #0]
 800105a:	3301      	adds	r3, #1
 800105c:	b2da      	uxtb	r2, r3
 800105e:	4b0f      	ldr	r3, [pc, #60]	; (800109c <main+0x2d4>)
 8001060:	701a      	strb	r2, [r3, #0]
 8001062:	4b0e      	ldr	r3, [pc, #56]	; (800109c <main+0x2d4>)
 8001064:	781b      	ldrb	r3, [r3, #0]
 8001066:	2b2f      	cmp	r3, #47	; 0x2f
 8001068:	f67f af35 	bls.w	8000ed6 <main+0x10e>
 800106c:	e72f      	b.n	8000ece <main+0x106>
 800106e:	bf00      	nop
 8001070:	e933bc96 	.word	0xe933bc96
 8001074:	405fd621 	.word	0x405fd621
 8001078:	e1a6c36b 	.word	0xe1a6c36b
 800107c:	3fd625ca 	.word	0x3fd625ca
 8001080:	517b8c40 	.word	0x517b8c40
 8001084:	3f2f0d6f 	.word	0x3f2f0d6f
 8001088:	40010c00 	.word	0x40010c00
 800108c:	20000ac0 	.word	0x20000ac0
 8001090:	20000a90 	.word	0x20000a90
 8001094:	3ff00000 	.word	0x3ff00000
 8001098:	20000444 	.word	0x20000444
 800109c:	20000a3c 	.word	0x20000a3c
 80010a0:	20000a40 	.word	0x20000a40
 80010a4:	200002e4 	.word	0x200002e4
 80010a8:	200009e4 	.word	0x200009e4
 80010ac:	20000184 	.word	0x20000184

080010b0 <SystemClock_Config>:

	}

}

void SystemClock_Config(void) {
 80010b0:	b580      	push	{r7, lr}
 80010b2:	b094      	sub	sp, #80	; 0x50
 80010b4:	af00      	add	r7, sp, #0
	RCC_OscInitTypeDef RCC_OscInitStruct = { 0 };
 80010b6:	f107 0328 	add.w	r3, r7, #40	; 0x28
 80010ba:	2228      	movs	r2, #40	; 0x28
 80010bc:	2100      	movs	r1, #0
 80010be:	4618      	mov	r0, r3
 80010c0:	f006 fd6c 	bl	8007b9c <memset>
	RCC_ClkInitTypeDef RCC_ClkInitStruct = { 0 };
 80010c4:	f107 0314 	add.w	r3, r7, #20
 80010c8:	2200      	movs	r2, #0
 80010ca:	601a      	str	r2, [r3, #0]
 80010cc:	605a      	str	r2, [r3, #4]
 80010ce:	609a      	str	r2, [r3, #8]
 80010d0:	60da      	str	r2, [r3, #12]
 80010d2:	611a      	str	r2, [r3, #16]
	RCC_PeriphCLKInitTypeDef PeriphClkInit = { 0 };
 80010d4:	1d3b      	adds	r3, r7, #4
 80010d6:	2200      	movs	r2, #0
 80010d8:	601a      	str	r2, [r3, #0]
 80010da:	605a      	str	r2, [r3, #4]
 80010dc:	609a      	str	r2, [r3, #8]
 80010de:	60da      	str	r2, [r3, #12]

	RCC_OscInitStruct.OscillatorType = RCC_OSCILLATORTYPE_HSE;
 80010e0:	2301      	movs	r3, #1
 80010e2:	62bb      	str	r3, [r7, #40]	; 0x28
	RCC_OscInitStruct.HSEState = RCC_HSE_ON;
 80010e4:	f44f 3380 	mov.w	r3, #65536	; 0x10000
 80010e8:	62fb      	str	r3, [r7, #44]	; 0x2c
	RCC_OscInitStruct.HSEPredivValue = RCC_HSE_PREDIV_DIV1;
 80010ea:	2300      	movs	r3, #0
 80010ec:	633b      	str	r3, [r7, #48]	; 0x30
	RCC_OscInitStruct.HSIState = RCC_HSI_ON;
 80010ee:	2301      	movs	r3, #1
 80010f0:	63bb      	str	r3, [r7, #56]	; 0x38
	RCC_OscInitStruct.PLL.PLLState = RCC_PLL_ON;
 80010f2:	2302      	movs	r3, #2
 80010f4:	647b      	str	r3, [r7, #68]	; 0x44
	RCC_OscInitStruct.PLL.PLLSource = RCC_PLLSOURCE_HSE;
 80010f6:	f44f 3380 	mov.w	r3, #65536	; 0x10000
 80010fa:	64bb      	str	r3, [r7, #72]	; 0x48
	RCC_OscInitStruct.PLL.PLLMUL = RCC_PLL_MUL9;
 80010fc:	f44f 13e0 	mov.w	r3, #1835008	; 0x1c0000
 8001100:	64fb      	str	r3, [r7, #76]	; 0x4c
	if (HAL_RCC_OscConfig(&RCC_OscInitStruct) != HAL_OK) {
 8001102:	f107 0328 	add.w	r3, r7, #40	; 0x28
 8001106:	4618      	mov	r0, r3
 8001108:	f002 f9b8 	bl	800347c <HAL_RCC_OscConfig>
 800110c:	4603      	mov	r3, r0
 800110e:	2b00      	cmp	r3, #0
 8001110:	d001      	beq.n	8001116 <SystemClock_Config+0x66>
		Error_Handler();
 8001112:	f000 f827 	bl	8001164 <Error_Handler>
	}

	RCC_ClkInitStruct.ClockType = RCC_CLOCKTYPE_HCLK | RCC_CLOCKTYPE_SYSCLK | RCC_CLOCKTYPE_PCLK1 | RCC_CLOCKTYPE_PCLK2;
 8001116:	230f      	movs	r3, #15
 8001118:	617b      	str	r3, [r7, #20]
	RCC_ClkInitStruct.SYSCLKSource = RCC_SYSCLKSOURCE_PLLCLK;
 800111a:	2302      	movs	r3, #2
 800111c:	61bb      	str	r3, [r7, #24]
	RCC_ClkInitStruct.AHBCLKDivider = RCC_SYSCLK_DIV1;
 800111e:	2300      	movs	r3, #0
 8001120:	61fb      	str	r3, [r7, #28]
	RCC_ClkInitStruct.APB1CLKDivider = RCC_HCLK_DIV2;
 8001122:	f44f 6380 	mov.w	r3, #1024	; 0x400
 8001126:	623b      	str	r3, [r7, #32]
	RCC_ClkInitStruct.APB2CLKDivider = RCC_HCLK_DIV1;
 8001128:	2300      	movs	r3, #0
 800112a:	627b      	str	r3, [r7, #36]	; 0x24

	if (HAL_RCC_ClockConfig(&RCC_ClkInitStruct, FLASH_LATENCY_2) != HAL_OK) {
 800112c:	f107 0314 	add.w	r3, r7, #20
 8001130:	2102      	movs	r1, #2
 8001132:	4618      	mov	r0, r3
 8001134:	f002 fc22 	bl	800397c <HAL_RCC_ClockConfig>
 8001138:	4603      	mov	r3, r0
 800113a:	2b00      	cmp	r3, #0
 800113c:	d001      	beq.n	8001142 <SystemClock_Config+0x92>
		Error_Handler();
 800113e:	f000 f811 	bl	8001164 <Error_Handler>
	}
	PeriphClkInit.PeriphClockSelection = RCC_PERIPHCLK_USB;
 8001142:	2310      	movs	r3, #16
 8001144:	607b      	str	r3, [r7, #4]
	PeriphClkInit.UsbClockSelection = RCC_USBCLKSOURCE_PLL_DIV1_5;
 8001146:	2300      	movs	r3, #0
 8001148:	613b      	str	r3, [r7, #16]
	if (HAL_RCCEx_PeriphCLKConfig(&PeriphClkInit) != HAL_OK) {
 800114a:	1d3b      	adds	r3, r7, #4
 800114c:	4618      	mov	r0, r3
 800114e:	f002 fd7d 	bl	8003c4c <HAL_RCCEx_PeriphCLKConfig>
 8001152:	4603      	mov	r3, r0
 8001154:	2b00      	cmp	r3, #0
 8001156:	d001      	beq.n	800115c <SystemClock_Config+0xac>
		Error_Handler();
 8001158:	f000 f804 	bl	8001164 <Error_Handler>
	}
}
 800115c:	bf00      	nop
 800115e:	3750      	adds	r7, #80	; 0x50
 8001160:	46bd      	mov	sp, r7
 8001162:	bd80      	pop	{r7, pc}

08001164 <Error_Handler>:
//	GPIO_InitStruct.Pull = GPIO_PULLDOWN;
//	HAL_GPIO_Init(GPIOA, &GPIO_InitStruct);
//
//}

void Error_Handler(void) {
 8001164:	b480      	push	{r7}
 8001166:	af00      	add	r7, sp, #0
  \details Disables IRQ interrupts by setting the I-bit in the CPSR.
           Can only be executed in Privileged modes.
 */
__STATIC_FORCEINLINE void __disable_irq(void)
{
  __ASM volatile ("cpsid i" : : : "memory");
 8001168:	b672      	cpsid	i
}
 800116a:	bf00      	nop
	__disable_irq();
	while (1) {
 800116c:	e7fe      	b.n	800116c <Error_Handler+0x8>
	...

08001170 <HAL_MspInit>:
 8001170:	b480      	push	{r7}
 8001172:	b085      	sub	sp, #20
 8001174:	af00      	add	r7, sp, #0
 8001176:	4b15      	ldr	r3, [pc, #84]	; (80011cc <HAL_MspInit+0x5c>)
 8001178:	699b      	ldr	r3, [r3, #24]
 800117a:	4a14      	ldr	r2, [pc, #80]	; (80011cc <HAL_MspInit+0x5c>)
 800117c:	f043 0301 	orr.w	r3, r3, #1
 8001180:	6193      	str	r3, [r2, #24]
 8001182:	4b12      	ldr	r3, [pc, #72]	; (80011cc <HAL_MspInit+0x5c>)
 8001184:	699b      	ldr	r3, [r3, #24]
 8001186:	f003 0301 	and.w	r3, r3, #1
 800118a:	60bb      	str	r3, [r7, #8]
 800118c:	68bb      	ldr	r3, [r7, #8]
 800118e:	4b0f      	ldr	r3, [pc, #60]	; (80011cc <HAL_MspInit+0x5c>)
 8001190:	69db      	ldr	r3, [r3, #28]
 8001192:	4a0e      	ldr	r2, [pc, #56]	; (80011cc <HAL_MspInit+0x5c>)
 8001194:	f043 5380 	orr.w	r3, r3, #268435456	; 0x10000000
 8001198:	61d3      	str	r3, [r2, #28]
 800119a:	4b0c      	ldr	r3, [pc, #48]	; (80011cc <HAL_MspInit+0x5c>)
 800119c:	69db      	ldr	r3, [r3, #28]
 800119e:	f003 5380 	and.w	r3, r3, #268435456	; 0x10000000
 80011a2:	607b      	str	r3, [r7, #4]
 80011a4:	687b      	ldr	r3, [r7, #4]
 80011a6:	4b0a      	ldr	r3, [pc, #40]	; (80011d0 <HAL_MspInit+0x60>)
 80011a8:	685b      	ldr	r3, [r3, #4]
 80011aa:	60fb      	str	r3, [r7, #12]
 80011ac:	68fb      	ldr	r3, [r7, #12]
 80011ae:	f023 63e0 	bic.w	r3, r3, #117440512	; 0x7000000
 80011b2:	60fb      	str	r3, [r7, #12]
 80011b4:	68fb      	ldr	r3, [r7, #12]
 80011b6:	f043 7300 	orr.w	r3, r3, #33554432	; 0x2000000
 80011ba:	60fb      	str	r3, [r7, #12]
 80011bc:	4a04      	ldr	r2, [pc, #16]	; (80011d0 <HAL_MspInit+0x60>)
 80011be:	68fb      	ldr	r3, [r7, #12]
 80011c0:	6053      	str	r3, [r2, #4]
 80011c2:	bf00      	nop
 80011c4:	3714      	adds	r7, #20
 80011c6:	46bd      	mov	sp, r7
 80011c8:	bc80      	pop	{r7}
 80011ca:	4770      	bx	lr
 80011cc:	40021000 	.word	0x40021000
 80011d0:	40010000 	.word	0x40010000

080011d4 <NMI_Handler>:
 80011d4:	b480      	push	{r7}
 80011d6:	af00      	add	r7, sp, #0
 80011d8:	e7fe      	b.n	80011d8 <NMI_Handler+0x4>

080011da <HardFault_Handler>:
 80011da:	b480      	push	{r7}
 80011dc:	af00      	add	r7, sp, #0
 80011de:	e7fe      	b.n	80011de <HardFault_Handler+0x4>

080011e0 <MemManage_Handler>:
 80011e0:	b480      	push	{r7}
 80011e2:	af00      	add	r7, sp, #0
 80011e4:	e7fe      	b.n	80011e4 <MemManage_Handler+0x4>

080011e6 <BusFault_Handler>:
 80011e6:	b480      	push	{r7}
 80011e8:	af00      	add	r7, sp, #0
 80011ea:	e7fe      	b.n	80011ea <BusFault_Handler+0x4>

080011ec <UsageFault_Handler>:
 80011ec:	b480      	push	{r7}
 80011ee:	af00      	add	r7, sp, #0
 80011f0:	e7fe      	b.n	80011f0 <UsageFault_Handler+0x4>

080011f2 <SVC_Handler>:
 80011f2:	b480      	push	{r7}
 80011f4:	af00      	add	r7, sp, #0
 80011f6:	bf00      	nop
 80011f8:	46bd      	mov	sp, r7
 80011fa:	bc80      	pop	{r7}
 80011fc:	4770      	bx	lr

080011fe <DebugMon_Handler>:
 80011fe:	b480      	push	{r7}
 8001200:	af00      	add	r7, sp, #0
 8001202:	bf00      	nop
 8001204:	46bd      	mov	sp, r7
 8001206:	bc80      	pop	{r7}
 8001208:	4770      	bx	lr

0800120a <PendSV_Handler>:
 800120a:	b480      	push	{r7}
 800120c:	af00      	add	r7, sp, #0
 800120e:	bf00      	nop
 8001210:	46bd      	mov	sp, r7
 8001212:	bc80      	pop	{r7}
 8001214:	4770      	bx	lr
	...

08001218 <USB_LP_CAN1_RX0_IRQHandler>:
 8001218:	b580      	push	{r7, lr}
 800121a:	af00      	add	r7, sp, #0
 800121c:	4802      	ldr	r0, [pc, #8]	; (8001228 <USB_LP_CAN1_RX0_IRQHandler+0x10>)
 800121e:	f000 fdaf 	bl	8001d80 <HAL_PCD_IRQHandler>
 8001222:	bf00      	nop
 8001224:	bd80      	pop	{r7, pc}
 8001226:	bf00      	nop
 8001228:	200017cc 	.word	0x200017cc

0800122c <SystemInit>:
 800122c:	b480      	push	{r7}
 800122e:	af00      	add	r7, sp, #0
 8001230:	bf00      	nop
 8001232:	46bd      	mov	sp, r7
 8001234:	bc80      	pop	{r7}
 8001236:	4770      	bx	lr

08001238 <SysTick_Handler>:

volatile uint32_t sys_tick = 0;

// SysTick timer interrupt
void SysTick_Handler()
{
 8001238:	b480      	push	{r7}
 800123a:	af00      	add	r7, sp, #0
    sys_tick++;         // every 1ms
 800123c:	4b04      	ldr	r3, [pc, #16]	; (8001250 <SysTick_Handler+0x18>)
 800123e:	681b      	ldr	r3, [r3, #0]
 8001240:	3301      	adds	r3, #1
 8001242:	4a03      	ldr	r2, [pc, #12]	; (8001250 <SysTick_Handler+0x18>)
 8001244:	6013      	str	r3, [r2, #0]
}
 8001246:	bf00      	nop
 8001248:	46bd      	mov	sp, r7
 800124a:	bc80      	pop	{r7}
 800124c:	4770      	bx	lr
 800124e:	bf00      	nop
 8001250:	20000a40 	.word	0x20000a40

08001254 <InitSysTick>:
void InitSysTick(void)
{
 8001254:	b480      	push	{r7}
 8001256:	af00      	add	r7, sp, #0
    SysTick->LOAD = SYS_TIMER_TICK;
 8001258:	4b06      	ldr	r3, [pc, #24]	; (8001274 <InitSysTick+0x20>)
 800125a:	f240 7207 	movw	r2, #1799	; 0x707
 800125e:	605a      	str	r2, [r3, #4]
    SysTick->VAL = 0;
 8001260:	4b04      	ldr	r3, [pc, #16]	; (8001274 <InitSysTick+0x20>)
 8001262:	2200      	movs	r2, #0
 8001264:	609a      	str	r2, [r3, #8]
    SysTick->CTRL =	SysTick_CTRL_CLKSOURCE_Msk |
 8001266:	4b03      	ldr	r3, [pc, #12]	; (8001274 <InitSysTick+0x20>)
 8001268:	2207      	movs	r2, #7
 800126a:	601a      	str	r2, [r3, #0]
                    SysTick_CTRL_TICKINT_Msk   |    // interrupt enable
                    SysTick_CTRL_ENABLE_Msk;
}
 800126c:	bf00      	nop
 800126e:	46bd      	mov	sp, r7
 8001270:	bc80      	pop	{r7}
 8001272:	4770      	bx	lr
 8001274:	e000e010 	.word	0xe000e010

08001278 <InitTim2>:
void ResetCounter(uint32_t* cnt)
{
    *cnt = sys_tick;
}
void InitTim2(void)
{
 8001278:	b480      	push	{r7}
 800127a:	af00      	add	r7, sp, #0
    // Timer
    TIM2->CR1 = TIM_CR1_ARPE    * 0 |   // Auto-reload preload enable
 800127c:	f04f 4380 	mov.w	r3, #1073741824	; 0x40000000
 8001280:	2200      	movs	r2, #0
 8001282:	601a      	str	r2, [r3, #0]
                TIM_CR1_CMS_1   * 0 |   // Center-aligned mode selection : edge-aligned mode
                TIM_CR1_CMS_0   * 0 |
                TIM_CR1_DIR     * 0;    // Direction : upcounter
    TIM2->PSC = 35;                     // CK_CNT = 2MHz
 8001284:	f04f 4380 	mov.w	r3, #1073741824	; 0x40000000
 8001288:	2223      	movs	r2, #35	; 0x23
 800128a:	629a      	str	r2, [r3, #40]	; 0x28
    TIM2->ARR = PHASE_PULSE - 1;        // 16us period
 800128c:	f04f 4380 	mov.w	r3, #1073741824	; 0x40000000
 8001290:	221f      	movs	r2, #31
 8001292:	62da      	str	r2, [r3, #44]	; 0x2c
    TIM2->EGR = TIM_EGR_UG;             // update event enable
 8001294:	f04f 4380 	mov.w	r3, #1073741824	; 0x40000000
 8001298:	2201      	movs	r2, #1
 800129a:	615a      	str	r2, [r3, #20]
    // DMA
    //TIM2->DIER  |= TIM_DIER_UDE;        // update DMA request enable
    // PWM
    TIM2->CCMR2 =   TIM_CCMR2_OC3M_2    * 1 |   // C3 PWM mode 2 (inactive -> active)
 800129c:	f04f 4380 	mov.w	r3, #1073741824	; 0x40000000
 80012a0:	f247 0270 	movw	r2, #28784	; 0x7070
 80012a4:	61da      	str	r2, [r3, #28]
                    TIM_CCMR2_OC3M_1    * 1 |
                    TIM_CCMR2_OC3M_0    * 1 |
                    TIM_CCMR2_OC4M_2    * 1 |   // C4 PWM mode 2 (inactive -> active)
                    TIM_CCMR2_OC4M_1    * 1 |
                    TIM_CCMR2_OC4M_0    * 1;
    TIM2->CCER  =   TIM_CCER_CC3E       * 1 |   // C3 out enable
 80012a6:	f04f 4380 	mov.w	r3, #1073741824	; 0x40000000
 80012aa:	f44f 5244 	mov.w	r2, #12544	; 0x3100
 80012ae:	621a      	str	r2, [r3, #32]
                    TIM_CCER_CC3P       * 0 |   // C3 active high
                    TIM_CCER_CC4E       * 1 |   // C4 out enable
                    TIM_CCER_CC4P       * 1;    // C4 active low
    
    TIM2->CCR3  = PHASE_PULSE - UNLOCK_PULSE;   // start register unlock pulse at 15 us
 80012b0:	f04f 4380 	mov.w	r3, #1073741824	; 0x40000000
 80012b4:	221e      	movs	r2, #30
 80012b6:	63da      	str	r2, [r3, #60]	; 0x3c
    TIM2->CCR4  = PHASE_PULSE - LOCK_PULSE;     // end register unlock pulse at 15.5 us
 80012b8:	f04f 4380 	mov.w	r3, #1073741824	; 0x40000000
 80012bc:	221f      	movs	r2, #31
 80012be:	641a      	str	r2, [r3, #64]	; 0x40
    
    // Trigger output TRGO1 (active signal while TIM2 enabled)
    TIM2->CR2   =   TIM_CR2_MMS_2       * 0 |   // CNT_EN signal as trigger
 80012c0:	f04f 4380 	mov.w	r3, #1073741824	; 0x40000000
 80012c4:	2210      	movs	r2, #16
 80012c6:	605a      	str	r2, [r3, #4]
                    TIM_CR2_MMS_1       * 0 |
                    TIM_CR2_MMS_0       * 1;
    
    // Start
    TIM2->EGR = TIM_EGR_UG;         // update
 80012c8:	f04f 4380 	mov.w	r3, #1073741824	; 0x40000000
 80012cc:	2201      	movs	r2, #1
 80012ce:	615a      	str	r2, [r3, #20]
    TIM2->CR1 |= TIM_CR1_CEN;       // start
 80012d0:	f04f 4380 	mov.w	r3, #1073741824	; 0x40000000
 80012d4:	681b      	ldr	r3, [r3, #0]
 80012d6:	f04f 4280 	mov.w	r2, #1073741824	; 0x40000000
 80012da:	f043 0301 	orr.w	r3, r3, #1
 80012de:	6013      	str	r3, [r2, #0]
    
}
 80012e0:	bf00      	nop
 80012e2:	46bd      	mov	sp, r7
 80012e4:	bc80      	pop	{r7}
 80012e6:	4770      	bx	lr

080012e8 <InitTim3>:
void InitTim3(void)
{
 80012e8:	b480      	push	{r7}
 80012ea:	af00      	add	r7, sp, #0
    // Timer
    TIM3->CR1 = TIM_CR1_ARPE    * 0 |   // Auto-reload preload enable
 80012ec:	4b16      	ldr	r3, [pc, #88]	; (8001348 <InitTim3+0x60>)
 80012ee:	2200      	movs	r2, #0
 80012f0:	601a      	str	r2, [r3, #0]
                TIM_CR1_CMS_1   * 0 |   // Center-aligned mode selection : edge-aligned mode
                TIM_CR1_CMS_0   * 0 |
                TIM_CR1_DIR     * 0;    // Direction : upcounter
    TIM3->PSC = 35;                     // CK_CNT = 2MHz
 80012f2:	4b15      	ldr	r3, [pc, #84]	; (8001348 <InitTim3+0x60>)
 80012f4:	2223      	movs	r2, #35	; 0x23
 80012f6:	629a      	str	r2, [r3, #40]	; 0x28
    TIM3->ARR = MUX_PULSE - 1;          // 1MHz
 80012f8:	4b13      	ldr	r3, [pc, #76]	; (8001348 <InitTim3+0x60>)
 80012fa:	2203      	movs	r2, #3
 80012fc:	62da      	str	r2, [r3, #44]	; 0x2c
    TIM3->EGR = TIM_EGR_UG;             // update event enable
 80012fe:	4b12      	ldr	r3, [pc, #72]	; (8001348 <InitTim3+0x60>)
 8001300:	2201      	movs	r2, #1
 8001302:	615a      	str	r2, [r3, #20]
    // DMA
    TIM3->DIER  |= TIM_DIER_CC4DE;        // C4 DMA request enable
 8001304:	4b10      	ldr	r3, [pc, #64]	; (8001348 <InitTim3+0x60>)
 8001306:	68db      	ldr	r3, [r3, #12]
 8001308:	4a0f      	ldr	r2, [pc, #60]	; (8001348 <InitTim3+0x60>)
 800130a:	f443 5380 	orr.w	r3, r3, #4096	; 0x1000
 800130e:	60d3      	str	r3, [r2, #12]
    // PWM
    TIM3->CCMR2 =   TIM_CCMR2_OC4M_2    * 1 |   // C4 PWM mode 1 (active -> inactive)
 8001310:	4b0d      	ldr	r3, [pc, #52]	; (8001348 <InitTim3+0x60>)
 8001312:	f44f 42c0 	mov.w	r2, #24576	; 0x6000
 8001316:	61da      	str	r2, [r3, #28]
                    TIM_CCMR2_OC4M_1    * 1 |
                    TIM_CCMR2_OC4M_0    * 0;
    TIM3->CCER  =   TIM_CCER_CC4E       * 1 |   // C4 out enable
 8001318:	4b0b      	ldr	r3, [pc, #44]	; (8001348 <InitTim3+0x60>)
 800131a:	f44f 5280 	mov.w	r2, #4096	; 0x1000
 800131e:	621a      	str	r2, [r3, #32]
                    TIM_CCER_CC4P       * 0;    // C4 active high
    
    TIM3->CCR4  = MUX_PULSE / 2;        // 50%
 8001320:	4b09      	ldr	r3, [pc, #36]	; (8001348 <InitTim3+0x60>)
 8001322:	2202      	movs	r2, #2
 8001324:	641a      	str	r2, [r3, #64]	; 0x40

    // Slave mode
    TIM3->SMCR  =   TIM_SMCR_TS_2       * 0 |   // internal trigger 1 (TIM2)
 8001326:	4b08      	ldr	r3, [pc, #32]	; (8001348 <InitTim3+0x60>)
 8001328:	2215      	movs	r2, #21
 800132a:	609a      	str	r2, [r3, #8]
                    TIM_SMCR_SMS_2      * 1 |   // gated mode
                    TIM_SMCR_SMS_1      * 0 |
                    TIM_SMCR_SMS_0      * 1;
    
    // Start
    TIM3->EGR = TIM_EGR_UG;         // update
 800132c:	4b06      	ldr	r3, [pc, #24]	; (8001348 <InitTim3+0x60>)
 800132e:	2201      	movs	r2, #1
 8001330:	615a      	str	r2, [r3, #20]
    TIM3->CR1 |= TIM_CR1_CEN;       // start
 8001332:	4b05      	ldr	r3, [pc, #20]	; (8001348 <InitTim3+0x60>)
 8001334:	681b      	ldr	r3, [r3, #0]
 8001336:	4a04      	ldr	r2, [pc, #16]	; (8001348 <InitTim3+0x60>)
 8001338:	f043 0301 	orr.w	r3, r3, #1
 800133c:	6013      	str	r3, [r2, #0]
    
}
 800133e:	bf00      	nop
 8001340:	46bd      	mov	sp, r7
 8001342:	bc80      	pop	{r7}
 8001344:	4770      	bx	lr
 8001346:	bf00      	nop
 8001348:	40000400 	.word	0x40000400

0800134c <delay_ms>:
    //TIM2->CCER &= ~TIM_CCER_CC1E;   // out disable
}*/

// Delay TIM4
void delay_ms(int time)
{
 800134c:	b480      	push	{r7}
 800134e:	b083      	sub	sp, #12
 8001350:	af00      	add	r7, sp, #0
 8001352:	6078      	str	r0, [r7, #4]
    TIM4->CR1 = 0;
 8001354:	4b17      	ldr	r3, [pc, #92]	; (80013b4 <delay_ms+0x68>)
 8001356:	2200      	movs	r2, #0
 8001358:	601a      	str	r2, [r3, #0]
    TIM4->SR = 0;
 800135a:	4b16      	ldr	r3, [pc, #88]	; (80013b4 <delay_ms+0x68>)
 800135c:	2200      	movs	r2, #0
 800135e:	611a      	str	r2, [r3, #16]
    TIM4->PSC = 35999;                  // 2kHz
 8001360:	4b14      	ldr	r3, [pc, #80]	; (80013b4 <delay_ms+0x68>)
 8001362:	f648 429f 	movw	r2, #35999	; 0x8c9f
 8001366:	629a      	str	r2, [r3, #40]	; 0x28
    TIM4->ARR = time * 2 - 1;
 8001368:	687b      	ldr	r3, [r7, #4]
 800136a:	005b      	lsls	r3, r3, #1
 800136c:	1e5a      	subs	r2, r3, #1
 800136e:	4b11      	ldr	r3, [pc, #68]	; (80013b4 <delay_ms+0x68>)
 8001370:	62da      	str	r2, [r3, #44]	; 0x2c
    TIM4->EGR = TIM_EGR_UG;
 8001372:	4b10      	ldr	r3, [pc, #64]	; (80013b4 <delay_ms+0x68>)
 8001374:	2201      	movs	r2, #1
 8001376:	615a      	str	r2, [r3, #20]
    TIM4->SR &= ~TIM_SR_UIF;
 8001378:	4b0e      	ldr	r3, [pc, #56]	; (80013b4 <delay_ms+0x68>)
 800137a:	691b      	ldr	r3, [r3, #16]
 800137c:	4a0d      	ldr	r2, [pc, #52]	; (80013b4 <delay_ms+0x68>)
 800137e:	f023 0301 	bic.w	r3, r3, #1
 8001382:	6113      	str	r3, [r2, #16]
    TIM4->CR1 |= TIM_CR1_CEN;
 8001384:	4b0b      	ldr	r3, [pc, #44]	; (80013b4 <delay_ms+0x68>)
 8001386:	681b      	ldr	r3, [r3, #0]
 8001388:	4a0a      	ldr	r2, [pc, #40]	; (80013b4 <delay_ms+0x68>)
 800138a:	f043 0301 	orr.w	r3, r3, #1
 800138e:	6013      	str	r3, [r2, #0]
    while (!(TIM4->SR & TIM_SR_UIF))
 8001390:	bf00      	nop
 8001392:	4b08      	ldr	r3, [pc, #32]	; (80013b4 <delay_ms+0x68>)
 8001394:	691b      	ldr	r3, [r3, #16]
 8001396:	f003 0301 	and.w	r3, r3, #1
 800139a:	2b00      	cmp	r3, #0
 800139c:	d0f9      	beq.n	8001392 <delay_ms+0x46>
        ;
    TIM4->CR1 &= ~TIM_CR1_CEN;
 800139e:	4b05      	ldr	r3, [pc, #20]	; (80013b4 <delay_ms+0x68>)
 80013a0:	681b      	ldr	r3, [r3, #0]
 80013a2:	4a04      	ldr	r2, [pc, #16]	; (80013b4 <delay_ms+0x68>)
 80013a4:	f023 0301 	bic.w	r3, r3, #1
 80013a8:	6013      	str	r3, [r2, #0]
}
 80013aa:	bf00      	nop
 80013ac:	370c      	adds	r7, #12
 80013ae:	46bd      	mov	sp, r7
 80013b0:	bc80      	pop	{r7}
 80013b2:	4770      	bx	lr
 80013b4:	40000800 	.word	0x40000800

080013b8 <USBD_MIDI_Init>:
 80013b8:	b580      	push	{r7, lr}
 80013ba:	b082      	sub	sp, #8
 80013bc:	af00      	add	r7, sp, #0
 80013be:	6078      	str	r0, [r7, #4]
 80013c0:	460b      	mov	r3, r1
 80013c2:	70fb      	strb	r3, [r7, #3]
 80013c4:	4a0c      	ldr	r2, [pc, #48]	; (80013f8 <USBD_MIDI_Init+0x40>)
 80013c6:	687b      	ldr	r3, [r7, #4]
 80013c8:	6013      	str	r3, [r2, #0]
 80013ca:	2340      	movs	r3, #64	; 0x40
 80013cc:	2202      	movs	r2, #2
 80013ce:	2181      	movs	r1, #129	; 0x81
 80013d0:	6878      	ldr	r0, [r7, #4]
 80013d2:	f006 fa6e 	bl	80078b2 <USBD_LL_OpenEP>
 80013d6:	2340      	movs	r3, #64	; 0x40
 80013d8:	2202      	movs	r2, #2
 80013da:	2101      	movs	r1, #1
 80013dc:	6878      	ldr	r0, [r7, #4]
 80013de:	f006 fa68 	bl	80078b2 <USBD_LL_OpenEP>
 80013e2:	2340      	movs	r3, #64	; 0x40
 80013e4:	4a05      	ldr	r2, [pc, #20]	; (80013fc <USBD_MIDI_Init+0x44>)
 80013e6:	2101      	movs	r1, #1
 80013e8:	6878      	ldr	r0, [r7, #4]
 80013ea:	f006 fb53 	bl	8007a94 <USBD_LL_PrepareReceive>
 80013ee:	2300      	movs	r3, #0
 80013f0:	4618      	mov	r0, r3
 80013f2:	3708      	adds	r7, #8
 80013f4:	46bd      	mov	sp, r7
 80013f6:	bd80      	pop	{r7, pc}
 80013f8:	20000a44 	.word	0x20000a44
 80013fc:	20000ac4 	.word	0x20000ac4

08001400 <USBD_MIDI_DeInit>:
 8001400:	b580      	push	{r7, lr}
 8001402:	b082      	sub	sp, #8
 8001404:	af00      	add	r7, sp, #0
 8001406:	6078      	str	r0, [r7, #4]
 8001408:	460b      	mov	r3, r1
 800140a:	70fb      	strb	r3, [r7, #3]
 800140c:	4b07      	ldr	r3, [pc, #28]	; (800142c <USBD_MIDI_DeInit+0x2c>)
 800140e:	2200      	movs	r2, #0
 8001410:	601a      	str	r2, [r3, #0]
 8001412:	2181      	movs	r1, #129	; 0x81
 8001414:	6878      	ldr	r0, [r7, #4]
 8001416:	f006 fa72 	bl	80078fe <USBD_LL_CloseEP>
 800141a:	2101      	movs	r1, #1
 800141c:	6878      	ldr	r0, [r7, #4]
 800141e:	f006 fa6e 	bl	80078fe <USBD_LL_CloseEP>
 8001422:	2300      	movs	r3, #0
 8001424:	4618      	mov	r0, r3
 8001426:	3708      	adds	r7, #8
 8001428:	46bd      	mov	sp, r7
 800142a:	bd80      	pop	{r7, pc}
 800142c:	20000a44 	.word	0x20000a44

08001430 <USBD_MIDI_DataIn>:
 8001430:	b480      	push	{r7}
 8001432:	b083      	sub	sp, #12
 8001434:	af00      	add	r7, sp, #0
 8001436:	6078      	str	r0, [r7, #4]
 8001438:	460b      	mov	r3, r1
 800143a:	70fb      	strb	r3, [r7, #3]
 800143c:	4b0b      	ldr	r3, [pc, #44]	; (800146c <USBD_MIDI_DataIn+0x3c>)
 800143e:	681b      	ldr	r3, [r3, #0]
 8001440:	2b00      	cmp	r3, #0
 8001442:	d003      	beq.n	800144c <USBD_MIDI_DataIn+0x1c>
 8001444:	4b0a      	ldr	r3, [pc, #40]	; (8001470 <USBD_MIDI_DataIn+0x40>)
 8001446:	2202      	movs	r2, #2
 8001448:	701a      	strb	r2, [r3, #0]
 800144a:	e008      	b.n	800145e <USBD_MIDI_DataIn+0x2e>
 800144c:	4b09      	ldr	r3, [pc, #36]	; (8001474 <USBD_MIDI_DataIn+0x44>)
 800144e:	2200      	movs	r2, #0
 8001450:	601a      	str	r2, [r3, #0]
 8001452:	4b09      	ldr	r3, [pc, #36]	; (8001478 <USBD_MIDI_DataIn+0x48>)
 8001454:	2200      	movs	r2, #0
 8001456:	601a      	str	r2, [r3, #0]
 8001458:	4b05      	ldr	r3, [pc, #20]	; (8001470 <USBD_MIDI_DataIn+0x40>)
 800145a:	2200      	movs	r2, #0
 800145c:	701a      	strb	r2, [r3, #0]
 800145e:	2300      	movs	r3, #0
 8001460:	4618      	mov	r0, r3
 8001462:	370c      	adds	r7, #12
 8001464:	46bd      	mov	sp, r7
 8001466:	bc80      	pop	{r7}
 8001468:	4770      	bx	lr
 800146a:	bf00      	nop
 800146c:	20000a50 	.word	0x20000a50
 8001470:	20000a54 	.word	0x20000a54
 8001474:	20000a4c 	.word	0x20000a4c
 8001478:	20000a48 	.word	0x20000a48

0800147c <USBD_MIDI_DataOut>:
 800147c:	b580      	push	{r7, lr}
 800147e:	b084      	sub	sp, #16
 8001480:	af00      	add	r7, sp, #0
 8001482:	6078      	str	r0, [r7, #4]
 8001484:	460b      	mov	r3, r1
 8001486:	70fb      	strb	r3, [r7, #3]
 8001488:	687b      	ldr	r3, [r7, #4]
 800148a:	f8d3 12c0 	ldr.w	r1, [r3, #704]	; 0x2c0
 800148e:	78fa      	ldrb	r2, [r7, #3]
 8001490:	4613      	mov	r3, r2
 8001492:	009b      	lsls	r3, r3, #2
 8001494:	4413      	add	r3, r2
 8001496:	00db      	lsls	r3, r3, #3
 8001498:	440b      	add	r3, r1
 800149a:	f503 73c2 	add.w	r3, r3, #388	; 0x184
 800149e:	681b      	ldr	r3, [r3, #0]
 80014a0:	81fb      	strh	r3, [r7, #14]
 80014a2:	89fb      	ldrh	r3, [r7, #14]
 80014a4:	2b00      	cmp	r3, #0
 80014a6:	d009      	beq.n	80014bc <USBD_MIDI_DataOut+0x40>
 80014a8:	687b      	ldr	r3, [r7, #4]
 80014aa:	f8d3 32bc 	ldr.w	r3, [r3, #700]	; 0x2bc
 80014ae:	60bb      	str	r3, [r7, #8]
 80014b0:	68bb      	ldr	r3, [r7, #8]
 80014b2:	681b      	ldr	r3, [r3, #0]
 80014b4:	89fa      	ldrh	r2, [r7, #14]
 80014b6:	4611      	mov	r1, r2
 80014b8:	4806      	ldr	r0, [pc, #24]	; (80014d4 <USBD_MIDI_DataOut+0x58>)
 80014ba:	4798      	blx	r3
 80014bc:	2340      	movs	r3, #64	; 0x40
 80014be:	4a05      	ldr	r2, [pc, #20]	; (80014d4 <USBD_MIDI_DataOut+0x58>)
 80014c0:	2101      	movs	r1, #1
 80014c2:	6878      	ldr	r0, [r7, #4]
 80014c4:	f006 fae6 	bl	8007a94 <USBD_LL_PrepareReceive>
 80014c8:	2300      	movs	r3, #0
 80014ca:	4618      	mov	r0, r3
 80014cc:	3710      	adds	r7, #16
 80014ce:	46bd      	mov	sp, r7
 80014d0:	bd80      	pop	{r7, pc}
 80014d2:	bf00      	nop
 80014d4:	20000ac4 	.word	0x20000ac4

080014d8 <USBD_MIDI_GetCfgDesc>:
 80014d8:	b480      	push	{r7}
 80014da:	b083      	sub	sp, #12
 80014dc:	af00      	add	r7, sp, #0
 80014de:	6078      	str	r0, [r7, #4]
 80014e0:	687b      	ldr	r3, [r7, #4]
 80014e2:	2265      	movs	r2, #101	; 0x65
 80014e4:	801a      	strh	r2, [r3, #0]
 80014e6:	4b03      	ldr	r3, [pc, #12]	; (80014f4 <USBD_MIDI_GetCfgDesc+0x1c>)
 80014e8:	4618      	mov	r0, r3
 80014ea:	370c      	adds	r7, #12
 80014ec:	46bd      	mov	sp, r7
 80014ee:	bc80      	pop	{r7}
 80014f0:	4770      	bx	lr
 80014f2:	bf00      	nop
 80014f4:	2000003c 	.word	0x2000003c

080014f8 <USBD_MIDI_RegisterInterface>:
 80014f8:	b480      	push	{r7}
 80014fa:	b085      	sub	sp, #20
 80014fc:	af00      	add	r7, sp, #0
 80014fe:	6078      	str	r0, [r7, #4]
 8001500:	6039      	str	r1, [r7, #0]
 8001502:	2302      	movs	r3, #2
 8001504:	73fb      	strb	r3, [r7, #15]
 8001506:	683b      	ldr	r3, [r7, #0]
 8001508:	2b00      	cmp	r3, #0
 800150a:	d005      	beq.n	8001518 <USBD_MIDI_RegisterInterface+0x20>
 800150c:	687b      	ldr	r3, [r7, #4]
 800150e:	683a      	ldr	r2, [r7, #0]
 8001510:	f8c3 22bc 	str.w	r2, [r3, #700]	; 0x2bc
 8001514:	2300      	movs	r3, #0
 8001516:	73fb      	strb	r3, [r7, #15]
 8001518:	7bfb      	ldrb	r3, [r7, #15]
 800151a:	4618      	mov	r0, r3
 800151c:	3714      	adds	r7, #20
 800151e:	46bd      	mov	sp, r7
 8001520:	bc80      	pop	{r7}
 8001522:	4770      	bx	lr

08001524 <USBD_MIDI_SendPacket>:
 8001524:	b580      	push	{r7, lr}
 8001526:	b082      	sub	sp, #8
 8001528:	af00      	add	r7, sp, #0
 800152a:	4b2c      	ldr	r3, [pc, #176]	; (80015dc <USBD_MIDI_SendPacket+0xb8>)
 800152c:	681b      	ldr	r3, [r3, #0]
 800152e:	f5b3 6f00 	cmp.w	r3, #2048	; 0x800
 8001532:	d102      	bne.n	800153a <USBD_MIDI_SendPacket+0x16>
 8001534:	4b29      	ldr	r3, [pc, #164]	; (80015dc <USBD_MIDI_SendPacket+0xb8>)
 8001536:	2200      	movs	r2, #0
 8001538:	601a      	str	r2, [r3, #0]
 800153a:	4b28      	ldr	r3, [pc, #160]	; (80015dc <USBD_MIDI_SendPacket+0xb8>)
 800153c:	681a      	ldr	r2, [r3, #0]
 800153e:	4b28      	ldr	r3, [pc, #160]	; (80015e0 <USBD_MIDI_SendPacket+0xbc>)
 8001540:	681b      	ldr	r3, [r3, #0]
 8001542:	429a      	cmp	r2, r3
 8001544:	d103      	bne.n	800154e <USBD_MIDI_SendPacket+0x2a>
 8001546:	4b27      	ldr	r3, [pc, #156]	; (80015e4 <USBD_MIDI_SendPacket+0xc0>)
 8001548:	2200      	movs	r2, #0
 800154a:	701a      	strb	r2, [r3, #0]
 800154c:	e043      	b.n	80015d6 <USBD_MIDI_SendPacket+0xb2>
 800154e:	4b23      	ldr	r3, [pc, #140]	; (80015dc <USBD_MIDI_SendPacket+0xb8>)
 8001550:	681a      	ldr	r2, [r3, #0]
 8001552:	4b23      	ldr	r3, [pc, #140]	; (80015e0 <USBD_MIDI_SendPacket+0xbc>)
 8001554:	681b      	ldr	r3, [r3, #0]
 8001556:	429a      	cmp	r2, r3
 8001558:	d906      	bls.n	8001568 <USBD_MIDI_SendPacket+0x44>
 800155a:	4b20      	ldr	r3, [pc, #128]	; (80015dc <USBD_MIDI_SendPacket+0xb8>)
 800155c:	681b      	ldr	r3, [r3, #0]
 800155e:	f5c3 6300 	rsb	r3, r3, #2048	; 0x800
 8001562:	4a21      	ldr	r2, [pc, #132]	; (80015e8 <USBD_MIDI_SendPacket+0xc4>)
 8001564:	6013      	str	r3, [r2, #0]
 8001566:	e006      	b.n	8001576 <USBD_MIDI_SendPacket+0x52>
 8001568:	4b1d      	ldr	r3, [pc, #116]	; (80015e0 <USBD_MIDI_SendPacket+0xbc>)
 800156a:	681a      	ldr	r2, [r3, #0]
 800156c:	4b1b      	ldr	r3, [pc, #108]	; (80015dc <USBD_MIDI_SendPacket+0xb8>)
 800156e:	681b      	ldr	r3, [r3, #0]
 8001570:	1ad3      	subs	r3, r2, r3
 8001572:	4a1d      	ldr	r2, [pc, #116]	; (80015e8 <USBD_MIDI_SendPacket+0xc4>)
 8001574:	6013      	str	r3, [r2, #0]
 8001576:	4b1c      	ldr	r3, [pc, #112]	; (80015e8 <USBD_MIDI_SendPacket+0xc4>)
 8001578:	681b      	ldr	r3, [r3, #0]
 800157a:	2b40      	cmp	r3, #64	; 0x40
 800157c:	d90f      	bls.n	800159e <USBD_MIDI_SendPacket+0x7a>
 800157e:	4b17      	ldr	r3, [pc, #92]	; (80015dc <USBD_MIDI_SendPacket+0xb8>)
 8001580:	681b      	ldr	r3, [r3, #0]
 8001582:	80fb      	strh	r3, [r7, #6]
 8001584:	2340      	movs	r3, #64	; 0x40
 8001586:	80bb      	strh	r3, [r7, #4]
 8001588:	4b14      	ldr	r3, [pc, #80]	; (80015dc <USBD_MIDI_SendPacket+0xb8>)
 800158a:	681b      	ldr	r3, [r3, #0]
 800158c:	3340      	adds	r3, #64	; 0x40
 800158e:	4a13      	ldr	r2, [pc, #76]	; (80015dc <USBD_MIDI_SendPacket+0xb8>)
 8001590:	6013      	str	r3, [r2, #0]
 8001592:	4b15      	ldr	r3, [pc, #84]	; (80015e8 <USBD_MIDI_SendPacket+0xc4>)
 8001594:	681b      	ldr	r3, [r3, #0]
 8001596:	3b40      	subs	r3, #64	; 0x40
 8001598:	4a13      	ldr	r2, [pc, #76]	; (80015e8 <USBD_MIDI_SendPacket+0xc4>)
 800159a:	6013      	str	r3, [r2, #0]
 800159c:	e00f      	b.n	80015be <USBD_MIDI_SendPacket+0x9a>
 800159e:	4b0f      	ldr	r3, [pc, #60]	; (80015dc <USBD_MIDI_SendPacket+0xb8>)
 80015a0:	681b      	ldr	r3, [r3, #0]
 80015a2:	80fb      	strh	r3, [r7, #6]
 80015a4:	4b10      	ldr	r3, [pc, #64]	; (80015e8 <USBD_MIDI_SendPacket+0xc4>)
 80015a6:	681b      	ldr	r3, [r3, #0]
 80015a8:	80bb      	strh	r3, [r7, #4]
 80015aa:	4b0c      	ldr	r3, [pc, #48]	; (80015dc <USBD_MIDI_SendPacket+0xb8>)
 80015ac:	681a      	ldr	r2, [r3, #0]
 80015ae:	4b0e      	ldr	r3, [pc, #56]	; (80015e8 <USBD_MIDI_SendPacket+0xc4>)
 80015b0:	681b      	ldr	r3, [r3, #0]
 80015b2:	4413      	add	r3, r2
 80015b4:	4a09      	ldr	r2, [pc, #36]	; (80015dc <USBD_MIDI_SendPacket+0xb8>)
 80015b6:	6013      	str	r3, [r2, #0]
 80015b8:	4b0b      	ldr	r3, [pc, #44]	; (80015e8 <USBD_MIDI_SendPacket+0xc4>)
 80015ba:	2200      	movs	r2, #0
 80015bc:	601a      	str	r2, [r3, #0]
 80015be:	4b09      	ldr	r3, [pc, #36]	; (80015e4 <USBD_MIDI_SendPacket+0xc0>)
 80015c0:	2201      	movs	r2, #1
 80015c2:	701a      	strb	r2, [r3, #0]
 80015c4:	4b09      	ldr	r3, [pc, #36]	; (80015ec <USBD_MIDI_SendPacket+0xc8>)
 80015c6:	6818      	ldr	r0, [r3, #0]
 80015c8:	88fb      	ldrh	r3, [r7, #6]
 80015ca:	4a09      	ldr	r2, [pc, #36]	; (80015f0 <USBD_MIDI_SendPacket+0xcc>)
 80015cc:	441a      	add	r2, r3
 80015ce:	88bb      	ldrh	r3, [r7, #4]
 80015d0:	2181      	movs	r1, #129	; 0x81
 80015d2:	f006 fa3c 	bl	8007a4e <USBD_LL_Transmit>
 80015d6:	3708      	adds	r7, #8
 80015d8:	46bd      	mov	sp, r7
 80015da:	bd80      	pop	{r7, pc}
 80015dc:	20000a4c 	.word	0x20000a4c
 80015e0:	20000a48 	.word	0x20000a48
 80015e4:	20000a54 	.word	0x20000a54
 80015e8:	20000a50 	.word	0x20000a50
 80015ec:	20000a44 	.word	0x20000a44
 80015f0:	20000b04 	.word	0x20000b04

080015f4 <USBD_AddNoteOn>:
 80015f4:	b590      	push	{r4, r7, lr}
 80015f6:	b085      	sub	sp, #20
 80015f8:	af00      	add	r7, sp, #0
 80015fa:	4604      	mov	r4, r0
 80015fc:	4608      	mov	r0, r1
 80015fe:	4611      	mov	r1, r2
 8001600:	461a      	mov	r2, r3
 8001602:	4623      	mov	r3, r4
 8001604:	71fb      	strb	r3, [r7, #7]
 8001606:	4603      	mov	r3, r0
 8001608:	71bb      	strb	r3, [r7, #6]
 800160a:	460b      	mov	r3, r1
 800160c:	717b      	strb	r3, [r7, #5]
 800160e:	4613      	mov	r3, r2
 8001610:	713b      	strb	r3, [r7, #4]
 8001612:	79fb      	ldrb	r3, [r7, #7]
 8001614:	011b      	lsls	r3, r3, #4
 8001616:	71fb      	strb	r3, [r7, #7]
 8001618:	79fb      	ldrb	r3, [r7, #7]
 800161a:	3309      	adds	r3, #9
 800161c:	b2db      	uxtb	r3, r3
 800161e:	733b      	strb	r3, [r7, #12]
 8001620:	79bb      	ldrb	r3, [r7, #6]
 8001622:	f063 036f 	orn	r3, r3, #111	; 0x6f
 8001626:	b2db      	uxtb	r3, r3
 8001628:	737b      	strb	r3, [r7, #13]
 800162a:	797b      	ldrb	r3, [r7, #5]
 800162c:	f003 037f 	and.w	r3, r3, #127	; 0x7f
 8001630:	b2db      	uxtb	r3, r3
 8001632:	73bb      	strb	r3, [r7, #14]
 8001634:	793b      	ldrb	r3, [r7, #4]
 8001636:	f003 037f 	and.w	r3, r3, #127	; 0x7f
 800163a:	b2db      	uxtb	r3, r3
 800163c:	73fb      	strb	r3, [r7, #15]
 800163e:	f107 030c 	add.w	r3, r7, #12
 8001642:	2104      	movs	r1, #4
 8001644:	4618      	mov	r0, r3
 8001646:	f000 f839 	bl	80016bc <MIDI_DataTx>
 800164a:	bf00      	nop
 800164c:	3714      	adds	r7, #20
 800164e:	46bd      	mov	sp, r7
 8001650:	bd90      	pop	{r4, r7, pc}

08001652 <USBD_AddNoteOff>:
 8001652:	b580      	push	{r7, lr}
 8001654:	b084      	sub	sp, #16
 8001656:	af00      	add	r7, sp, #0
 8001658:	4603      	mov	r3, r0
 800165a:	71fb      	strb	r3, [r7, #7]
 800165c:	460b      	mov	r3, r1
 800165e:	71bb      	strb	r3, [r7, #6]
 8001660:	4613      	mov	r3, r2
 8001662:	717b      	strb	r3, [r7, #5]
 8001664:	79fb      	ldrb	r3, [r7, #7]
 8001666:	011b      	lsls	r3, r3, #4
 8001668:	71fb      	strb	r3, [r7, #7]
 800166a:	79fb      	ldrb	r3, [r7, #7]
 800166c:	3308      	adds	r3, #8
 800166e:	b2db      	uxtb	r3, r3
 8001670:	733b      	strb	r3, [r7, #12]
 8001672:	79bb      	ldrb	r3, [r7, #6]
 8001674:	f063 037f 	orn	r3, r3, #127	; 0x7f
 8001678:	b2db      	uxtb	r3, r3
 800167a:	737b      	strb	r3, [r7, #13]
 800167c:	797b      	ldrb	r3, [r7, #5]
 800167e:	f003 037f 	and.w	r3, r3, #127	; 0x7f
 8001682:	b2db      	uxtb	r3, r3
 8001684:	73bb      	strb	r3, [r7, #14]
 8001686:	2300      	movs	r3, #0
 8001688:	73fb      	strb	r3, [r7, #15]
 800168a:	f107 030c 	add.w	r3, r7, #12
 800168e:	2104      	movs	r1, #4
 8001690:	4618      	mov	r0, r3
 8001692:	f000 f813 	bl	80016bc <MIDI_DataTx>
 8001696:	bf00      	nop
 8001698:	3710      	adds	r7, #16
 800169a:	46bd      	mov	sp, r7
 800169c:	bd80      	pop	{r7, pc}
	...

080016a0 <USBD_SendMidiMessages>:
 80016a0:	b580      	push	{r7, lr}
 80016a2:	af00      	add	r7, sp, #0
 80016a4:	4b04      	ldr	r3, [pc, #16]	; (80016b8 <USBD_SendMidiMessages+0x18>)
 80016a6:	f893 329c 	ldrb.w	r3, [r3, #668]	; 0x29c
 80016aa:	2b03      	cmp	r3, #3
 80016ac:	d101      	bne.n	80016b2 <USBD_SendMidiMessages+0x12>
 80016ae:	f7ff ff39 	bl	8001524 <USBD_MIDI_SendPacket>
 80016b2:	bf00      	nop
 80016b4:	bd80      	pop	{r7, pc}
 80016b6:	bf00      	nop
 80016b8:	20001308 	.word	0x20001308

080016bc <MIDI_DataTx>:
 80016bc:	b480      	push	{r7}
 80016be:	b085      	sub	sp, #20
 80016c0:	af00      	add	r7, sp, #0
 80016c2:	6078      	str	r0, [r7, #4]
 80016c4:	460b      	mov	r3, r1
 80016c6:	807b      	strh	r3, [r7, #2]
 80016c8:	2300      	movs	r3, #0
 80016ca:	81fb      	strh	r3, [r7, #14]
 80016cc:	e017      	b.n	80016fe <MIDI_DataTx+0x42>
 80016ce:	89fb      	ldrh	r3, [r7, #14]
 80016d0:	687a      	ldr	r2, [r7, #4]
 80016d2:	441a      	add	r2, r3
 80016d4:	4b0f      	ldr	r3, [pc, #60]	; (8001714 <MIDI_DataTx+0x58>)
 80016d6:	681b      	ldr	r3, [r3, #0]
 80016d8:	7811      	ldrb	r1, [r2, #0]
 80016da:	4a0f      	ldr	r2, [pc, #60]	; (8001718 <MIDI_DataTx+0x5c>)
 80016dc:	54d1      	strb	r1, [r2, r3]
 80016de:	4b0d      	ldr	r3, [pc, #52]	; (8001714 <MIDI_DataTx+0x58>)
 80016e0:	681b      	ldr	r3, [r3, #0]
 80016e2:	3301      	adds	r3, #1
 80016e4:	4a0b      	ldr	r2, [pc, #44]	; (8001714 <MIDI_DataTx+0x58>)
 80016e6:	6013      	str	r3, [r2, #0]
 80016e8:	89fb      	ldrh	r3, [r7, #14]
 80016ea:	3301      	adds	r3, #1
 80016ec:	81fb      	strh	r3, [r7, #14]
 80016ee:	4b09      	ldr	r3, [pc, #36]	; (8001714 <MIDI_DataTx+0x58>)
 80016f0:	681b      	ldr	r3, [r3, #0]
 80016f2:	f5b3 6f00 	cmp.w	r3, #2048	; 0x800
 80016f6:	d102      	bne.n	80016fe <MIDI_DataTx+0x42>
 80016f8:	4b06      	ldr	r3, [pc, #24]	; (8001714 <MIDI_DataTx+0x58>)
 80016fa:	2200      	movs	r2, #0
 80016fc:	601a      	str	r2, [r3, #0]
 80016fe:	89fa      	ldrh	r2, [r7, #14]
 8001700:	887b      	ldrh	r3, [r7, #2]
 8001702:	429a      	cmp	r2, r3
 8001704:	d3e3      	bcc.n	80016ce <MIDI_DataTx+0x12>
 8001706:	2300      	movs	r3, #0
 8001708:	4618      	mov	r0, r3
 800170a:	3714      	adds	r7, #20
 800170c:	46bd      	mov	sp, r7
 800170e:	bc80      	pop	{r7}
 8001710:	4770      	bx	lr
 8001712:	bf00      	nop
 8001714:	20000a48 	.word	0x20000a48
 8001718:	20000b04 	.word	0x20000b04

0800171c <MIDI_DataRx>:
 800171c:	b480      	push	{r7}
 800171e:	b085      	sub	sp, #20
 8001720:	af00      	add	r7, sp, #0
 8001722:	6078      	str	r0, [r7, #4]
 8001724:	460b      	mov	r3, r1
 8001726:	807b      	strh	r3, [r7, #2]
 8001728:	2300      	movs	r3, #0
 800172a:	81fb      	strh	r3, [r7, #14]
 800172c:	e069      	b.n	8001802 <MIDI_DataRx+0xe6>
 800172e:	23ff      	movs	r3, #255	; 0xff
 8001730:	72bb      	strb	r3, [r7, #10]
 8001732:	7abb      	ldrb	r3, [r7, #10]
 8001734:	727b      	strb	r3, [r7, #9]
 8001736:	7a7b      	ldrb	r3, [r7, #9]
 8001738:	723b      	strb	r3, [r7, #8]
 800173a:	89fb      	ldrh	r3, [r7, #14]
 800173c:	687a      	ldr	r2, [r7, #4]
 800173e:	4413      	add	r3, r2
 8001740:	781b      	ldrb	r3, [r3, #0]
 8001742:	091b      	lsrs	r3, r3, #4
 8001744:	b2db      	uxtb	r3, r3
 8001746:	2b00      	cmp	r3, #0
 8001748:	d002      	beq.n	8001750 <MIDI_DataRx+0x34>
 800174a:	2b01      	cmp	r3, #1
 800174c:	d002      	beq.n	8001754 <MIDI_DataRx+0x38>
 800174e:	e055      	b.n	80017fc <MIDI_DataRx+0xe0>
 8001750:	bf00      	nop
 8001752:	e000      	b.n	8001756 <MIDI_DataRx+0x3a>
 8001754:	bf00      	nop
 8001756:	89fb      	ldrh	r3, [r7, #14]
 8001758:	687a      	ldr	r2, [r7, #4]
 800175a:	4413      	add	r3, r2
 800175c:	781b      	ldrb	r3, [r3, #0]
 800175e:	f003 030f 	and.w	r3, r3, #15
 8001762:	2b0f      	cmp	r3, #15
 8001764:	d836      	bhi.n	80017d4 <MIDI_DataRx+0xb8>
 8001766:	a201      	add	r2, pc, #4	; (adr r2, 800176c <MIDI_DataRx+0x50>)
 8001768:	f852 f023 	ldr.w	pc, [r2, r3, lsl #2]
 800176c:	080017fb 	.word	0x080017fb
 8001770:	080017fb 	.word	0x080017fb
 8001774:	080017bb 	.word	0x080017bb
 8001778:	080017d5 	.word	0x080017d5
 800177c:	080017d5 	.word	0x080017d5
 8001780:	080017ad 	.word	0x080017ad
 8001784:	080017bb 	.word	0x080017bb
 8001788:	080017d5 	.word	0x080017d5
 800178c:	080017d5 	.word	0x080017d5
 8001790:	080017d5 	.word	0x080017d5
 8001794:	080017d5 	.word	0x080017d5
 8001798:	080017d5 	.word	0x080017d5
 800179c:	080017bb 	.word	0x080017bb
 80017a0:	080017bb 	.word	0x080017bb
 80017a4:	080017d5 	.word	0x080017d5
 80017a8:	080017ad 	.word	0x080017ad
 80017ac:	89fb      	ldrh	r3, [r7, #14]
 80017ae:	3301      	adds	r3, #1
 80017b0:	687a      	ldr	r2, [r7, #4]
 80017b2:	4413      	add	r3, r2
 80017b4:	781b      	ldrb	r3, [r3, #0]
 80017b6:	723b      	strb	r3, [r7, #8]
 80017b8:	e020      	b.n	80017fc <MIDI_DataRx+0xe0>
 80017ba:	89fb      	ldrh	r3, [r7, #14]
 80017bc:	3301      	adds	r3, #1
 80017be:	687a      	ldr	r2, [r7, #4]
 80017c0:	4413      	add	r3, r2
 80017c2:	781b      	ldrb	r3, [r3, #0]
 80017c4:	723b      	strb	r3, [r7, #8]
 80017c6:	89fb      	ldrh	r3, [r7, #14]
 80017c8:	3302      	adds	r3, #2
 80017ca:	687a      	ldr	r2, [r7, #4]
 80017cc:	4413      	add	r3, r2
 80017ce:	781b      	ldrb	r3, [r3, #0]
 80017d0:	727b      	strb	r3, [r7, #9]
 80017d2:	e013      	b.n	80017fc <MIDI_DataRx+0xe0>
 80017d4:	89fb      	ldrh	r3, [r7, #14]
 80017d6:	3301      	adds	r3, #1
 80017d8:	687a      	ldr	r2, [r7, #4]
 80017da:	4413      	add	r3, r2
 80017dc:	781b      	ldrb	r3, [r3, #0]
 80017de:	723b      	strb	r3, [r7, #8]
 80017e0:	89fb      	ldrh	r3, [r7, #14]
 80017e2:	3302      	adds	r3, #2
 80017e4:	687a      	ldr	r2, [r7, #4]
 80017e6:	4413      	add	r3, r2
 80017e8:	781b      	ldrb	r3, [r3, #0]
 80017ea:	727b      	strb	r3, [r7, #9]
 80017ec:	89fb      	ldrh	r3, [r7, #14]
 80017ee:	3303      	adds	r3, #3
 80017f0:	687a      	ldr	r2, [r7, #4]
 80017f2:	4413      	add	r3, r2
 80017f4:	781b      	ldrb	r3, [r3, #0]
 80017f6:	72bb      	strb	r3, [r7, #10]
 80017f8:	e000      	b.n	80017fc <MIDI_DataRx+0xe0>
 80017fa:	bf00      	nop
 80017fc:	89fb      	ldrh	r3, [r7, #14]
 80017fe:	3304      	adds	r3, #4
 8001800:	81fb      	strh	r3, [r7, #14]
 8001802:	89fa      	ldrh	r2, [r7, #14]
 8001804:	887b      	ldrh	r3, [r7, #2]
 8001806:	429a      	cmp	r2, r3
 8001808:	d391      	bcc.n	800172e <MIDI_DataRx+0x12>
 800180a:	2300      	movs	r3, #0
 800180c:	4618      	mov	r0, r3
 800180e:	3714      	adds	r7, #20
 8001810:	46bd      	mov	sp, r7
 8001812:	bc80      	pop	{r7}
 8001814:	4770      	bx	lr
 8001816:	bf00      	nop

08001818 <Reset_Handler>:
 8001818:	2100      	movs	r1, #0
 800181a:	e003      	b.n	8001824 <LoopCopyDataInit>

0800181c <CopyDataInit>:
 800181c:	4b0b      	ldr	r3, [pc, #44]	; (800184c <LoopFillZerobss+0x14>)
 800181e:	585b      	ldr	r3, [r3, r1]
 8001820:	5043      	str	r3, [r0, r1]
 8001822:	3104      	adds	r1, #4

08001824 <LoopCopyDataInit>:
 8001824:	480a      	ldr	r0, [pc, #40]	; (8001850 <LoopFillZerobss+0x18>)
 8001826:	4b0b      	ldr	r3, [pc, #44]	; (8001854 <LoopFillZerobss+0x1c>)
 8001828:	1842      	adds	r2, r0, r1
 800182a:	429a      	cmp	r2, r3
 800182c:	d3f6      	bcc.n	800181c <CopyDataInit>
 800182e:	4a0a      	ldr	r2, [pc, #40]	; (8001858 <LoopFillZerobss+0x20>)
 8001830:	e002      	b.n	8001838 <LoopFillZerobss>

08001832 <FillZerobss>:
 8001832:	2300      	movs	r3, #0
 8001834:	f842 3b04 	str.w	r3, [r2], #4

08001838 <LoopFillZerobss>:
 8001838:	4b08      	ldr	r3, [pc, #32]	; (800185c <LoopFillZerobss+0x24>)
 800183a:	429a      	cmp	r2, r3
 800183c:	d3f9      	bcc.n	8001832 <FillZerobss>
 800183e:	f7ff fcf5 	bl	800122c <SystemInit>
 8001842:	f006 f987 	bl	8007b54 <__libc_init_array>
 8001846:	f7ff fabf 	bl	8000dc8 <main>
 800184a:	4770      	bx	lr
 800184c:	08008b90 	.word	0x08008b90
 8001850:	20000000 	.word	0x20000000
 8001854:	20000168 	.word	0x20000168
 8001858:	20000168 	.word	0x20000168
 800185c:	20001ab8 	.word	0x20001ab8

08001860 <ADC1_2_IRQHandler>:
 8001860:	e7fe      	b.n	8001860 <ADC1_2_IRQHandler>
	...

08001864 <HAL_Init>:
 8001864:	b580      	push	{r7, lr}
 8001866:	af00      	add	r7, sp, #0
 8001868:	4b08      	ldr	r3, [pc, #32]	; (800188c <HAL_Init+0x28>)
 800186a:	681b      	ldr	r3, [r3, #0]
 800186c:	4a07      	ldr	r2, [pc, #28]	; (800188c <HAL_Init+0x28>)
 800186e:	f043 0310 	orr.w	r3, r3, #16
 8001872:	6013      	str	r3, [r2, #0]
 8001874:	2003      	movs	r0, #3
 8001876:	f000 f911 	bl	8001a9c <HAL_NVIC_SetPriorityGrouping>
 800187a:	2000      	movs	r0, #0
 800187c:	f000 f808 	bl	8001890 <HAL_InitTick>
 8001880:	f7ff fc76 	bl	8001170 <HAL_MspInit>
 8001884:	2300      	movs	r3, #0
 8001886:	4618      	mov	r0, r3
 8001888:	bd80      	pop	{r7, pc}
 800188a:	bf00      	nop
 800188c:	40022000 	.word	0x40022000

08001890 <HAL_InitTick>:
 8001890:	b580      	push	{r7, lr}
 8001892:	b082      	sub	sp, #8
 8001894:	af00      	add	r7, sp, #0
 8001896:	6078      	str	r0, [r7, #4]
 8001898:	4b12      	ldr	r3, [pc, #72]	; (80018e4 <HAL_InitTick+0x54>)
 800189a:	681a      	ldr	r2, [r3, #0]
 800189c:	4b12      	ldr	r3, [pc, #72]	; (80018e8 <HAL_InitTick+0x58>)
 800189e:	781b      	ldrb	r3, [r3, #0]
 80018a0:	4619      	mov	r1, r3
 80018a2:	f44f 737a 	mov.w	r3, #1000	; 0x3e8
 80018a6:	fbb3 f3f1 	udiv	r3, r3, r1
 80018aa:	fbb2 f3f3 	udiv	r3, r2, r3
 80018ae:	4618      	mov	r0, r3
 80018b0:	f000 f929 	bl	8001b06 <HAL_SYSTICK_Config>
 80018b4:	4603      	mov	r3, r0
 80018b6:	2b00      	cmp	r3, #0
 80018b8:	d001      	beq.n	80018be <HAL_InitTick+0x2e>
 80018ba:	2301      	movs	r3, #1
 80018bc:	e00e      	b.n	80018dc <HAL_InitTick+0x4c>
 80018be:	687b      	ldr	r3, [r7, #4]
 80018c0:	2b0f      	cmp	r3, #15
 80018c2:	d80a      	bhi.n	80018da <HAL_InitTick+0x4a>
 80018c4:	2200      	movs	r2, #0
 80018c6:	6879      	ldr	r1, [r7, #4]
 80018c8:	f04f 30ff 	mov.w	r0, #4294967295	; 0xffffffff
 80018cc:	f000 f8f1 	bl	8001ab2 <HAL_NVIC_SetPriority>
 80018d0:	4a06      	ldr	r2, [pc, #24]	; (80018ec <HAL_InitTick+0x5c>)
 80018d2:	687b      	ldr	r3, [r7, #4]
 80018d4:	6013      	str	r3, [r2, #0]
 80018d6:	2300      	movs	r3, #0
 80018d8:	e000      	b.n	80018dc <HAL_InitTick+0x4c>
 80018da:	2301      	movs	r3, #1
 80018dc:	4618      	mov	r0, r3
 80018de:	3708      	adds	r7, #8
 80018e0:	46bd      	mov	sp, r7
 80018e2:	bd80      	pop	{r7, pc}
 80018e4:	20000000 	.word	0x20000000
 80018e8:	200000ac 	.word	0x200000ac
 80018ec:	200000a8 	.word	0x200000a8

080018f0 <HAL_GetTick>:
 80018f0:	b480      	push	{r7}
 80018f2:	af00      	add	r7, sp, #0
 80018f4:	4b02      	ldr	r3, [pc, #8]	; (8001900 <HAL_GetTick+0x10>)
 80018f6:	681b      	ldr	r3, [r3, #0]
 80018f8:	4618      	mov	r0, r3
 80018fa:	46bd      	mov	sp, r7
 80018fc:	bc80      	pop	{r7}
 80018fe:	4770      	bx	lr
 8001900:	20001304 	.word	0x20001304

08001904 <__NVIC_SetPriorityGrouping>:
 8001904:	b480      	push	{r7}
 8001906:	b085      	sub	sp, #20
 8001908:	af00      	add	r7, sp, #0
 800190a:	6078      	str	r0, [r7, #4]
 800190c:	687b      	ldr	r3, [r7, #4]
 800190e:	f003 0307 	and.w	r3, r3, #7
 8001912:	60fb      	str	r3, [r7, #12]
 8001914:	4b0c      	ldr	r3, [pc, #48]	; (8001948 <__NVIC_SetPriorityGrouping+0x44>)
 8001916:	68db      	ldr	r3, [r3, #12]
 8001918:	60bb      	str	r3, [r7, #8]
 800191a:	68ba      	ldr	r2, [r7, #8]
 800191c:	f64f 03ff 	movw	r3, #63743	; 0xf8ff
 8001920:	4013      	ands	r3, r2
 8001922:	60bb      	str	r3, [r7, #8]
 8001924:	68fb      	ldr	r3, [r7, #12]
 8001926:	021a      	lsls	r2, r3, #8
 8001928:	68bb      	ldr	r3, [r7, #8]
 800192a:	4313      	orrs	r3, r2
 800192c:	f043 63bf 	orr.w	r3, r3, #100139008	; 0x5f80000
 8001930:	f443 3300 	orr.w	r3, r3, #131072	; 0x20000
 8001934:	60bb      	str	r3, [r7, #8]
 8001936:	4a04      	ldr	r2, [pc, #16]	; (8001948 <__NVIC_SetPriorityGrouping+0x44>)
 8001938:	68bb      	ldr	r3, [r7, #8]
 800193a:	60d3      	str	r3, [r2, #12]
 800193c:	bf00      	nop
 800193e:	3714      	adds	r7, #20
 8001940:	46bd      	mov	sp, r7
 8001942:	bc80      	pop	{r7}
 8001944:	4770      	bx	lr
 8001946:	bf00      	nop
 8001948:	e000ed00 	.word	0xe000ed00

0800194c <__NVIC_GetPriorityGrouping>:
 800194c:	b480      	push	{r7}
 800194e:	af00      	add	r7, sp, #0
 8001950:	4b04      	ldr	r3, [pc, #16]	; (8001964 <__NVIC_GetPriorityGrouping+0x18>)
 8001952:	68db      	ldr	r3, [r3, #12]
 8001954:	0a1b      	lsrs	r3, r3, #8
 8001956:	f003 0307 	and.w	r3, r3, #7
 800195a:	4618      	mov	r0, r3
 800195c:	46bd      	mov	sp, r7
 800195e:	bc80      	pop	{r7}
 8001960:	4770      	bx	lr
 8001962:	bf00      	nop
 8001964:	e000ed00 	.word	0xe000ed00

08001968 <__NVIC_EnableIRQ>:
 8001968:	b480      	push	{r7}
 800196a:	b083      	sub	sp, #12
 800196c:	af00      	add	r7, sp, #0
 800196e:	4603      	mov	r3, r0
 8001970:	71fb      	strb	r3, [r7, #7]
 8001972:	f997 3007 	ldrsb.w	r3, [r7, #7]
 8001976:	2b00      	cmp	r3, #0
 8001978:	db0b      	blt.n	8001992 <__NVIC_EnableIRQ+0x2a>
 800197a:	79fb      	ldrb	r3, [r7, #7]
 800197c:	f003 021f 	and.w	r2, r3, #31
 8001980:	4906      	ldr	r1, [pc, #24]	; (800199c <__NVIC_EnableIRQ+0x34>)
 8001982:	f997 3007 	ldrsb.w	r3, [r7, #7]
 8001986:	095b      	lsrs	r3, r3, #5
 8001988:	2001      	movs	r0, #1
 800198a:	fa00 f202 	lsl.w	r2, r0, r2
 800198e:	f841 2023 	str.w	r2, [r1, r3, lsl #2]
 8001992:	bf00      	nop
 8001994:	370c      	adds	r7, #12
 8001996:	46bd      	mov	sp, r7
 8001998:	bc80      	pop	{r7}
 800199a:	4770      	bx	lr
 800199c:	e000e100 	.word	0xe000e100

080019a0 <__NVIC_SetPriority>:
 80019a0:	b480      	push	{r7}
 80019a2:	b083      	sub	sp, #12
 80019a4:	af00      	add	r7, sp, #0
 80019a6:	4603      	mov	r3, r0
 80019a8:	6039      	str	r1, [r7, #0]
 80019aa:	71fb      	strb	r3, [r7, #7]
 80019ac:	f997 3007 	ldrsb.w	r3, [r7, #7]
 80019b0:	2b00      	cmp	r3, #0
 80019b2:	db0a      	blt.n	80019ca <__NVIC_SetPriority+0x2a>
 80019b4:	683b      	ldr	r3, [r7, #0]
 80019b6:	b2da      	uxtb	r2, r3
 80019b8:	490c      	ldr	r1, [pc, #48]	; (80019ec <__NVIC_SetPriority+0x4c>)
 80019ba:	f997 3007 	ldrsb.w	r3, [r7, #7]
 80019be:	0112      	lsls	r2, r2, #4
 80019c0:	b2d2      	uxtb	r2, r2
 80019c2:	440b      	add	r3, r1
 80019c4:	f883 2300 	strb.w	r2, [r3, #768]	; 0x300
 80019c8:	e00a      	b.n	80019e0 <__NVIC_SetPriority+0x40>
 80019ca:	683b      	ldr	r3, [r7, #0]
 80019cc:	b2da      	uxtb	r2, r3
 80019ce:	4908      	ldr	r1, [pc, #32]	; (80019f0 <__NVIC_SetPriority+0x50>)
 80019d0:	79fb      	ldrb	r3, [r7, #7]
 80019d2:	f003 030f 	and.w	r3, r3, #15
 80019d6:	3b04      	subs	r3, #4
 80019d8:	0112      	lsls	r2, r2, #4
 80019da:	b2d2      	uxtb	r2, r2
 80019dc:	440b      	add	r3, r1
 80019de:	761a      	strb	r2, [r3, #24]
 80019e0:	bf00      	nop
 80019e2:	370c      	adds	r7, #12
 80019e4:	46bd      	mov	sp, r7
 80019e6:	bc80      	pop	{r7}
 80019e8:	4770      	bx	lr
 80019ea:	bf00      	nop
 80019ec:	e000e100 	.word	0xe000e100
 80019f0:	e000ed00 	.word	0xe000ed00

080019f4 <NVIC_EncodePriority>:
 80019f4:	b480      	push	{r7}
 80019f6:	b089      	sub	sp, #36	; 0x24
 80019f8:	af00      	add	r7, sp, #0
 80019fa:	60f8      	str	r0, [r7, #12]
 80019fc:	60b9      	str	r1, [r7, #8]
 80019fe:	607a      	str	r2, [r7, #4]
 8001a00:	68fb      	ldr	r3, [r7, #12]
 8001a02:	f003 0307 	and.w	r3, r3, #7
 8001a06:	61fb      	str	r3, [r7, #28]
 8001a08:	69fb      	ldr	r3, [r7, #28]
 8001a0a:	f1c3 0307 	rsb	r3, r3, #7
 8001a0e:	2b04      	cmp	r3, #4
 8001a10:	bf28      	it	cs
 8001a12:	2304      	movcs	r3, #4
 8001a14:	61bb      	str	r3, [r7, #24]
 8001a16:	69fb      	ldr	r3, [r7, #28]
 8001a18:	3304      	adds	r3, #4
 8001a1a:	2b06      	cmp	r3, #6
 8001a1c:	d902      	bls.n	8001a24 <NVIC_EncodePriority+0x30>
 8001a1e:	69fb      	ldr	r3, [r7, #28]
 8001a20:	3b03      	subs	r3, #3
 8001a22:	e000      	b.n	8001a26 <NVIC_EncodePriority+0x32>
 8001a24:	2300      	movs	r3, #0
 8001a26:	617b      	str	r3, [r7, #20]
 8001a28:	f04f 32ff 	mov.w	r2, #4294967295	; 0xffffffff
 8001a2c:	69bb      	ldr	r3, [r7, #24]
 8001a2e:	fa02 f303 	lsl.w	r3, r2, r3
 8001a32:	43da      	mvns	r2, r3
 8001a34:	68bb      	ldr	r3, [r7, #8]
 8001a36:	401a      	ands	r2, r3
 8001a38:	697b      	ldr	r3, [r7, #20]
 8001a3a:	409a      	lsls	r2, r3
 8001a3c:	f04f 31ff 	mov.w	r1, #4294967295	; 0xffffffff
 8001a40:	697b      	ldr	r3, [r7, #20]
 8001a42:	fa01 f303 	lsl.w	r3, r1, r3
 8001a46:	43d9      	mvns	r1, r3
 8001a48:	687b      	ldr	r3, [r7, #4]
 8001a4a:	400b      	ands	r3, r1
 8001a4c:	4313      	orrs	r3, r2
 8001a4e:	4618      	mov	r0, r3
 8001a50:	3724      	adds	r7, #36	; 0x24
 8001a52:	46bd      	mov	sp, r7
 8001a54:	bc80      	pop	{r7}
 8001a56:	4770      	bx	lr

08001a58 <SysTick_Config>:
 8001a58:	b580      	push	{r7, lr}
 8001a5a:	b082      	sub	sp, #8
 8001a5c:	af00      	add	r7, sp, #0
 8001a5e:	6078      	str	r0, [r7, #4]
 8001a60:	687b      	ldr	r3, [r7, #4]
 8001a62:	3b01      	subs	r3, #1
 8001a64:	f1b3 7f80 	cmp.w	r3, #16777216	; 0x1000000
 8001a68:	d301      	bcc.n	8001a6e <SysTick_Config+0x16>
 8001a6a:	2301      	movs	r3, #1
 8001a6c:	e00f      	b.n	8001a8e <SysTick_Config+0x36>
 8001a6e:	4a0a      	ldr	r2, [pc, #40]	; (8001a98 <SysTick_Config+0x40>)
 8001a70:	687b      	ldr	r3, [r7, #4]
 8001a72:	3b01      	subs	r3, #1
 8001a74:	6053      	str	r3, [r2, #4]
 8001a76:	210f      	movs	r1, #15
 8001a78:	f04f 30ff 	mov.w	r0, #4294967295	; 0xffffffff
 8001a7c:	f7ff ff90 	bl	80019a0 <__NVIC_SetPriority>
 8001a80:	4b05      	ldr	r3, [pc, #20]	; (8001a98 <SysTick_Config+0x40>)
 8001a82:	2200      	movs	r2, #0
 8001a84:	609a      	str	r2, [r3, #8]
 8001a86:	4b04      	ldr	r3, [pc, #16]	; (8001a98 <SysTick_Config+0x40>)
 8001a88:	2207      	movs	r2, #7
 8001a8a:	601a      	str	r2, [r3, #0]
 8001a8c:	2300      	movs	r3, #0
 8001a8e:	4618      	mov	r0, r3
 8001a90:	3708      	adds	r7, #8
 8001a92:	46bd      	mov	sp, r7
 8001a94:	bd80      	pop	{r7, pc}
 8001a96:	bf00      	nop
 8001a98:	e000e010 	.word	0xe000e010

08001a9c <HAL_NVIC_SetPriorityGrouping>:
 8001a9c:	b580      	push	{r7, lr}
 8001a9e:	b082      	sub	sp, #8
 8001aa0:	af00      	add	r7, sp, #0
 8001aa2:	6078      	str	r0, [r7, #4]
 8001aa4:	6878      	ldr	r0, [r7, #4]
 8001aa6:	f7ff ff2d 	bl	8001904 <__NVIC_SetPriorityGrouping>
 8001aaa:	bf00      	nop
 8001aac:	3708      	adds	r7, #8
 8001aae:	46bd      	mov	sp, r7
 8001ab0:	bd80      	pop	{r7, pc}

08001ab2 <HAL_NVIC_SetPriority>:
 8001ab2:	b580      	push	{r7, lr}
 8001ab4:	b086      	sub	sp, #24
 8001ab6:	af00      	add	r7, sp, #0
 8001ab8:	4603      	mov	r3, r0
 8001aba:	60b9      	str	r1, [r7, #8]
 8001abc:	607a      	str	r2, [r7, #4]
 8001abe:	73fb      	strb	r3, [r7, #15]
 8001ac0:	2300      	movs	r3, #0
 8001ac2:	617b      	str	r3, [r7, #20]
 8001ac4:	f7ff ff42 	bl	800194c <__NVIC_GetPriorityGrouping>
 8001ac8:	6178      	str	r0, [r7, #20]
 8001aca:	687a      	ldr	r2, [r7, #4]
 8001acc:	68b9      	ldr	r1, [r7, #8]
 8001ace:	6978      	ldr	r0, [r7, #20]
 8001ad0:	f7ff ff90 	bl	80019f4 <NVIC_EncodePriority>
 8001ad4:	4602      	mov	r2, r0
 8001ad6:	f997 300f 	ldrsb.w	r3, [r7, #15]
 8001ada:	4611      	mov	r1, r2
 8001adc:	4618      	mov	r0, r3
 8001ade:	f7ff ff5f 	bl	80019a0 <__NVIC_SetPriority>
 8001ae2:	bf00      	nop
 8001ae4:	3718      	adds	r7, #24
 8001ae6:	46bd      	mov	sp, r7
 8001ae8:	bd80      	pop	{r7, pc}

08001aea <HAL_NVIC_EnableIRQ>:
 8001aea:	b580      	push	{r7, lr}
 8001aec:	b082      	sub	sp, #8
 8001aee:	af00      	add	r7, sp, #0
 8001af0:	4603      	mov	r3, r0
 8001af2:	71fb      	strb	r3, [r7, #7]
 8001af4:	f997 3007 	ldrsb.w	r3, [r7, #7]
 8001af8:	4618      	mov	r0, r3
 8001afa:	f7ff ff35 	bl	8001968 <__NVIC_EnableIRQ>
 8001afe:	bf00      	nop
 8001b00:	3708      	adds	r7, #8
 8001b02:	46bd      	mov	sp, r7
 8001b04:	bd80      	pop	{r7, pc}

08001b06 <HAL_SYSTICK_Config>:
 8001b06:	b580      	push	{r7, lr}
 8001b08:	b082      	sub	sp, #8
 8001b0a:	af00      	add	r7, sp, #0
 8001b0c:	6078      	str	r0, [r7, #4]
 8001b0e:	6878      	ldr	r0, [r7, #4]
 8001b10:	f7ff ffa2 	bl	8001a58 <SysTick_Config>
 8001b14:	4603      	mov	r3, r0
 8001b16:	4618      	mov	r0, r3
 8001b18:	3708      	adds	r7, #8
 8001b1a:	46bd      	mov	sp, r7
 8001b1c:	bd80      	pop	{r7, pc}

08001b1e <HAL_PCD_Init>:
 8001b1e:	b5f0      	push	{r4, r5, r6, r7, lr}
 8001b20:	b08b      	sub	sp, #44	; 0x2c
 8001b22:	af06      	add	r7, sp, #24
 8001b24:	6078      	str	r0, [r7, #4]
 8001b26:	687b      	ldr	r3, [r7, #4]
 8001b28:	2b00      	cmp	r3, #0
 8001b2a:	d101      	bne.n	8001b30 <HAL_PCD_Init+0x12>
 8001b2c:	2301      	movs	r3, #1
 8001b2e:	e0fd      	b.n	8001d2c <HAL_PCD_Init+0x20e>
 8001b30:	687b      	ldr	r3, [r7, #4]
 8001b32:	f893 32a9 	ldrb.w	r3, [r3, #681]	; 0x2a9
 8001b36:	b2db      	uxtb	r3, r3
 8001b38:	2b00      	cmp	r3, #0
 8001b3a:	d106      	bne.n	8001b4a <HAL_PCD_Init+0x2c>
 8001b3c:	687b      	ldr	r3, [r7, #4]
 8001b3e:	2200      	movs	r2, #0
 8001b40:	f883 22a8 	strb.w	r2, [r3, #680]	; 0x2a8
 8001b44:	6878      	ldr	r0, [r7, #4]
 8001b46:	f005 fd7d 	bl	8007644 <HAL_PCD_MspInit>
 8001b4a:	687b      	ldr	r3, [r7, #4]
 8001b4c:	2203      	movs	r2, #3
 8001b4e:	f883 22a9 	strb.w	r2, [r3, #681]	; 0x2a9
 8001b52:	687b      	ldr	r3, [r7, #4]
 8001b54:	681b      	ldr	r3, [r3, #0]
 8001b56:	4618      	mov	r0, r3
 8001b58:	f002 f954 	bl	8003e04 <USB_DisableGlobalInt>
 8001b5c:	687b      	ldr	r3, [r7, #4]
 8001b5e:	681b      	ldr	r3, [r3, #0]
 8001b60:	603b      	str	r3, [r7, #0]
 8001b62:	687e      	ldr	r6, [r7, #4]
 8001b64:	466d      	mov	r5, sp
 8001b66:	f106 0410 	add.w	r4, r6, #16
 8001b6a:	cc0f      	ldmia	r4!, {r0, r1, r2, r3}
 8001b6c:	c50f      	stmia	r5!, {r0, r1, r2, r3}
 8001b6e:	6823      	ldr	r3, [r4, #0]
 8001b70:	602b      	str	r3, [r5, #0]
 8001b72:	1d33      	adds	r3, r6, #4
 8001b74:	cb0e      	ldmia	r3, {r1, r2, r3}
 8001b76:	6838      	ldr	r0, [r7, #0]
 8001b78:	f002 f91e 	bl	8003db8 <USB_CoreInit>
 8001b7c:	4603      	mov	r3, r0
 8001b7e:	2b00      	cmp	r3, #0
 8001b80:	d005      	beq.n	8001b8e <HAL_PCD_Init+0x70>
 8001b82:	687b      	ldr	r3, [r7, #4]
 8001b84:	2202      	movs	r2, #2
 8001b86:	f883 22a9 	strb.w	r2, [r3, #681]	; 0x2a9
 8001b8a:	2301      	movs	r3, #1
 8001b8c:	e0ce      	b.n	8001d2c <HAL_PCD_Init+0x20e>
 8001b8e:	687b      	ldr	r3, [r7, #4]
 8001b90:	681b      	ldr	r3, [r3, #0]
 8001b92:	2100      	movs	r1, #0
 8001b94:	4618      	mov	r0, r3
 8001b96:	f002 f94f 	bl	8003e38 <USB_SetCurrentMode>
 8001b9a:	2300      	movs	r3, #0
 8001b9c:	73fb      	strb	r3, [r7, #15]
 8001b9e:	e04c      	b.n	8001c3a <HAL_PCD_Init+0x11c>
 8001ba0:	7bfb      	ldrb	r3, [r7, #15]
 8001ba2:	6879      	ldr	r1, [r7, #4]
 8001ba4:	1c5a      	adds	r2, r3, #1
 8001ba6:	4613      	mov	r3, r2
 8001ba8:	009b      	lsls	r3, r3, #2
 8001baa:	4413      	add	r3, r2
 8001bac:	00db      	lsls	r3, r3, #3
 8001bae:	440b      	add	r3, r1
 8001bb0:	3301      	adds	r3, #1
 8001bb2:	2201      	movs	r2, #1
 8001bb4:	701a      	strb	r2, [r3, #0]
 8001bb6:	7bfb      	ldrb	r3, [r7, #15]
 8001bb8:	6879      	ldr	r1, [r7, #4]
 8001bba:	1c5a      	adds	r2, r3, #1
 8001bbc:	4613      	mov	r3, r2
 8001bbe:	009b      	lsls	r3, r3, #2
 8001bc0:	4413      	add	r3, r2
 8001bc2:	00db      	lsls	r3, r3, #3
 8001bc4:	440b      	add	r3, r1
 8001bc6:	7bfa      	ldrb	r2, [r7, #15]
 8001bc8:	701a      	strb	r2, [r3, #0]
 8001bca:	7bfa      	ldrb	r2, [r7, #15]
 8001bcc:	7bfb      	ldrb	r3, [r7, #15]
 8001bce:	b298      	uxth	r0, r3
 8001bd0:	6879      	ldr	r1, [r7, #4]
 8001bd2:	4613      	mov	r3, r2
 8001bd4:	009b      	lsls	r3, r3, #2
 8001bd6:	4413      	add	r3, r2
 8001bd8:	00db      	lsls	r3, r3, #3
 8001bda:	440b      	add	r3, r1
 8001bdc:	3336      	adds	r3, #54	; 0x36
 8001bde:	4602      	mov	r2, r0
 8001be0:	801a      	strh	r2, [r3, #0]
 8001be2:	7bfb      	ldrb	r3, [r7, #15]
 8001be4:	6879      	ldr	r1, [r7, #4]
 8001be6:	1c5a      	adds	r2, r3, #1
 8001be8:	4613      	mov	r3, r2
 8001bea:	009b      	lsls	r3, r3, #2
 8001bec:	4413      	add	r3, r2
 8001bee:	00db      	lsls	r3, r3, #3
 8001bf0:	440b      	add	r3, r1
 8001bf2:	3303      	adds	r3, #3
 8001bf4:	2200      	movs	r2, #0
 8001bf6:	701a      	strb	r2, [r3, #0]
 8001bf8:	7bfa      	ldrb	r2, [r7, #15]
 8001bfa:	6879      	ldr	r1, [r7, #4]
 8001bfc:	4613      	mov	r3, r2
 8001bfe:	009b      	lsls	r3, r3, #2
 8001c00:	4413      	add	r3, r2
 8001c02:	00db      	lsls	r3, r3, #3
 8001c04:	440b      	add	r3, r1
 8001c06:	3338      	adds	r3, #56	; 0x38
 8001c08:	2200      	movs	r2, #0
 8001c0a:	601a      	str	r2, [r3, #0]
 8001c0c:	7bfa      	ldrb	r2, [r7, #15]
 8001c0e:	6879      	ldr	r1, [r7, #4]
 8001c10:	4613      	mov	r3, r2
 8001c12:	009b      	lsls	r3, r3, #2
 8001c14:	4413      	add	r3, r2
 8001c16:	00db      	lsls	r3, r3, #3
 8001c18:	440b      	add	r3, r1
 8001c1a:	333c      	adds	r3, #60	; 0x3c
 8001c1c:	2200      	movs	r2, #0
 8001c1e:	601a      	str	r2, [r3, #0]
 8001c20:	7bfa      	ldrb	r2, [r7, #15]
 8001c22:	6879      	ldr	r1, [r7, #4]
 8001c24:	4613      	mov	r3, r2
 8001c26:	009b      	lsls	r3, r3, #2
 8001c28:	4413      	add	r3, r2
 8001c2a:	00db      	lsls	r3, r3, #3
 8001c2c:	440b      	add	r3, r1
 8001c2e:	3340      	adds	r3, #64	; 0x40
 8001c30:	2200      	movs	r2, #0
 8001c32:	601a      	str	r2, [r3, #0]
 8001c34:	7bfb      	ldrb	r3, [r7, #15]
 8001c36:	3301      	adds	r3, #1
 8001c38:	73fb      	strb	r3, [r7, #15]
 8001c3a:	7bfa      	ldrb	r2, [r7, #15]
 8001c3c:	687b      	ldr	r3, [r7, #4]
 8001c3e:	685b      	ldr	r3, [r3, #4]
 8001c40:	429a      	cmp	r2, r3
 8001c42:	d3ad      	bcc.n	8001ba0 <HAL_PCD_Init+0x82>
 8001c44:	2300      	movs	r3, #0
 8001c46:	73fb      	strb	r3, [r7, #15]
 8001c48:	e044      	b.n	8001cd4 <HAL_PCD_Init+0x1b6>
 8001c4a:	7bfa      	ldrb	r2, [r7, #15]
 8001c4c:	6879      	ldr	r1, [r7, #4]
 8001c4e:	4613      	mov	r3, r2
 8001c50:	009b      	lsls	r3, r3, #2
 8001c52:	4413      	add	r3, r2
 8001c54:	00db      	lsls	r3, r3, #3
 8001c56:	440b      	add	r3, r1
 8001c58:	f203 1369 	addw	r3, r3, #361	; 0x169
 8001c5c:	2200      	movs	r2, #0
 8001c5e:	701a      	strb	r2, [r3, #0]
 8001c60:	7bfa      	ldrb	r2, [r7, #15]
 8001c62:	6879      	ldr	r1, [r7, #4]
 8001c64:	4613      	mov	r3, r2
 8001c66:	009b      	lsls	r3, r3, #2
 8001c68:	4413      	add	r3, r2
 8001c6a:	00db      	lsls	r3, r3, #3
 8001c6c:	440b      	add	r3, r1
 8001c6e:	f503 73b4 	add.w	r3, r3, #360	; 0x168
 8001c72:	7bfa      	ldrb	r2, [r7, #15]
 8001c74:	701a      	strb	r2, [r3, #0]
 8001c76:	7bfa      	ldrb	r2, [r7, #15]
 8001c78:	6879      	ldr	r1, [r7, #4]
 8001c7a:	4613      	mov	r3, r2
 8001c7c:	009b      	lsls	r3, r3, #2
 8001c7e:	4413      	add	r3, r2
 8001c80:	00db      	lsls	r3, r3, #3
 8001c82:	440b      	add	r3, r1
 8001c84:	f203 136b 	addw	r3, r3, #363	; 0x16b
 8001c88:	2200      	movs	r2, #0
 8001c8a:	701a      	strb	r2, [r3, #0]
 8001c8c:	7bfa      	ldrb	r2, [r7, #15]
 8001c8e:	6879      	ldr	r1, [r7, #4]
 8001c90:	4613      	mov	r3, r2
 8001c92:	009b      	lsls	r3, r3, #2
 8001c94:	4413      	add	r3, r2
 8001c96:	00db      	lsls	r3, r3, #3
 8001c98:	440b      	add	r3, r1
 8001c9a:	f503 73bc 	add.w	r3, r3, #376	; 0x178
 8001c9e:	2200      	movs	r2, #0
 8001ca0:	601a      	str	r2, [r3, #0]
 8001ca2:	7bfa      	ldrb	r2, [r7, #15]
 8001ca4:	6879      	ldr	r1, [r7, #4]
 8001ca6:	4613      	mov	r3, r2
 8001ca8:	009b      	lsls	r3, r3, #2
 8001caa:	4413      	add	r3, r2
 8001cac:	00db      	lsls	r3, r3, #3
 8001cae:	440b      	add	r3, r1
 8001cb0:	f503 73be 	add.w	r3, r3, #380	; 0x17c
 8001cb4:	2200      	movs	r2, #0
 8001cb6:	601a      	str	r2, [r3, #0]
 8001cb8:	7bfa      	ldrb	r2, [r7, #15]
 8001cba:	6879      	ldr	r1, [r7, #4]
 8001cbc:	4613      	mov	r3, r2
 8001cbe:	009b      	lsls	r3, r3, #2
 8001cc0:	4413      	add	r3, r2
 8001cc2:	00db      	lsls	r3, r3, #3
 8001cc4:	440b      	add	r3, r1
 8001cc6:	f503 73c0 	add.w	r3, r3, #384	; 0x180
 8001cca:	2200      	movs	r2, #0
 8001ccc:	601a      	str	r2, [r3, #0]
 8001cce:	7bfb      	ldrb	r3, [r7, #15]
 8001cd0:	3301      	adds	r3, #1
 8001cd2:	73fb      	strb	r3, [r7, #15]
 8001cd4:	7bfa      	ldrb	r2, [r7, #15]
 8001cd6:	687b      	ldr	r3, [r7, #4]
 8001cd8:	685b      	ldr	r3, [r3, #4]
 8001cda:	429a      	cmp	r2, r3
 8001cdc:	d3b5      	bcc.n	8001c4a <HAL_PCD_Init+0x12c>
 8001cde:	687b      	ldr	r3, [r7, #4]
 8001ce0:	681b      	ldr	r3, [r3, #0]
 8001ce2:	603b      	str	r3, [r7, #0]
 8001ce4:	687e      	ldr	r6, [r7, #4]
 8001ce6:	466d      	mov	r5, sp
 8001ce8:	f106 0410 	add.w	r4, r6, #16
 8001cec:	cc0f      	ldmia	r4!, {r0, r1, r2, r3}
 8001cee:	c50f      	stmia	r5!, {r0, r1, r2, r3}
 8001cf0:	6823      	ldr	r3, [r4, #0]
 8001cf2:	602b      	str	r3, [r5, #0]
 8001cf4:	1d33      	adds	r3, r6, #4
 8001cf6:	cb0e      	ldmia	r3, {r1, r2, r3}
 8001cf8:	6838      	ldr	r0, [r7, #0]
 8001cfa:	f002 f8a9 	bl	8003e50 <USB_DevInit>
 8001cfe:	4603      	mov	r3, r0
 8001d00:	2b00      	cmp	r3, #0
 8001d02:	d005      	beq.n	8001d10 <HAL_PCD_Init+0x1f2>
 8001d04:	687b      	ldr	r3, [r7, #4]
 8001d06:	2202      	movs	r2, #2
 8001d08:	f883 22a9 	strb.w	r2, [r3, #681]	; 0x2a9
 8001d0c:	2301      	movs	r3, #1
 8001d0e:	e00d      	b.n	8001d2c <HAL_PCD_Init+0x20e>
 8001d10:	687b      	ldr	r3, [r7, #4]
 8001d12:	2200      	movs	r2, #0
 8001d14:	f883 2024 	strb.w	r2, [r3, #36]	; 0x24
 8001d18:	687b      	ldr	r3, [r7, #4]
 8001d1a:	2201      	movs	r2, #1
 8001d1c:	f883 22a9 	strb.w	r2, [r3, #681]	; 0x2a9
 8001d20:	687b      	ldr	r3, [r7, #4]
 8001d22:	681b      	ldr	r3, [r3, #0]
 8001d24:	4618      	mov	r0, r3
 8001d26:	f004 fa1a 	bl	800615e <USB_DevDisconnect>
 8001d2a:	2300      	movs	r3, #0
 8001d2c:	4618      	mov	r0, r3
 8001d2e:	3714      	adds	r7, #20
 8001d30:	46bd      	mov	sp, r7
 8001d32:	bdf0      	pop	{r4, r5, r6, r7, pc}

08001d34 <HAL_PCD_Start>:
 8001d34:	b580      	push	{r7, lr}
 8001d36:	b082      	sub	sp, #8
 8001d38:	af00      	add	r7, sp, #0
 8001d3a:	6078      	str	r0, [r7, #4]
 8001d3c:	687b      	ldr	r3, [r7, #4]
 8001d3e:	f893 32a8 	ldrb.w	r3, [r3, #680]	; 0x2a8
 8001d42:	2b01      	cmp	r3, #1
 8001d44:	d101      	bne.n	8001d4a <HAL_PCD_Start+0x16>
 8001d46:	2302      	movs	r3, #2
 8001d48:	e016      	b.n	8001d78 <HAL_PCD_Start+0x44>
 8001d4a:	687b      	ldr	r3, [r7, #4]
 8001d4c:	2201      	movs	r2, #1
 8001d4e:	f883 22a8 	strb.w	r2, [r3, #680]	; 0x2a8
 8001d52:	687b      	ldr	r3, [r7, #4]
 8001d54:	681b      	ldr	r3, [r3, #0]
 8001d56:	4618      	mov	r0, r3
 8001d58:	f002 f83e 	bl	8003dd8 <USB_EnableGlobalInt>
 8001d5c:	2101      	movs	r1, #1
 8001d5e:	6878      	ldr	r0, [r7, #4]
 8001d60:	f005 febb 	bl	8007ada <HAL_PCDEx_SetConnectionState>
 8001d64:	687b      	ldr	r3, [r7, #4]
 8001d66:	681b      	ldr	r3, [r3, #0]
 8001d68:	4618      	mov	r0, r3
 8001d6a:	f004 f9ee 	bl	800614a <USB_DevConnect>
 8001d6e:	687b      	ldr	r3, [r7, #4]
 8001d70:	2200      	movs	r2, #0
 8001d72:	f883 22a8 	strb.w	r2, [r3, #680]	; 0x2a8
 8001d76:	2300      	movs	r3, #0
 8001d78:	4618      	mov	r0, r3
 8001d7a:	3708      	adds	r7, #8
 8001d7c:	46bd      	mov	sp, r7
 8001d7e:	bd80      	pop	{r7, pc}

08001d80 <HAL_PCD_IRQHandler>:
 8001d80:	b580      	push	{r7, lr}
 8001d82:	b088      	sub	sp, #32
 8001d84:	af00      	add	r7, sp, #0
 8001d86:	6078      	str	r0, [r7, #4]
 8001d88:	687b      	ldr	r3, [r7, #4]
 8001d8a:	681b      	ldr	r3, [r3, #0]
 8001d8c:	4618      	mov	r0, r3
 8001d8e:	f004 f9f0 	bl	8006172 <USB_ReadInterrupts>
 8001d92:	4603      	mov	r3, r0
 8001d94:	f403 4300 	and.w	r3, r3, #32768	; 0x8000
 8001d98:	f5b3 4f00 	cmp.w	r3, #32768	; 0x8000
 8001d9c:	d102      	bne.n	8001da4 <HAL_PCD_IRQHandler+0x24>
 8001d9e:	6878      	ldr	r0, [r7, #4]
 8001da0:	f000 fb4a 	bl	8002438 <PCD_EP_ISR_Handler>
 8001da4:	687b      	ldr	r3, [r7, #4]
 8001da6:	681b      	ldr	r3, [r3, #0]
 8001da8:	4618      	mov	r0, r3
 8001daa:	f004 f9e2 	bl	8006172 <USB_ReadInterrupts>
 8001dae:	4603      	mov	r3, r0
 8001db0:	f403 6380 	and.w	r3, r3, #1024	; 0x400
 8001db4:	f5b3 6f80 	cmp.w	r3, #1024	; 0x400
 8001db8:	d112      	bne.n	8001de0 <HAL_PCD_IRQHandler+0x60>
 8001dba:	687b      	ldr	r3, [r7, #4]
 8001dbc:	681b      	ldr	r3, [r3, #0]
 8001dbe:	f8b3 3044 	ldrh.w	r3, [r3, #68]	; 0x44
 8001dc2:	b29a      	uxth	r2, r3
 8001dc4:	687b      	ldr	r3, [r7, #4]
 8001dc6:	681b      	ldr	r3, [r3, #0]
 8001dc8:	f422 6280 	bic.w	r2, r2, #1024	; 0x400
 8001dcc:	b292      	uxth	r2, r2
 8001dce:	f8a3 2044 	strh.w	r2, [r3, #68]	; 0x44
 8001dd2:	6878      	ldr	r0, [r7, #4]
 8001dd4:	f005 fcb1 	bl	800773a <HAL_PCD_ResetCallback>
 8001dd8:	2100      	movs	r1, #0
 8001dda:	6878      	ldr	r0, [r7, #4]
 8001ddc:	f000 f925 	bl	800202a <HAL_PCD_SetAddress>
 8001de0:	687b      	ldr	r3, [r7, #4]
 8001de2:	681b      	ldr	r3, [r3, #0]
 8001de4:	4618      	mov	r0, r3
 8001de6:	f004 f9c4 	bl	8006172 <USB_ReadInterrupts>
 8001dea:	4603      	mov	r3, r0
 8001dec:	f403 4380 	and.w	r3, r3, #16384	; 0x4000
 8001df0:	f5b3 4f80 	cmp.w	r3, #16384	; 0x4000
 8001df4:	d10b      	bne.n	8001e0e <HAL_PCD_IRQHandler+0x8e>
 8001df6:	687b      	ldr	r3, [r7, #4]
 8001df8:	681b      	ldr	r3, [r3, #0]
 8001dfa:	f8b3 3044 	ldrh.w	r3, [r3, #68]	; 0x44
 8001dfe:	b29a      	uxth	r2, r3
 8001e00:	687b      	ldr	r3, [r7, #4]
 8001e02:	681b      	ldr	r3, [r3, #0]
 8001e04:	f422 4280 	bic.w	r2, r2, #16384	; 0x4000
 8001e08:	b292      	uxth	r2, r2
 8001e0a:	f8a3 2044 	strh.w	r2, [r3, #68]	; 0x44
 8001e0e:	687b      	ldr	r3, [r7, #4]
 8001e10:	681b      	ldr	r3, [r3, #0]
 8001e12:	4618      	mov	r0, r3
 8001e14:	f004 f9ad 	bl	8006172 <USB_ReadInterrupts>
 8001e18:	4603      	mov	r3, r0
 8001e1a:	f403 5300 	and.w	r3, r3, #8192	; 0x2000
 8001e1e:	f5b3 5f00 	cmp.w	r3, #8192	; 0x2000
 8001e22:	d10b      	bne.n	8001e3c <HAL_PCD_IRQHandler+0xbc>
 8001e24:	687b      	ldr	r3, [r7, #4]
 8001e26:	681b      	ldr	r3, [r3, #0]
 8001e28:	f8b3 3044 	ldrh.w	r3, [r3, #68]	; 0x44
 8001e2c:	b29a      	uxth	r2, r3
 8001e2e:	687b      	ldr	r3, [r7, #4]
 8001e30:	681b      	ldr	r3, [r3, #0]
 8001e32:	f422 5200 	bic.w	r2, r2, #8192	; 0x2000
 8001e36:	b292      	uxth	r2, r2
 8001e38:	f8a3 2044 	strh.w	r2, [r3, #68]	; 0x44
 8001e3c:	687b      	ldr	r3, [r7, #4]
 8001e3e:	681b      	ldr	r3, [r3, #0]
 8001e40:	4618      	mov	r0, r3
 8001e42:	f004 f996 	bl	8006172 <USB_ReadInterrupts>
 8001e46:	4603      	mov	r3, r0
 8001e48:	f403 5380 	and.w	r3, r3, #4096	; 0x1000
 8001e4c:	f5b3 5f80 	cmp.w	r3, #4096	; 0x1000
 8001e50:	d126      	bne.n	8001ea0 <HAL_PCD_IRQHandler+0x120>
 8001e52:	687b      	ldr	r3, [r7, #4]
 8001e54:	681b      	ldr	r3, [r3, #0]
 8001e56:	f8b3 3040 	ldrh.w	r3, [r3, #64]	; 0x40
 8001e5a:	b29a      	uxth	r2, r3
 8001e5c:	687b      	ldr	r3, [r7, #4]
 8001e5e:	681b      	ldr	r3, [r3, #0]
 8001e60:	f022 0204 	bic.w	r2, r2, #4
 8001e64:	b292      	uxth	r2, r2
 8001e66:	f8a3 2040 	strh.w	r2, [r3, #64]	; 0x40
 8001e6a:	687b      	ldr	r3, [r7, #4]
 8001e6c:	681b      	ldr	r3, [r3, #0]
 8001e6e:	f8b3 3040 	ldrh.w	r3, [r3, #64]	; 0x40
 8001e72:	b29a      	uxth	r2, r3
 8001e74:	687b      	ldr	r3, [r7, #4]
 8001e76:	681b      	ldr	r3, [r3, #0]
 8001e78:	f022 0208 	bic.w	r2, r2, #8
 8001e7c:	b292      	uxth	r2, r2
 8001e7e:	f8a3 2040 	strh.w	r2, [r3, #64]	; 0x40
 8001e82:	6878      	ldr	r0, [r7, #4]
 8001e84:	f005 fc92 	bl	80077ac <HAL_PCD_ResumeCallback>
 8001e88:	687b      	ldr	r3, [r7, #4]
 8001e8a:	681b      	ldr	r3, [r3, #0]
 8001e8c:	f8b3 3044 	ldrh.w	r3, [r3, #68]	; 0x44
 8001e90:	b29a      	uxth	r2, r3
 8001e92:	687b      	ldr	r3, [r7, #4]
 8001e94:	681b      	ldr	r3, [r3, #0]
 8001e96:	f422 5280 	bic.w	r2, r2, #4096	; 0x1000
 8001e9a:	b292      	uxth	r2, r2
 8001e9c:	f8a3 2044 	strh.w	r2, [r3, #68]	; 0x44
 8001ea0:	687b      	ldr	r3, [r7, #4]
 8001ea2:	681b      	ldr	r3, [r3, #0]
 8001ea4:	4618      	mov	r0, r3
 8001ea6:	f004 f964 	bl	8006172 <USB_ReadInterrupts>
 8001eaa:	4603      	mov	r3, r0
 8001eac:	f403 6300 	and.w	r3, r3, #2048	; 0x800
 8001eb0:	f5b3 6f00 	cmp.w	r3, #2048	; 0x800
 8001eb4:	f040 8084 	bne.w	8001fc0 <HAL_PCD_IRQHandler+0x240>
 8001eb8:	2300      	movs	r3, #0
 8001eba:	77fb      	strb	r3, [r7, #31]
 8001ebc:	e011      	b.n	8001ee2 <HAL_PCD_IRQHandler+0x162>
 8001ebe:	687b      	ldr	r3, [r7, #4]
 8001ec0:	681b      	ldr	r3, [r3, #0]
 8001ec2:	461a      	mov	r2, r3
 8001ec4:	7ffb      	ldrb	r3, [r7, #31]
 8001ec6:	009b      	lsls	r3, r3, #2
 8001ec8:	441a      	add	r2, r3
 8001eca:	7ffb      	ldrb	r3, [r7, #31]
 8001ecc:	8812      	ldrh	r2, [r2, #0]
 8001ece:	b292      	uxth	r2, r2
 8001ed0:	005b      	lsls	r3, r3, #1
 8001ed2:	f107 0120 	add.w	r1, r7, #32
 8001ed6:	440b      	add	r3, r1
 8001ed8:	f823 2c14 	strh.w	r2, [r3, #-20]
 8001edc:	7ffb      	ldrb	r3, [r7, #31]
 8001ede:	3301      	adds	r3, #1
 8001ee0:	77fb      	strb	r3, [r7, #31]
 8001ee2:	7ffb      	ldrb	r3, [r7, #31]
 8001ee4:	2b07      	cmp	r3, #7
 8001ee6:	d9ea      	bls.n	8001ebe <HAL_PCD_IRQHandler+0x13e>
 8001ee8:	687b      	ldr	r3, [r7, #4]
 8001eea:	681b      	ldr	r3, [r3, #0]
 8001eec:	f8b3 3040 	ldrh.w	r3, [r3, #64]	; 0x40
 8001ef0:	b29a      	uxth	r2, r3
 8001ef2:	687b      	ldr	r3, [r7, #4]
 8001ef4:	681b      	ldr	r3, [r3, #0]
 8001ef6:	f042 0201 	orr.w	r2, r2, #1
 8001efa:	b292      	uxth	r2, r2
 8001efc:	f8a3 2040 	strh.w	r2, [r3, #64]	; 0x40
 8001f00:	687b      	ldr	r3, [r7, #4]
 8001f02:	681b      	ldr	r3, [r3, #0]
 8001f04:	f8b3 3040 	ldrh.w	r3, [r3, #64]	; 0x40
 8001f08:	b29a      	uxth	r2, r3
 8001f0a:	687b      	ldr	r3, [r7, #4]
 8001f0c:	681b      	ldr	r3, [r3, #0]
 8001f0e:	f022 0201 	bic.w	r2, r2, #1
 8001f12:	b292      	uxth	r2, r2
 8001f14:	f8a3 2040 	strh.w	r2, [r3, #64]	; 0x40
 8001f18:	bf00      	nop
 8001f1a:	687b      	ldr	r3, [r7, #4]
 8001f1c:	681b      	ldr	r3, [r3, #0]
 8001f1e:	f8b3 3044 	ldrh.w	r3, [r3, #68]	; 0x44
 8001f22:	b29b      	uxth	r3, r3
 8001f24:	f403 6380 	and.w	r3, r3, #1024	; 0x400
 8001f28:	2b00      	cmp	r3, #0
 8001f2a:	d0f6      	beq.n	8001f1a <HAL_PCD_IRQHandler+0x19a>
 8001f2c:	687b      	ldr	r3, [r7, #4]
 8001f2e:	681b      	ldr	r3, [r3, #0]
 8001f30:	f8b3 3044 	ldrh.w	r3, [r3, #68]	; 0x44
 8001f34:	b29a      	uxth	r2, r3
 8001f36:	687b      	ldr	r3, [r7, #4]
 8001f38:	681b      	ldr	r3, [r3, #0]
 8001f3a:	f422 6280 	bic.w	r2, r2, #1024	; 0x400
 8001f3e:	b292      	uxth	r2, r2
 8001f40:	f8a3 2044 	strh.w	r2, [r3, #68]	; 0x44
 8001f44:	2300      	movs	r3, #0
 8001f46:	77fb      	strb	r3, [r7, #31]
 8001f48:	e010      	b.n	8001f6c <HAL_PCD_IRQHandler+0x1ec>
 8001f4a:	7ffb      	ldrb	r3, [r7, #31]
 8001f4c:	687a      	ldr	r2, [r7, #4]
 8001f4e:	6812      	ldr	r2, [r2, #0]
 8001f50:	4611      	mov	r1, r2
 8001f52:	7ffa      	ldrb	r2, [r7, #31]
 8001f54:	0092      	lsls	r2, r2, #2
 8001f56:	440a      	add	r2, r1
 8001f58:	005b      	lsls	r3, r3, #1
 8001f5a:	f107 0120 	add.w	r1, r7, #32
 8001f5e:	440b      	add	r3, r1
 8001f60:	f833 3c14 	ldrh.w	r3, [r3, #-20]
 8001f64:	8013      	strh	r3, [r2, #0]
 8001f66:	7ffb      	ldrb	r3, [r7, #31]
 8001f68:	3301      	adds	r3, #1
 8001f6a:	77fb      	strb	r3, [r7, #31]
 8001f6c:	7ffb      	ldrb	r3, [r7, #31]
 8001f6e:	2b07      	cmp	r3, #7
 8001f70:	d9eb      	bls.n	8001f4a <HAL_PCD_IRQHandler+0x1ca>
 8001f72:	687b      	ldr	r3, [r7, #4]
 8001f74:	681b      	ldr	r3, [r3, #0]
 8001f76:	f8b3 3040 	ldrh.w	r3, [r3, #64]	; 0x40
 8001f7a:	b29a      	uxth	r2, r3
 8001f7c:	687b      	ldr	r3, [r7, #4]
 8001f7e:	681b      	ldr	r3, [r3, #0]
 8001f80:	f042 0208 	orr.w	r2, r2, #8
 8001f84:	b292      	uxth	r2, r2
 8001f86:	f8a3 2040 	strh.w	r2, [r3, #64]	; 0x40
 8001f8a:	687b      	ldr	r3, [r7, #4]
 8001f8c:	681b      	ldr	r3, [r3, #0]
 8001f8e:	f8b3 3044 	ldrh.w	r3, [r3, #68]	; 0x44
 8001f92:	b29a      	uxth	r2, r3
 8001f94:	687b      	ldr	r3, [r7, #4]
 8001f96:	681b      	ldr	r3, [r3, #0]
 8001f98:	f422 6200 	bic.w	r2, r2, #2048	; 0x800
 8001f9c:	b292      	uxth	r2, r2
 8001f9e:	f8a3 2044 	strh.w	r2, [r3, #68]	; 0x44
 8001fa2:	687b      	ldr	r3, [r7, #4]
 8001fa4:	681b      	ldr	r3, [r3, #0]
 8001fa6:	f8b3 3040 	ldrh.w	r3, [r3, #64]	; 0x40
 8001faa:	b29a      	uxth	r2, r3
 8001fac:	687b      	ldr	r3, [r7, #4]
 8001fae:	681b      	ldr	r3, [r3, #0]
 8001fb0:	f042 0204 	orr.w	r2, r2, #4
 8001fb4:	b292      	uxth	r2, r2
 8001fb6:	f8a3 2040 	strh.w	r2, [r3, #64]	; 0x40
 8001fba:	6878      	ldr	r0, [r7, #4]
 8001fbc:	f005 fbdc 	bl	8007778 <HAL_PCD_SuspendCallback>
 8001fc0:	687b      	ldr	r3, [r7, #4]
 8001fc2:	681b      	ldr	r3, [r3, #0]
 8001fc4:	4618      	mov	r0, r3
 8001fc6:	f004 f8d4 	bl	8006172 <USB_ReadInterrupts>
 8001fca:	4603      	mov	r3, r0
 8001fcc:	f403 7300 	and.w	r3, r3, #512	; 0x200
 8001fd0:	f5b3 7f00 	cmp.w	r3, #512	; 0x200
 8001fd4:	d10e      	bne.n	8001ff4 <HAL_PCD_IRQHandler+0x274>
 8001fd6:	687b      	ldr	r3, [r7, #4]
 8001fd8:	681b      	ldr	r3, [r3, #0]
 8001fda:	f8b3 3044 	ldrh.w	r3, [r3, #68]	; 0x44
 8001fde:	b29a      	uxth	r2, r3
 8001fe0:	687b      	ldr	r3, [r7, #4]
 8001fe2:	681b      	ldr	r3, [r3, #0]
 8001fe4:	f422 7200 	bic.w	r2, r2, #512	; 0x200
 8001fe8:	b292      	uxth	r2, r2
 8001fea:	f8a3 2044 	strh.w	r2, [r3, #68]	; 0x44
 8001fee:	6878      	ldr	r0, [r7, #4]
 8001ff0:	f005 fb95 	bl	800771e <HAL_PCD_SOFCallback>
 8001ff4:	687b      	ldr	r3, [r7, #4]
 8001ff6:	681b      	ldr	r3, [r3, #0]
 8001ff8:	4618      	mov	r0, r3
 8001ffa:	f004 f8ba 	bl	8006172 <USB_ReadInterrupts>
 8001ffe:	4603      	mov	r3, r0
 8002000:	f403 7380 	and.w	r3, r3, #256	; 0x100
 8002004:	f5b3 7f80 	cmp.w	r3, #256	; 0x100
 8002008:	d10b      	bne.n	8002022 <HAL_PCD_IRQHandler+0x2a2>
 800200a:	687b      	ldr	r3, [r7, #4]
 800200c:	681b      	ldr	r3, [r3, #0]
 800200e:	f8b3 3044 	ldrh.w	r3, [r3, #68]	; 0x44
 8002012:	b29a      	uxth	r2, r3
 8002014:	687b      	ldr	r3, [r7, #4]
 8002016:	681b      	ldr	r3, [r3, #0]
 8002018:	f422 7280 	bic.w	r2, r2, #256	; 0x100
 800201c:	b292      	uxth	r2, r2
 800201e:	f8a3 2044 	strh.w	r2, [r3, #68]	; 0x44
 8002022:	bf00      	nop
 8002024:	3720      	adds	r7, #32
 8002026:	46bd      	mov	sp, r7
 8002028:	bd80      	pop	{r7, pc}

0800202a <HAL_PCD_SetAddress>:
 800202a:	b580      	push	{r7, lr}
 800202c:	b082      	sub	sp, #8
 800202e:	af00      	add	r7, sp, #0
 8002030:	6078      	str	r0, [r7, #4]
 8002032:	460b      	mov	r3, r1
 8002034:	70fb      	strb	r3, [r7, #3]
 8002036:	687b      	ldr	r3, [r7, #4]
 8002038:	f893 32a8 	ldrb.w	r3, [r3, #680]	; 0x2a8
 800203c:	2b01      	cmp	r3, #1
 800203e:	d101      	bne.n	8002044 <HAL_PCD_SetAddress+0x1a>
 8002040:	2302      	movs	r3, #2
 8002042:	e013      	b.n	800206c <HAL_PCD_SetAddress+0x42>
 8002044:	687b      	ldr	r3, [r7, #4]
 8002046:	2201      	movs	r2, #1
 8002048:	f883 22a8 	strb.w	r2, [r3, #680]	; 0x2a8
 800204c:	687b      	ldr	r3, [r7, #4]
 800204e:	78fa      	ldrb	r2, [r7, #3]
 8002050:	f883 2024 	strb.w	r2, [r3, #36]	; 0x24
 8002054:	687b      	ldr	r3, [r7, #4]
 8002056:	681b      	ldr	r3, [r3, #0]
 8002058:	78fa      	ldrb	r2, [r7, #3]
 800205a:	4611      	mov	r1, r2
 800205c:	4618      	mov	r0, r3
 800205e:	f004 f861 	bl	8006124 <USB_SetDevAddress>
 8002062:	687b      	ldr	r3, [r7, #4]
 8002064:	2200      	movs	r2, #0
 8002066:	f883 22a8 	strb.w	r2, [r3, #680]	; 0x2a8
 800206a:	2300      	movs	r3, #0
 800206c:	4618      	mov	r0, r3
 800206e:	3708      	adds	r7, #8
 8002070:	46bd      	mov	sp, r7
 8002072:	bd80      	pop	{r7, pc}

08002074 <HAL_PCD_EP_Open>:
 8002074:	b580      	push	{r7, lr}
 8002076:	b084      	sub	sp, #16
 8002078:	af00      	add	r7, sp, #0
 800207a:	6078      	str	r0, [r7, #4]
 800207c:	4608      	mov	r0, r1
 800207e:	4611      	mov	r1, r2
 8002080:	461a      	mov	r2, r3
 8002082:	4603      	mov	r3, r0
 8002084:	70fb      	strb	r3, [r7, #3]
 8002086:	460b      	mov	r3, r1
 8002088:	803b      	strh	r3, [r7, #0]
 800208a:	4613      	mov	r3, r2
 800208c:	70bb      	strb	r3, [r7, #2]
 800208e:	2300      	movs	r3, #0
 8002090:	72fb      	strb	r3, [r7, #11]
 8002092:	f997 3003 	ldrsb.w	r3, [r7, #3]
 8002096:	2b00      	cmp	r3, #0
 8002098:	da0e      	bge.n	80020b8 <HAL_PCD_EP_Open+0x44>
 800209a:	78fb      	ldrb	r3, [r7, #3]
 800209c:	f003 0307 	and.w	r3, r3, #7
 80020a0:	1c5a      	adds	r2, r3, #1
 80020a2:	4613      	mov	r3, r2
 80020a4:	009b      	lsls	r3, r3, #2
 80020a6:	4413      	add	r3, r2
 80020a8:	00db      	lsls	r3, r3, #3
 80020aa:	687a      	ldr	r2, [r7, #4]
 80020ac:	4413      	add	r3, r2
 80020ae:	60fb      	str	r3, [r7, #12]
 80020b0:	68fb      	ldr	r3, [r7, #12]
 80020b2:	2201      	movs	r2, #1
 80020b4:	705a      	strb	r2, [r3, #1]
 80020b6:	e00e      	b.n	80020d6 <HAL_PCD_EP_Open+0x62>
 80020b8:	78fb      	ldrb	r3, [r7, #3]
 80020ba:	f003 0207 	and.w	r2, r3, #7
 80020be:	4613      	mov	r3, r2
 80020c0:	009b      	lsls	r3, r3, #2
 80020c2:	4413      	add	r3, r2
 80020c4:	00db      	lsls	r3, r3, #3
 80020c6:	f503 73b4 	add.w	r3, r3, #360	; 0x168
 80020ca:	687a      	ldr	r2, [r7, #4]
 80020cc:	4413      	add	r3, r2
 80020ce:	60fb      	str	r3, [r7, #12]
 80020d0:	68fb      	ldr	r3, [r7, #12]
 80020d2:	2200      	movs	r2, #0
 80020d4:	705a      	strb	r2, [r3, #1]
 80020d6:	78fb      	ldrb	r3, [r7, #3]
 80020d8:	f003 0307 	and.w	r3, r3, #7
 80020dc:	b2da      	uxtb	r2, r3
 80020de:	68fb      	ldr	r3, [r7, #12]
 80020e0:	701a      	strb	r2, [r3, #0]
 80020e2:	883a      	ldrh	r2, [r7, #0]
 80020e4:	68fb      	ldr	r3, [r7, #12]
 80020e6:	611a      	str	r2, [r3, #16]
 80020e8:	68fb      	ldr	r3, [r7, #12]
 80020ea:	78ba      	ldrb	r2, [r7, #2]
 80020ec:	70da      	strb	r2, [r3, #3]
 80020ee:	68fb      	ldr	r3, [r7, #12]
 80020f0:	785b      	ldrb	r3, [r3, #1]
 80020f2:	2b00      	cmp	r3, #0
 80020f4:	d004      	beq.n	8002100 <HAL_PCD_EP_Open+0x8c>
 80020f6:	68fb      	ldr	r3, [r7, #12]
 80020f8:	781b      	ldrb	r3, [r3, #0]
 80020fa:	b29a      	uxth	r2, r3
 80020fc:	68fb      	ldr	r3, [r7, #12]
 80020fe:	81da      	strh	r2, [r3, #14]
 8002100:	78bb      	ldrb	r3, [r7, #2]
 8002102:	2b02      	cmp	r3, #2
 8002104:	d102      	bne.n	800210c <HAL_PCD_EP_Open+0x98>
 8002106:	68fb      	ldr	r3, [r7, #12]
 8002108:	2200      	movs	r2, #0
 800210a:	711a      	strb	r2, [r3, #4]
 800210c:	687b      	ldr	r3, [r7, #4]
 800210e:	f893 32a8 	ldrb.w	r3, [r3, #680]	; 0x2a8
 8002112:	2b01      	cmp	r3, #1
 8002114:	d101      	bne.n	800211a <HAL_PCD_EP_Open+0xa6>
 8002116:	2302      	movs	r3, #2
 8002118:	e00e      	b.n	8002138 <HAL_PCD_EP_Open+0xc4>
 800211a:	687b      	ldr	r3, [r7, #4]
 800211c:	2201      	movs	r2, #1
 800211e:	f883 22a8 	strb.w	r2, [r3, #680]	; 0x2a8
 8002122:	687b      	ldr	r3, [r7, #4]
 8002124:	681b      	ldr	r3, [r3, #0]
 8002126:	68f9      	ldr	r1, [r7, #12]
 8002128:	4618      	mov	r0, r3
 800212a:	f001 feb1 	bl	8003e90 <USB_ActivateEndpoint>
 800212e:	687b      	ldr	r3, [r7, #4]
 8002130:	2200      	movs	r2, #0
 8002132:	f883 22a8 	strb.w	r2, [r3, #680]	; 0x2a8
 8002136:	7afb      	ldrb	r3, [r7, #11]
 8002138:	4618      	mov	r0, r3
 800213a:	3710      	adds	r7, #16
 800213c:	46bd      	mov	sp, r7
 800213e:	bd80      	pop	{r7, pc}

08002140 <HAL_PCD_EP_Close>:
 8002140:	b580      	push	{r7, lr}
 8002142:	b084      	sub	sp, #16
 8002144:	af00      	add	r7, sp, #0
 8002146:	6078      	str	r0, [r7, #4]
 8002148:	460b      	mov	r3, r1
 800214a:	70fb      	strb	r3, [r7, #3]
 800214c:	f997 3003 	ldrsb.w	r3, [r7, #3]
 8002150:	2b00      	cmp	r3, #0
 8002152:	da0e      	bge.n	8002172 <HAL_PCD_EP_Close+0x32>
 8002154:	78fb      	ldrb	r3, [r7, #3]
 8002156:	f003 0307 	and.w	r3, r3, #7
 800215a:	1c5a      	adds	r2, r3, #1
 800215c:	4613      	mov	r3, r2
 800215e:	009b      	lsls	r3, r3, #2
 8002160:	4413      	add	r3, r2
 8002162:	00db      	lsls	r3, r3, #3
 8002164:	687a      	ldr	r2, [r7, #4]
 8002166:	4413      	add	r3, r2
 8002168:	60fb      	str	r3, [r7, #12]
 800216a:	68fb      	ldr	r3, [r7, #12]
 800216c:	2201      	movs	r2, #1
 800216e:	705a      	strb	r2, [r3, #1]
 8002170:	e00e      	b.n	8002190 <HAL_PCD_EP_Close+0x50>
 8002172:	78fb      	ldrb	r3, [r7, #3]
 8002174:	f003 0207 	and.w	r2, r3, #7
 8002178:	4613      	mov	r3, r2
 800217a:	009b      	lsls	r3, r3, #2
 800217c:	4413      	add	r3, r2
 800217e:	00db      	lsls	r3, r3, #3
 8002180:	f503 73b4 	add.w	r3, r3, #360	; 0x168
 8002184:	687a      	ldr	r2, [r7, #4]
 8002186:	4413      	add	r3, r2
 8002188:	60fb      	str	r3, [r7, #12]
 800218a:	68fb      	ldr	r3, [r7, #12]
 800218c:	2200      	movs	r2, #0
 800218e:	705a      	strb	r2, [r3, #1]
 8002190:	78fb      	ldrb	r3, [r7, #3]
 8002192:	f003 0307 	and.w	r3, r3, #7
 8002196:	b2da      	uxtb	r2, r3
 8002198:	68fb      	ldr	r3, [r7, #12]
 800219a:	701a      	strb	r2, [r3, #0]
 800219c:	687b      	ldr	r3, [r7, #4]
 800219e:	f893 32a8 	ldrb.w	r3, [r3, #680]	; 0x2a8
 80021a2:	2b01      	cmp	r3, #1
 80021a4:	d101      	bne.n	80021aa <HAL_PCD_EP_Close+0x6a>
 80021a6:	2302      	movs	r3, #2
 80021a8:	e00e      	b.n	80021c8 <HAL_PCD_EP_Close+0x88>
 80021aa:	687b      	ldr	r3, [r7, #4]
 80021ac:	2201      	movs	r2, #1
 80021ae:	f883 22a8 	strb.w	r2, [r3, #680]	; 0x2a8
 80021b2:	687b      	ldr	r3, [r7, #4]
 80021b4:	681b      	ldr	r3, [r3, #0]
 80021b6:	68f9      	ldr	r1, [r7, #12]
 80021b8:	4618      	mov	r0, r3
 80021ba:	f002 f9d3 	bl	8004564 <USB_DeactivateEndpoint>
 80021be:	687b      	ldr	r3, [r7, #4]
 80021c0:	2200      	movs	r2, #0
 80021c2:	f883 22a8 	strb.w	r2, [r3, #680]	; 0x2a8
 80021c6:	2300      	movs	r3, #0
 80021c8:	4618      	mov	r0, r3
 80021ca:	3710      	adds	r7, #16
 80021cc:	46bd      	mov	sp, r7
 80021ce:	bd80      	pop	{r7, pc}

080021d0 <HAL_PCD_EP_Receive>:
 80021d0:	b580      	push	{r7, lr}
 80021d2:	b086      	sub	sp, #24
 80021d4:	af00      	add	r7, sp, #0
 80021d6:	60f8      	str	r0, [r7, #12]
 80021d8:	607a      	str	r2, [r7, #4]
 80021da:	603b      	str	r3, [r7, #0]
 80021dc:	460b      	mov	r3, r1
 80021de:	72fb      	strb	r3, [r7, #11]
 80021e0:	7afb      	ldrb	r3, [r7, #11]
 80021e2:	f003 0207 	and.w	r2, r3, #7
 80021e6:	4613      	mov	r3, r2
 80021e8:	009b      	lsls	r3, r3, #2
 80021ea:	4413      	add	r3, r2
 80021ec:	00db      	lsls	r3, r3, #3
 80021ee:	f503 73b4 	add.w	r3, r3, #360	; 0x168
 80021f2:	68fa      	ldr	r2, [r7, #12]
 80021f4:	4413      	add	r3, r2
 80021f6:	617b      	str	r3, [r7, #20]
 80021f8:	697b      	ldr	r3, [r7, #20]
 80021fa:	687a      	ldr	r2, [r7, #4]
 80021fc:	615a      	str	r2, [r3, #20]
 80021fe:	697b      	ldr	r3, [r7, #20]
 8002200:	683a      	ldr	r2, [r7, #0]
 8002202:	619a      	str	r2, [r3, #24]
 8002204:	697b      	ldr	r3, [r7, #20]
 8002206:	2200      	movs	r2, #0
 8002208:	61da      	str	r2, [r3, #28]
 800220a:	697b      	ldr	r3, [r7, #20]
 800220c:	2200      	movs	r2, #0
 800220e:	705a      	strb	r2, [r3, #1]
 8002210:	7afb      	ldrb	r3, [r7, #11]
 8002212:	f003 0307 	and.w	r3, r3, #7
 8002216:	b2da      	uxtb	r2, r3
 8002218:	697b      	ldr	r3, [r7, #20]
 800221a:	701a      	strb	r2, [r3, #0]
 800221c:	7afb      	ldrb	r3, [r7, #11]
 800221e:	f003 0307 	and.w	r3, r3, #7
 8002222:	2b00      	cmp	r3, #0
 8002224:	d106      	bne.n	8002234 <HAL_PCD_EP_Receive+0x64>
 8002226:	68fb      	ldr	r3, [r7, #12]
 8002228:	681b      	ldr	r3, [r3, #0]
 800222a:	6979      	ldr	r1, [r7, #20]
 800222c:	4618      	mov	r0, r3
 800222e:	f002 fb85 	bl	800493c <USB_EPStartXfer>
 8002232:	e005      	b.n	8002240 <HAL_PCD_EP_Receive+0x70>
 8002234:	68fb      	ldr	r3, [r7, #12]
 8002236:	681b      	ldr	r3, [r3, #0]
 8002238:	6979      	ldr	r1, [r7, #20]
 800223a:	4618      	mov	r0, r3
 800223c:	f002 fb7e 	bl	800493c <USB_EPStartXfer>
 8002240:	2300      	movs	r3, #0
 8002242:	4618      	mov	r0, r3
 8002244:	3718      	adds	r7, #24
 8002246:	46bd      	mov	sp, r7
 8002248:	bd80      	pop	{r7, pc}

0800224a <HAL_PCD_EP_Transmit>:
 800224a:	b580      	push	{r7, lr}
 800224c:	b086      	sub	sp, #24
 800224e:	af00      	add	r7, sp, #0
 8002250:	60f8      	str	r0, [r7, #12]
 8002252:	607a      	str	r2, [r7, #4]
 8002254:	603b      	str	r3, [r7, #0]
 8002256:	460b      	mov	r3, r1
 8002258:	72fb      	strb	r3, [r7, #11]
 800225a:	7afb      	ldrb	r3, [r7, #11]
 800225c:	f003 0307 	and.w	r3, r3, #7
 8002260:	1c5a      	adds	r2, r3, #1
 8002262:	4613      	mov	r3, r2
 8002264:	009b      	lsls	r3, r3, #2
 8002266:	4413      	add	r3, r2
 8002268:	00db      	lsls	r3, r3, #3
 800226a:	68fa      	ldr	r2, [r7, #12]
 800226c:	4413      	add	r3, r2
 800226e:	617b      	str	r3, [r7, #20]
 8002270:	697b      	ldr	r3, [r7, #20]
 8002272:	687a      	ldr	r2, [r7, #4]
 8002274:	615a      	str	r2, [r3, #20]
 8002276:	697b      	ldr	r3, [r7, #20]
 8002278:	683a      	ldr	r2, [r7, #0]
 800227a:	619a      	str	r2, [r3, #24]
 800227c:	697b      	ldr	r3, [r7, #20]
 800227e:	2201      	movs	r2, #1
 8002280:	f883 2024 	strb.w	r2, [r3, #36]	; 0x24
 8002284:	697b      	ldr	r3, [r7, #20]
 8002286:	683a      	ldr	r2, [r7, #0]
 8002288:	621a      	str	r2, [r3, #32]
 800228a:	697b      	ldr	r3, [r7, #20]
 800228c:	2200      	movs	r2, #0
 800228e:	61da      	str	r2, [r3, #28]
 8002290:	697b      	ldr	r3, [r7, #20]
 8002292:	2201      	movs	r2, #1
 8002294:	705a      	strb	r2, [r3, #1]
 8002296:	7afb      	ldrb	r3, [r7, #11]
 8002298:	f003 0307 	and.w	r3, r3, #7
 800229c:	b2da      	uxtb	r2, r3
 800229e:	697b      	ldr	r3, [r7, #20]
 80022a0:	701a      	strb	r2, [r3, #0]
 80022a2:	7afb      	ldrb	r3, [r7, #11]
 80022a4:	f003 0307 	and.w	r3, r3, #7
 80022a8:	2b00      	cmp	r3, #0
 80022aa:	d106      	bne.n	80022ba <HAL_PCD_EP_Transmit+0x70>
 80022ac:	68fb      	ldr	r3, [r7, #12]
 80022ae:	681b      	ldr	r3, [r3, #0]
 80022b0:	6979      	ldr	r1, [r7, #20]
 80022b2:	4618      	mov	r0, r3
 80022b4:	f002 fb42 	bl	800493c <USB_EPStartXfer>
 80022b8:	e005      	b.n	80022c6 <HAL_PCD_EP_Transmit+0x7c>
 80022ba:	68fb      	ldr	r3, [r7, #12]
 80022bc:	681b      	ldr	r3, [r3, #0]
 80022be:	6979      	ldr	r1, [r7, #20]
 80022c0:	4618      	mov	r0, r3
 80022c2:	f002 fb3b 	bl	800493c <USB_EPStartXfer>
 80022c6:	2300      	movs	r3, #0
 80022c8:	4618      	mov	r0, r3
 80022ca:	3718      	adds	r7, #24
 80022cc:	46bd      	mov	sp, r7
 80022ce:	bd80      	pop	{r7, pc}

080022d0 <HAL_PCD_EP_SetStall>:
 80022d0:	b580      	push	{r7, lr}
 80022d2:	b084      	sub	sp, #16
 80022d4:	af00      	add	r7, sp, #0
 80022d6:	6078      	str	r0, [r7, #4]
 80022d8:	460b      	mov	r3, r1
 80022da:	70fb      	strb	r3, [r7, #3]
 80022dc:	78fb      	ldrb	r3, [r7, #3]
 80022de:	f003 0207 	and.w	r2, r3, #7
 80022e2:	687b      	ldr	r3, [r7, #4]
 80022e4:	685b      	ldr	r3, [r3, #4]
 80022e6:	429a      	cmp	r2, r3
 80022e8:	d901      	bls.n	80022ee <HAL_PCD_EP_SetStall+0x1e>
 80022ea:	2301      	movs	r3, #1
 80022ec:	e04c      	b.n	8002388 <HAL_PCD_EP_SetStall+0xb8>
 80022ee:	f997 3003 	ldrsb.w	r3, [r7, #3]
 80022f2:	2b00      	cmp	r3, #0
 80022f4:	da0e      	bge.n	8002314 <HAL_PCD_EP_SetStall+0x44>
 80022f6:	78fb      	ldrb	r3, [r7, #3]
 80022f8:	f003 0307 	and.w	r3, r3, #7
 80022fc:	1c5a      	adds	r2, r3, #1
 80022fe:	4613      	mov	r3, r2
 8002300:	009b      	lsls	r3, r3, #2
 8002302:	4413      	add	r3, r2
 8002304:	00db      	lsls	r3, r3, #3
 8002306:	687a      	ldr	r2, [r7, #4]
 8002308:	4413      	add	r3, r2
 800230a:	60fb      	str	r3, [r7, #12]
 800230c:	68fb      	ldr	r3, [r7, #12]
 800230e:	2201      	movs	r2, #1
 8002310:	705a      	strb	r2, [r3, #1]
 8002312:	e00c      	b.n	800232e <HAL_PCD_EP_SetStall+0x5e>
 8002314:	78fa      	ldrb	r2, [r7, #3]
 8002316:	4613      	mov	r3, r2
 8002318:	009b      	lsls	r3, r3, #2
 800231a:	4413      	add	r3, r2
 800231c:	00db      	lsls	r3, r3, #3
 800231e:	f503 73b4 	add.w	r3, r3, #360	; 0x168
 8002322:	687a      	ldr	r2, [r7, #4]
 8002324:	4413      	add	r3, r2
 8002326:	60fb      	str	r3, [r7, #12]
 8002328:	68fb      	ldr	r3, [r7, #12]
 800232a:	2200      	movs	r2, #0
 800232c:	705a      	strb	r2, [r3, #1]
 800232e:	68fb      	ldr	r3, [r7, #12]
 8002330:	2201      	movs	r2, #1
 8002332:	709a      	strb	r2, [r3, #2]
 8002334:	78fb      	ldrb	r3, [r7, #3]
 8002336:	f003 0307 	and.w	r3, r3, #7
 800233a:	b2da      	uxtb	r2, r3
 800233c:	68fb      	ldr	r3, [r7, #12]
 800233e:	701a      	strb	r2, [r3, #0]
 8002340:	687b      	ldr	r3, [r7, #4]
 8002342:	f893 32a8 	ldrb.w	r3, [r3, #680]	; 0x2a8
 8002346:	2b01      	cmp	r3, #1
 8002348:	d101      	bne.n	800234e <HAL_PCD_EP_SetStall+0x7e>
 800234a:	2302      	movs	r3, #2
 800234c:	e01c      	b.n	8002388 <HAL_PCD_EP_SetStall+0xb8>
 800234e:	687b      	ldr	r3, [r7, #4]
 8002350:	2201      	movs	r2, #1
 8002352:	f883 22a8 	strb.w	r2, [r3, #680]	; 0x2a8
 8002356:	687b      	ldr	r3, [r7, #4]
 8002358:	681b      	ldr	r3, [r3, #0]
 800235a:	68f9      	ldr	r1, [r7, #12]
 800235c:	4618      	mov	r0, r3
 800235e:	f003 fde4 	bl	8005f2a <USB_EPSetStall>
 8002362:	78fb      	ldrb	r3, [r7, #3]
 8002364:	f003 0307 	and.w	r3, r3, #7
 8002368:	2b00      	cmp	r3, #0
 800236a:	d108      	bne.n	800237e <HAL_PCD_EP_SetStall+0xae>
 800236c:	687b      	ldr	r3, [r7, #4]
 800236e:	681a      	ldr	r2, [r3, #0]
 8002370:	687b      	ldr	r3, [r7, #4]
 8002372:	f503 732c 	add.w	r3, r3, #688	; 0x2b0
 8002376:	4619      	mov	r1, r3
 8002378:	4610      	mov	r0, r2
 800237a:	f003 ff09 	bl	8006190 <USB_EP0_OutStart>
 800237e:	687b      	ldr	r3, [r7, #4]
 8002380:	2200      	movs	r2, #0
 8002382:	f883 22a8 	strb.w	r2, [r3, #680]	; 0x2a8
 8002386:	2300      	movs	r3, #0
 8002388:	4618      	mov	r0, r3
 800238a:	3710      	adds	r7, #16
 800238c:	46bd      	mov	sp, r7
 800238e:	bd80      	pop	{r7, pc}

08002390 <HAL_PCD_EP_ClrStall>:
 8002390:	b580      	push	{r7, lr}
 8002392:	b084      	sub	sp, #16
 8002394:	af00      	add	r7, sp, #0
 8002396:	6078      	str	r0, [r7, #4]
 8002398:	460b      	mov	r3, r1
 800239a:	70fb      	strb	r3, [r7, #3]
 800239c:	78fb      	ldrb	r3, [r7, #3]
 800239e:	f003 020f 	and.w	r2, r3, #15
 80023a2:	687b      	ldr	r3, [r7, #4]
 80023a4:	685b      	ldr	r3, [r3, #4]
 80023a6:	429a      	cmp	r2, r3
 80023a8:	d901      	bls.n	80023ae <HAL_PCD_EP_ClrStall+0x1e>
 80023aa:	2301      	movs	r3, #1
 80023ac:	e040      	b.n	8002430 <HAL_PCD_EP_ClrStall+0xa0>
 80023ae:	f997 3003 	ldrsb.w	r3, [r7, #3]
 80023b2:	2b00      	cmp	r3, #0
 80023b4:	da0e      	bge.n	80023d4 <HAL_PCD_EP_ClrStall+0x44>
 80023b6:	78fb      	ldrb	r3, [r7, #3]
 80023b8:	f003 0307 	and.w	r3, r3, #7
 80023bc:	1c5a      	adds	r2, r3, #1
 80023be:	4613      	mov	r3, r2
 80023c0:	009b      	lsls	r3, r3, #2
 80023c2:	4413      	add	r3, r2
 80023c4:	00db      	lsls	r3, r3, #3
 80023c6:	687a      	ldr	r2, [r7, #4]
 80023c8:	4413      	add	r3, r2
 80023ca:	60fb      	str	r3, [r7, #12]
 80023cc:	68fb      	ldr	r3, [r7, #12]
 80023ce:	2201      	movs	r2, #1
 80023d0:	705a      	strb	r2, [r3, #1]
 80023d2:	e00e      	b.n	80023f2 <HAL_PCD_EP_ClrStall+0x62>
 80023d4:	78fb      	ldrb	r3, [r7, #3]
 80023d6:	f003 0207 	and.w	r2, r3, #7
 80023da:	4613      	mov	r3, r2
 80023dc:	009b      	lsls	r3, r3, #2
 80023de:	4413      	add	r3, r2
 80023e0:	00db      	lsls	r3, r3, #3
 80023e2:	f503 73b4 	add.w	r3, r3, #360	; 0x168
 80023e6:	687a      	ldr	r2, [r7, #4]
 80023e8:	4413      	add	r3, r2
 80023ea:	60fb      	str	r3, [r7, #12]
 80023ec:	68fb      	ldr	r3, [r7, #12]
 80023ee:	2200      	movs	r2, #0
 80023f0:	705a      	strb	r2, [r3, #1]
 80023f2:	68fb      	ldr	r3, [r7, #12]
 80023f4:	2200      	movs	r2, #0
 80023f6:	709a      	strb	r2, [r3, #2]
 80023f8:	78fb      	ldrb	r3, [r7, #3]
 80023fa:	f003 0307 	and.w	r3, r3, #7
 80023fe:	b2da      	uxtb	r2, r3
 8002400:	68fb      	ldr	r3, [r7, #12]
 8002402:	701a      	strb	r2, [r3, #0]
 8002404:	687b      	ldr	r3, [r7, #4]
 8002406:	f893 32a8 	ldrb.w	r3, [r3, #680]	; 0x2a8
 800240a:	2b01      	cmp	r3, #1
 800240c:	d101      	bne.n	8002412 <HAL_PCD_EP_ClrStall+0x82>
 800240e:	2302      	movs	r3, #2
 8002410:	e00e      	b.n	8002430 <HAL_PCD_EP_ClrStall+0xa0>
 8002412:	687b      	ldr	r3, [r7, #4]
 8002414:	2201      	movs	r2, #1
 8002416:	f883 22a8 	strb.w	r2, [r3, #680]	; 0x2a8
 800241a:	687b      	ldr	r3, [r7, #4]
 800241c:	681b      	ldr	r3, [r3, #0]
 800241e:	68f9      	ldr	r1, [r7, #12]
 8002420:	4618      	mov	r0, r3
 8002422:	f003 fdd2 	bl	8005fca <USB_EPClearStall>
 8002426:	687b      	ldr	r3, [r7, #4]
 8002428:	2200      	movs	r2, #0
 800242a:	f883 22a8 	strb.w	r2, [r3, #680]	; 0x2a8
 800242e:	2300      	movs	r3, #0
 8002430:	4618      	mov	r0, r3
 8002432:	3710      	adds	r7, #16
 8002434:	46bd      	mov	sp, r7
 8002436:	bd80      	pop	{r7, pc}

08002438 <PCD_EP_ISR_Handler>:
 8002438:	b580      	push	{r7, lr}
 800243a:	b08e      	sub	sp, #56	; 0x38
 800243c:	af00      	add	r7, sp, #0
 800243e:	6078      	str	r0, [r7, #4]
 8002440:	e2ec      	b.n	8002a1c <PCD_EP_ISR_Handler+0x5e4>
 8002442:	687b      	ldr	r3, [r7, #4]
 8002444:	681b      	ldr	r3, [r3, #0]
 8002446:	f8b3 3044 	ldrh.w	r3, [r3, #68]	; 0x44
 800244a:	85fb      	strh	r3, [r7, #46]	; 0x2e
 800244c:	8dfb      	ldrh	r3, [r7, #46]	; 0x2e
 800244e:	b2db      	uxtb	r3, r3
 8002450:	f003 030f 	and.w	r3, r3, #15
 8002454:	f887 302d 	strb.w	r3, [r7, #45]	; 0x2d
 8002458:	f897 302d 	ldrb.w	r3, [r7, #45]	; 0x2d
 800245c:	2b00      	cmp	r3, #0
 800245e:	f040 8161 	bne.w	8002724 <PCD_EP_ISR_Handler+0x2ec>
 8002462:	8dfb      	ldrh	r3, [r7, #46]	; 0x2e
 8002464:	f003 0310 	and.w	r3, r3, #16
 8002468:	2b00      	cmp	r3, #0
 800246a:	d152      	bne.n	8002512 <PCD_EP_ISR_Handler+0xda>
 800246c:	687b      	ldr	r3, [r7, #4]
 800246e:	681b      	ldr	r3, [r3, #0]
 8002470:	881b      	ldrh	r3, [r3, #0]
 8002472:	b29b      	uxth	r3, r3
 8002474:	f423 43e1 	bic.w	r3, r3, #28800	; 0x7080
 8002478:	f023 0370 	bic.w	r3, r3, #112	; 0x70
 800247c:	81fb      	strh	r3, [r7, #14]
 800247e:	687b      	ldr	r3, [r7, #4]
 8002480:	681a      	ldr	r2, [r3, #0]
 8002482:	89fb      	ldrh	r3, [r7, #14]
 8002484:	ea6f 4343 	mvn.w	r3, r3, lsl #17
 8002488:	ea6f 4353 	mvn.w	r3, r3, lsr #17
 800248c:	b29b      	uxth	r3, r3
 800248e:	8013      	strh	r3, [r2, #0]
 8002490:	687b      	ldr	r3, [r7, #4]
 8002492:	3328      	adds	r3, #40	; 0x28
 8002494:	627b      	str	r3, [r7, #36]	; 0x24
 8002496:	687b      	ldr	r3, [r7, #4]
 8002498:	681b      	ldr	r3, [r3, #0]
 800249a:	f8b3 3050 	ldrh.w	r3, [r3, #80]	; 0x50
 800249e:	b29b      	uxth	r3, r3
 80024a0:	461a      	mov	r2, r3
 80024a2:	6a7b      	ldr	r3, [r7, #36]	; 0x24
 80024a4:	781b      	ldrb	r3, [r3, #0]
 80024a6:	00db      	lsls	r3, r3, #3
 80024a8:	4413      	add	r3, r2
 80024aa:	3302      	adds	r3, #2
 80024ac:	005b      	lsls	r3, r3, #1
 80024ae:	687a      	ldr	r2, [r7, #4]
 80024b0:	6812      	ldr	r2, [r2, #0]
 80024b2:	4413      	add	r3, r2
 80024b4:	f503 6380 	add.w	r3, r3, #1024	; 0x400
 80024b8:	881b      	ldrh	r3, [r3, #0]
 80024ba:	f3c3 0209 	ubfx	r2, r3, #0, #10
 80024be:	6a7b      	ldr	r3, [r7, #36]	; 0x24
 80024c0:	61da      	str	r2, [r3, #28]
 80024c2:	6a7b      	ldr	r3, [r7, #36]	; 0x24
 80024c4:	695a      	ldr	r2, [r3, #20]
 80024c6:	6a7b      	ldr	r3, [r7, #36]	; 0x24
 80024c8:	69db      	ldr	r3, [r3, #28]
 80024ca:	441a      	add	r2, r3
 80024cc:	6a7b      	ldr	r3, [r7, #36]	; 0x24
 80024ce:	615a      	str	r2, [r3, #20]
 80024d0:	2100      	movs	r1, #0
 80024d2:	6878      	ldr	r0, [r7, #4]
 80024d4:	f005 f909 	bl	80076ea <HAL_PCD_DataInStageCallback>
 80024d8:	687b      	ldr	r3, [r7, #4]
 80024da:	f893 3024 	ldrb.w	r3, [r3, #36]	; 0x24
 80024de:	b2db      	uxtb	r3, r3
 80024e0:	2b00      	cmp	r3, #0
 80024e2:	f000 829b 	beq.w	8002a1c <PCD_EP_ISR_Handler+0x5e4>
 80024e6:	6a7b      	ldr	r3, [r7, #36]	; 0x24
 80024e8:	699b      	ldr	r3, [r3, #24]
 80024ea:	2b00      	cmp	r3, #0
 80024ec:	f040 8296 	bne.w	8002a1c <PCD_EP_ISR_Handler+0x5e4>
 80024f0:	687b      	ldr	r3, [r7, #4]
 80024f2:	f893 3024 	ldrb.w	r3, [r3, #36]	; 0x24
 80024f6:	b2db      	uxtb	r3, r3
 80024f8:	f063 037f 	orn	r3, r3, #127	; 0x7f
 80024fc:	b2da      	uxtb	r2, r3
 80024fe:	687b      	ldr	r3, [r7, #4]
 8002500:	681b      	ldr	r3, [r3, #0]
 8002502:	b292      	uxth	r2, r2
 8002504:	f8a3 204c 	strh.w	r2, [r3, #76]	; 0x4c
 8002508:	687b      	ldr	r3, [r7, #4]
 800250a:	2200      	movs	r2, #0
 800250c:	f883 2024 	strb.w	r2, [r3, #36]	; 0x24
 8002510:	e284      	b.n	8002a1c <PCD_EP_ISR_Handler+0x5e4>
 8002512:	687b      	ldr	r3, [r7, #4]
 8002514:	f503 73b4 	add.w	r3, r3, #360	; 0x168
 8002518:	627b      	str	r3, [r7, #36]	; 0x24
 800251a:	687b      	ldr	r3, [r7, #4]
 800251c:	681b      	ldr	r3, [r3, #0]
 800251e:	881b      	ldrh	r3, [r3, #0]
 8002520:	857b      	strh	r3, [r7, #42]	; 0x2a
 8002522:	8d7b      	ldrh	r3, [r7, #42]	; 0x2a
 8002524:	f403 6300 	and.w	r3, r3, #2048	; 0x800
 8002528:	2b00      	cmp	r3, #0
 800252a:	d034      	beq.n	8002596 <PCD_EP_ISR_Handler+0x15e>
 800252c:	687b      	ldr	r3, [r7, #4]
 800252e:	681b      	ldr	r3, [r3, #0]
 8002530:	f8b3 3050 	ldrh.w	r3, [r3, #80]	; 0x50
 8002534:	b29b      	uxth	r3, r3
 8002536:	461a      	mov	r2, r3
 8002538:	6a7b      	ldr	r3, [r7, #36]	; 0x24
 800253a:	781b      	ldrb	r3, [r3, #0]
 800253c:	00db      	lsls	r3, r3, #3
 800253e:	4413      	add	r3, r2
 8002540:	3306      	adds	r3, #6
 8002542:	005b      	lsls	r3, r3, #1
 8002544:	687a      	ldr	r2, [r7, #4]
 8002546:	6812      	ldr	r2, [r2, #0]
 8002548:	4413      	add	r3, r2
 800254a:	f503 6380 	add.w	r3, r3, #1024	; 0x400
 800254e:	881b      	ldrh	r3, [r3, #0]
 8002550:	f3c3 0209 	ubfx	r2, r3, #0, #10
 8002554:	6a7b      	ldr	r3, [r7, #36]	; 0x24
 8002556:	61da      	str	r2, [r3, #28]
 8002558:	687b      	ldr	r3, [r7, #4]
 800255a:	6818      	ldr	r0, [r3, #0]
 800255c:	687b      	ldr	r3, [r7, #4]
 800255e:	f503 712c 	add.w	r1, r3, #688	; 0x2b0
 8002562:	6a7b      	ldr	r3, [r7, #36]	; 0x24
 8002564:	88da      	ldrh	r2, [r3, #6]
 8002566:	6a7b      	ldr	r3, [r7, #36]	; 0x24
 8002568:	69db      	ldr	r3, [r3, #28]
 800256a:	b29b      	uxth	r3, r3
 800256c:	f003 fe60 	bl	8006230 <USB_ReadPMA>
 8002570:	687b      	ldr	r3, [r7, #4]
 8002572:	681b      	ldr	r3, [r3, #0]
 8002574:	881b      	ldrh	r3, [r3, #0]
 8002576:	b29a      	uxth	r2, r3
 8002578:	f640 738f 	movw	r3, #3983	; 0xf8f
 800257c:	4013      	ands	r3, r2
 800257e:	823b      	strh	r3, [r7, #16]
 8002580:	687b      	ldr	r3, [r7, #4]
 8002582:	681b      	ldr	r3, [r3, #0]
 8002584:	8a3a      	ldrh	r2, [r7, #16]
 8002586:	f042 0280 	orr.w	r2, r2, #128	; 0x80
 800258a:	b292      	uxth	r2, r2
 800258c:	801a      	strh	r2, [r3, #0]
 800258e:	6878      	ldr	r0, [r7, #4]
 8002590:	f005 f87e 	bl	8007690 <HAL_PCD_SetupStageCallback>
 8002594:	e242      	b.n	8002a1c <PCD_EP_ISR_Handler+0x5e4>
 8002596:	f9b7 302a 	ldrsh.w	r3, [r7, #42]	; 0x2a
 800259a:	2b00      	cmp	r3, #0
 800259c:	f280 823e 	bge.w	8002a1c <PCD_EP_ISR_Handler+0x5e4>
 80025a0:	687b      	ldr	r3, [r7, #4]
 80025a2:	681b      	ldr	r3, [r3, #0]
 80025a4:	881b      	ldrh	r3, [r3, #0]
 80025a6:	b29a      	uxth	r2, r3
 80025a8:	f640 738f 	movw	r3, #3983	; 0xf8f
 80025ac:	4013      	ands	r3, r2
 80025ae:	83bb      	strh	r3, [r7, #28]
 80025b0:	687b      	ldr	r3, [r7, #4]
 80025b2:	681b      	ldr	r3, [r3, #0]
 80025b4:	8bba      	ldrh	r2, [r7, #28]
 80025b6:	f042 0280 	orr.w	r2, r2, #128	; 0x80
 80025ba:	b292      	uxth	r2, r2
 80025bc:	801a      	strh	r2, [r3, #0]
 80025be:	687b      	ldr	r3, [r7, #4]
 80025c0:	681b      	ldr	r3, [r3, #0]
 80025c2:	f8b3 3050 	ldrh.w	r3, [r3, #80]	; 0x50
 80025c6:	b29b      	uxth	r3, r3
 80025c8:	461a      	mov	r2, r3
 80025ca:	6a7b      	ldr	r3, [r7, #36]	; 0x24
 80025cc:	781b      	ldrb	r3, [r3, #0]
 80025ce:	00db      	lsls	r3, r3, #3
 80025d0:	4413      	add	r3, r2
 80025d2:	3306      	adds	r3, #6
 80025d4:	005b      	lsls	r3, r3, #1
 80025d6:	687a      	ldr	r2, [r7, #4]
 80025d8:	6812      	ldr	r2, [r2, #0]
 80025da:	4413      	add	r3, r2
 80025dc:	f503 6380 	add.w	r3, r3, #1024	; 0x400
 80025e0:	881b      	ldrh	r3, [r3, #0]
 80025e2:	f3c3 0209 	ubfx	r2, r3, #0, #10
 80025e6:	6a7b      	ldr	r3, [r7, #36]	; 0x24
 80025e8:	61da      	str	r2, [r3, #28]
 80025ea:	6a7b      	ldr	r3, [r7, #36]	; 0x24
 80025ec:	69db      	ldr	r3, [r3, #28]
 80025ee:	2b00      	cmp	r3, #0
 80025f0:	d019      	beq.n	8002626 <PCD_EP_ISR_Handler+0x1ee>
 80025f2:	6a7b      	ldr	r3, [r7, #36]	; 0x24
 80025f4:	695b      	ldr	r3, [r3, #20]
 80025f6:	2b00      	cmp	r3, #0
 80025f8:	d015      	beq.n	8002626 <PCD_EP_ISR_Handler+0x1ee>
 80025fa:	687b      	ldr	r3, [r7, #4]
 80025fc:	6818      	ldr	r0, [r3, #0]
 80025fe:	6a7b      	ldr	r3, [r7, #36]	; 0x24
 8002600:	6959      	ldr	r1, [r3, #20]
 8002602:	6a7b      	ldr	r3, [r7, #36]	; 0x24
 8002604:	88da      	ldrh	r2, [r3, #6]
 8002606:	6a7b      	ldr	r3, [r7, #36]	; 0x24
 8002608:	69db      	ldr	r3, [r3, #28]
 800260a:	b29b      	uxth	r3, r3
 800260c:	f003 fe10 	bl	8006230 <USB_ReadPMA>
 8002610:	6a7b      	ldr	r3, [r7, #36]	; 0x24
 8002612:	695a      	ldr	r2, [r3, #20]
 8002614:	6a7b      	ldr	r3, [r7, #36]	; 0x24
 8002616:	69db      	ldr	r3, [r3, #28]
 8002618:	441a      	add	r2, r3
 800261a:	6a7b      	ldr	r3, [r7, #36]	; 0x24
 800261c:	615a      	str	r2, [r3, #20]
 800261e:	2100      	movs	r1, #0
 8002620:	6878      	ldr	r0, [r7, #4]
 8002622:	f005 f847 	bl	80076b4 <HAL_PCD_DataOutStageCallback>
 8002626:	687b      	ldr	r3, [r7, #4]
 8002628:	681b      	ldr	r3, [r3, #0]
 800262a:	881b      	ldrh	r3, [r3, #0]
 800262c:	b29b      	uxth	r3, r3
 800262e:	f403 6300 	and.w	r3, r3, #2048	; 0x800
 8002632:	2b00      	cmp	r3, #0
 8002634:	f040 81f2 	bne.w	8002a1c <PCD_EP_ISR_Handler+0x5e4>
 8002638:	687b      	ldr	r3, [r7, #4]
 800263a:	681b      	ldr	r3, [r3, #0]
 800263c:	61bb      	str	r3, [r7, #24]
 800263e:	687b      	ldr	r3, [r7, #4]
 8002640:	681b      	ldr	r3, [r3, #0]
 8002642:	f8b3 3050 	ldrh.w	r3, [r3, #80]	; 0x50
 8002646:	b29b      	uxth	r3, r3
 8002648:	461a      	mov	r2, r3
 800264a:	69bb      	ldr	r3, [r7, #24]
 800264c:	4413      	add	r3, r2
 800264e:	61bb      	str	r3, [r7, #24]
 8002650:	69bb      	ldr	r3, [r7, #24]
 8002652:	f203 430c 	addw	r3, r3, #1036	; 0x40c
 8002656:	617b      	str	r3, [r7, #20]
 8002658:	6a7b      	ldr	r3, [r7, #36]	; 0x24
 800265a:	691b      	ldr	r3, [r3, #16]
 800265c:	2b00      	cmp	r3, #0
 800265e:	d112      	bne.n	8002686 <PCD_EP_ISR_Handler+0x24e>
 8002660:	697b      	ldr	r3, [r7, #20]
 8002662:	881b      	ldrh	r3, [r3, #0]
 8002664:	b29b      	uxth	r3, r3
 8002666:	f423 43f8 	bic.w	r3, r3, #31744	; 0x7c00
 800266a:	b29a      	uxth	r2, r3
 800266c:	697b      	ldr	r3, [r7, #20]
 800266e:	801a      	strh	r2, [r3, #0]
 8002670:	697b      	ldr	r3, [r7, #20]
 8002672:	881b      	ldrh	r3, [r3, #0]
 8002674:	b29b      	uxth	r3, r3
 8002676:	ea6f 4343 	mvn.w	r3, r3, lsl #17
 800267a:	ea6f 4353 	mvn.w	r3, r3, lsr #17
 800267e:	b29a      	uxth	r2, r3
 8002680:	697b      	ldr	r3, [r7, #20]
 8002682:	801a      	strh	r2, [r3, #0]
 8002684:	e02f      	b.n	80026e6 <PCD_EP_ISR_Handler+0x2ae>
 8002686:	6a7b      	ldr	r3, [r7, #36]	; 0x24
 8002688:	691b      	ldr	r3, [r3, #16]
 800268a:	2b3e      	cmp	r3, #62	; 0x3e
 800268c:	d813      	bhi.n	80026b6 <PCD_EP_ISR_Handler+0x27e>
 800268e:	6a7b      	ldr	r3, [r7, #36]	; 0x24
 8002690:	691b      	ldr	r3, [r3, #16]
 8002692:	085b      	lsrs	r3, r3, #1
 8002694:	633b      	str	r3, [r7, #48]	; 0x30
 8002696:	6a7b      	ldr	r3, [r7, #36]	; 0x24
 8002698:	691b      	ldr	r3, [r3, #16]
 800269a:	f003 0301 	and.w	r3, r3, #1
 800269e:	2b00      	cmp	r3, #0
 80026a0:	d002      	beq.n	80026a8 <PCD_EP_ISR_Handler+0x270>
 80026a2:	6b3b      	ldr	r3, [r7, #48]	; 0x30
 80026a4:	3301      	adds	r3, #1
 80026a6:	633b      	str	r3, [r7, #48]	; 0x30
 80026a8:	6b3b      	ldr	r3, [r7, #48]	; 0x30
 80026aa:	b29b      	uxth	r3, r3
 80026ac:	029b      	lsls	r3, r3, #10
 80026ae:	b29a      	uxth	r2, r3
 80026b0:	697b      	ldr	r3, [r7, #20]
 80026b2:	801a      	strh	r2, [r3, #0]
 80026b4:	e017      	b.n	80026e6 <PCD_EP_ISR_Handler+0x2ae>
 80026b6:	6a7b      	ldr	r3, [r7, #36]	; 0x24
 80026b8:	691b      	ldr	r3, [r3, #16]
 80026ba:	095b      	lsrs	r3, r3, #5
 80026bc:	633b      	str	r3, [r7, #48]	; 0x30
 80026be:	6a7b      	ldr	r3, [r7, #36]	; 0x24
 80026c0:	691b      	ldr	r3, [r3, #16]
 80026c2:	f003 031f 	and.w	r3, r3, #31
 80026c6:	2b00      	cmp	r3, #0
 80026c8:	d102      	bne.n	80026d0 <PCD_EP_ISR_Handler+0x298>
 80026ca:	6b3b      	ldr	r3, [r7, #48]	; 0x30
 80026cc:	3b01      	subs	r3, #1
 80026ce:	633b      	str	r3, [r7, #48]	; 0x30
 80026d0:	6b3b      	ldr	r3, [r7, #48]	; 0x30
 80026d2:	b29b      	uxth	r3, r3
 80026d4:	029b      	lsls	r3, r3, #10
 80026d6:	b29b      	uxth	r3, r3
 80026d8:	ea6f 4343 	mvn.w	r3, r3, lsl #17
 80026dc:	ea6f 4353 	mvn.w	r3, r3, lsr #17
 80026e0:	b29a      	uxth	r2, r3
 80026e2:	697b      	ldr	r3, [r7, #20]
 80026e4:	801a      	strh	r2, [r3, #0]
 80026e6:	687b      	ldr	r3, [r7, #4]
 80026e8:	681b      	ldr	r3, [r3, #0]
 80026ea:	881b      	ldrh	r3, [r3, #0]
 80026ec:	b29b      	uxth	r3, r3
 80026ee:	f423 4380 	bic.w	r3, r3, #16384	; 0x4000
 80026f2:	f023 0370 	bic.w	r3, r3, #112	; 0x70
 80026f6:	827b      	strh	r3, [r7, #18]
 80026f8:	8a7b      	ldrh	r3, [r7, #18]
 80026fa:	f483 5380 	eor.w	r3, r3, #4096	; 0x1000
 80026fe:	827b      	strh	r3, [r7, #18]
 8002700:	8a7b      	ldrh	r3, [r7, #18]
 8002702:	f483 5300 	eor.w	r3, r3, #8192	; 0x2000
 8002706:	827b      	strh	r3, [r7, #18]
 8002708:	687b      	ldr	r3, [r7, #4]
 800270a:	681a      	ldr	r2, [r3, #0]
 800270c:	8a7b      	ldrh	r3, [r7, #18]
 800270e:	f043 437f 	orr.w	r3, r3, #4278190080	; 0xff000000
 8002712:	f443 037f 	orr.w	r3, r3, #16711680	; 0xff0000
 8002716:	f443 4300 	orr.w	r3, r3, #32768	; 0x8000
 800271a:	f043 0380 	orr.w	r3, r3, #128	; 0x80
 800271e:	b29b      	uxth	r3, r3
 8002720:	8013      	strh	r3, [r2, #0]
 8002722:	e17b      	b.n	8002a1c <PCD_EP_ISR_Handler+0x5e4>
 8002724:	687b      	ldr	r3, [r7, #4]
 8002726:	681b      	ldr	r3, [r3, #0]
 8002728:	461a      	mov	r2, r3
 800272a:	f897 302d 	ldrb.w	r3, [r7, #45]	; 0x2d
 800272e:	009b      	lsls	r3, r3, #2
 8002730:	4413      	add	r3, r2
 8002732:	881b      	ldrh	r3, [r3, #0]
 8002734:	857b      	strh	r3, [r7, #42]	; 0x2a
 8002736:	f9b7 302a 	ldrsh.w	r3, [r7, #42]	; 0x2a
 800273a:	2b00      	cmp	r3, #0
 800273c:	f280 80ea 	bge.w	8002914 <PCD_EP_ISR_Handler+0x4dc>
 8002740:	687b      	ldr	r3, [r7, #4]
 8002742:	681b      	ldr	r3, [r3, #0]
 8002744:	461a      	mov	r2, r3
 8002746:	f897 302d 	ldrb.w	r3, [r7, #45]	; 0x2d
 800274a:	009b      	lsls	r3, r3, #2
 800274c:	4413      	add	r3, r2
 800274e:	881b      	ldrh	r3, [r3, #0]
 8002750:	b29a      	uxth	r2, r3
 8002752:	f640 738f 	movw	r3, #3983	; 0xf8f
 8002756:	4013      	ands	r3, r2
 8002758:	853b      	strh	r3, [r7, #40]	; 0x28
 800275a:	687b      	ldr	r3, [r7, #4]
 800275c:	681b      	ldr	r3, [r3, #0]
 800275e:	461a      	mov	r2, r3
 8002760:	f897 302d 	ldrb.w	r3, [r7, #45]	; 0x2d
 8002764:	009b      	lsls	r3, r3, #2
 8002766:	4413      	add	r3, r2
 8002768:	8d3a      	ldrh	r2, [r7, #40]	; 0x28
 800276a:	f042 0280 	orr.w	r2, r2, #128	; 0x80
 800276e:	b292      	uxth	r2, r2
 8002770:	801a      	strh	r2, [r3, #0]
 8002772:	f897 202d 	ldrb.w	r2, [r7, #45]	; 0x2d
 8002776:	4613      	mov	r3, r2
 8002778:	009b      	lsls	r3, r3, #2
 800277a:	4413      	add	r3, r2
 800277c:	00db      	lsls	r3, r3, #3
 800277e:	f503 73b4 	add.w	r3, r3, #360	; 0x168
 8002782:	687a      	ldr	r2, [r7, #4]
 8002784:	4413      	add	r3, r2
 8002786:	627b      	str	r3, [r7, #36]	; 0x24
 8002788:	6a7b      	ldr	r3, [r7, #36]	; 0x24
 800278a:	7b1b      	ldrb	r3, [r3, #12]
 800278c:	2b00      	cmp	r3, #0
 800278e:	d122      	bne.n	80027d6 <PCD_EP_ISR_Handler+0x39e>
 8002790:	687b      	ldr	r3, [r7, #4]
 8002792:	681b      	ldr	r3, [r3, #0]
 8002794:	f8b3 3050 	ldrh.w	r3, [r3, #80]	; 0x50
 8002798:	b29b      	uxth	r3, r3
 800279a:	461a      	mov	r2, r3
 800279c:	6a7b      	ldr	r3, [r7, #36]	; 0x24
 800279e:	781b      	ldrb	r3, [r3, #0]
 80027a0:	00db      	lsls	r3, r3, #3
 80027a2:	4413      	add	r3, r2
 80027a4:	3306      	adds	r3, #6
 80027a6:	005b      	lsls	r3, r3, #1
 80027a8:	687a      	ldr	r2, [r7, #4]
 80027aa:	6812      	ldr	r2, [r2, #0]
 80027ac:	4413      	add	r3, r2
 80027ae:	f503 6380 	add.w	r3, r3, #1024	; 0x400
 80027b2:	881b      	ldrh	r3, [r3, #0]
 80027b4:	f3c3 0309 	ubfx	r3, r3, #0, #10
 80027b8:	86fb      	strh	r3, [r7, #54]	; 0x36
 80027ba:	8efb      	ldrh	r3, [r7, #54]	; 0x36
 80027bc:	2b00      	cmp	r3, #0
 80027be:	f000 8087 	beq.w	80028d0 <PCD_EP_ISR_Handler+0x498>
 80027c2:	687b      	ldr	r3, [r7, #4]
 80027c4:	6818      	ldr	r0, [r3, #0]
 80027c6:	6a7b      	ldr	r3, [r7, #36]	; 0x24
 80027c8:	6959      	ldr	r1, [r3, #20]
 80027ca:	6a7b      	ldr	r3, [r7, #36]	; 0x24
 80027cc:	88da      	ldrh	r2, [r3, #6]
 80027ce:	8efb      	ldrh	r3, [r7, #54]	; 0x36
 80027d0:	f003 fd2e 	bl	8006230 <USB_ReadPMA>
 80027d4:	e07c      	b.n	80028d0 <PCD_EP_ISR_Handler+0x498>
 80027d6:	6a7b      	ldr	r3, [r7, #36]	; 0x24
 80027d8:	78db      	ldrb	r3, [r3, #3]
 80027da:	2b02      	cmp	r3, #2
 80027dc:	d108      	bne.n	80027f0 <PCD_EP_ISR_Handler+0x3b8>
 80027de:	8d7b      	ldrh	r3, [r7, #42]	; 0x2a
 80027e0:	461a      	mov	r2, r3
 80027e2:	6a79      	ldr	r1, [r7, #36]	; 0x24
 80027e4:	6878      	ldr	r0, [r7, #4]
 80027e6:	f000 f927 	bl	8002a38 <HAL_PCD_EP_DB_Receive>
 80027ea:	4603      	mov	r3, r0
 80027ec:	86fb      	strh	r3, [r7, #54]	; 0x36
 80027ee:	e06f      	b.n	80028d0 <PCD_EP_ISR_Handler+0x498>
 80027f0:	687b      	ldr	r3, [r7, #4]
 80027f2:	681b      	ldr	r3, [r3, #0]
 80027f4:	461a      	mov	r2, r3
 80027f6:	6a7b      	ldr	r3, [r7, #36]	; 0x24
 80027f8:	781b      	ldrb	r3, [r3, #0]
 80027fa:	009b      	lsls	r3, r3, #2
 80027fc:	4413      	add	r3, r2
 80027fe:	881b      	ldrh	r3, [r3, #0]
 8002800:	b29b      	uxth	r3, r3
 8002802:	f423 43e0 	bic.w	r3, r3, #28672	; 0x7000
 8002806:	f023 0370 	bic.w	r3, r3, #112	; 0x70
 800280a:	847b      	strh	r3, [r7, #34]	; 0x22
 800280c:	687b      	ldr	r3, [r7, #4]
 800280e:	681b      	ldr	r3, [r3, #0]
 8002810:	461a      	mov	r2, r3
 8002812:	6a7b      	ldr	r3, [r7, #36]	; 0x24
 8002814:	781b      	ldrb	r3, [r3, #0]
 8002816:	009b      	lsls	r3, r3, #2
 8002818:	441a      	add	r2, r3
 800281a:	8c7b      	ldrh	r3, [r7, #34]	; 0x22
 800281c:	f043 437f 	orr.w	r3, r3, #4278190080	; 0xff000000
 8002820:	f443 037f 	orr.w	r3, r3, #16711680	; 0xff0000
 8002824:	f443 4300 	orr.w	r3, r3, #32768	; 0x8000
 8002828:	f043 03c0 	orr.w	r3, r3, #192	; 0xc0
 800282c:	b29b      	uxth	r3, r3
 800282e:	8013      	strh	r3, [r2, #0]
 8002830:	687b      	ldr	r3, [r7, #4]
 8002832:	681b      	ldr	r3, [r3, #0]
 8002834:	461a      	mov	r2, r3
 8002836:	6a7b      	ldr	r3, [r7, #36]	; 0x24
 8002838:	781b      	ldrb	r3, [r3, #0]
 800283a:	009b      	lsls	r3, r3, #2
 800283c:	4413      	add	r3, r2
 800283e:	881b      	ldrh	r3, [r3, #0]
 8002840:	b29b      	uxth	r3, r3
 8002842:	f403 4380 	and.w	r3, r3, #16384	; 0x4000
 8002846:	2b00      	cmp	r3, #0
 8002848:	d021      	beq.n	800288e <PCD_EP_ISR_Handler+0x456>
 800284a:	687b      	ldr	r3, [r7, #4]
 800284c:	681b      	ldr	r3, [r3, #0]
 800284e:	f8b3 3050 	ldrh.w	r3, [r3, #80]	; 0x50
 8002852:	b29b      	uxth	r3, r3
 8002854:	461a      	mov	r2, r3
 8002856:	6a7b      	ldr	r3, [r7, #36]	; 0x24
 8002858:	781b      	ldrb	r3, [r3, #0]
 800285a:	00db      	lsls	r3, r3, #3
 800285c:	4413      	add	r3, r2
 800285e:	3302      	adds	r3, #2
 8002860:	005b      	lsls	r3, r3, #1
 8002862:	687a      	ldr	r2, [r7, #4]
 8002864:	6812      	ldr	r2, [r2, #0]
 8002866:	4413      	add	r3, r2
 8002868:	f503 6380 	add.w	r3, r3, #1024	; 0x400
 800286c:	881b      	ldrh	r3, [r3, #0]
 800286e:	f3c3 0309 	ubfx	r3, r3, #0, #10
 8002872:	86fb      	strh	r3, [r7, #54]	; 0x36
 8002874:	8efb      	ldrh	r3, [r7, #54]	; 0x36
 8002876:	2b00      	cmp	r3, #0
 8002878:	d02a      	beq.n	80028d0 <PCD_EP_ISR_Handler+0x498>
 800287a:	687b      	ldr	r3, [r7, #4]
 800287c:	6818      	ldr	r0, [r3, #0]
 800287e:	6a7b      	ldr	r3, [r7, #36]	; 0x24
 8002880:	6959      	ldr	r1, [r3, #20]
 8002882:	6a7b      	ldr	r3, [r7, #36]	; 0x24
 8002884:	891a      	ldrh	r2, [r3, #8]
 8002886:	8efb      	ldrh	r3, [r7, #54]	; 0x36
 8002888:	f003 fcd2 	bl	8006230 <USB_ReadPMA>
 800288c:	e020      	b.n	80028d0 <PCD_EP_ISR_Handler+0x498>
 800288e:	687b      	ldr	r3, [r7, #4]
 8002890:	681b      	ldr	r3, [r3, #0]
 8002892:	f8b3 3050 	ldrh.w	r3, [r3, #80]	; 0x50
 8002896:	b29b      	uxth	r3, r3
 8002898:	461a      	mov	r2, r3
 800289a:	6a7b      	ldr	r3, [r7, #36]	; 0x24
 800289c:	781b      	ldrb	r3, [r3, #0]
 800289e:	00db      	lsls	r3, r3, #3
 80028a0:	4413      	add	r3, r2
 80028a2:	3306      	adds	r3, #6
 80028a4:	005b      	lsls	r3, r3, #1
 80028a6:	687a      	ldr	r2, [r7, #4]
 80028a8:	6812      	ldr	r2, [r2, #0]
 80028aa:	4413      	add	r3, r2
 80028ac:	f503 6380 	add.w	r3, r3, #1024	; 0x400
 80028b0:	881b      	ldrh	r3, [r3, #0]
 80028b2:	f3c3 0309 	ubfx	r3, r3, #0, #10
 80028b6:	86fb      	strh	r3, [r7, #54]	; 0x36
 80028b8:	8efb      	ldrh	r3, [r7, #54]	; 0x36
 80028ba:	2b00      	cmp	r3, #0
 80028bc:	d008      	beq.n	80028d0 <PCD_EP_ISR_Handler+0x498>
 80028be:	687b      	ldr	r3, [r7, #4]
 80028c0:	6818      	ldr	r0, [r3, #0]
 80028c2:	6a7b      	ldr	r3, [r7, #36]	; 0x24
 80028c4:	6959      	ldr	r1, [r3, #20]
 80028c6:	6a7b      	ldr	r3, [r7, #36]	; 0x24
 80028c8:	895a      	ldrh	r2, [r3, #10]
 80028ca:	8efb      	ldrh	r3, [r7, #54]	; 0x36
 80028cc:	f003 fcb0 	bl	8006230 <USB_ReadPMA>
 80028d0:	6a7b      	ldr	r3, [r7, #36]	; 0x24
 80028d2:	69da      	ldr	r2, [r3, #28]
 80028d4:	8efb      	ldrh	r3, [r7, #54]	; 0x36
 80028d6:	441a      	add	r2, r3
 80028d8:	6a7b      	ldr	r3, [r7, #36]	; 0x24
 80028da:	61da      	str	r2, [r3, #28]
 80028dc:	6a7b      	ldr	r3, [r7, #36]	; 0x24
 80028de:	695a      	ldr	r2, [r3, #20]
 80028e0:	8efb      	ldrh	r3, [r7, #54]	; 0x36
 80028e2:	441a      	add	r2, r3
 80028e4:	6a7b      	ldr	r3, [r7, #36]	; 0x24
 80028e6:	615a      	str	r2, [r3, #20]
 80028e8:	6a7b      	ldr	r3, [r7, #36]	; 0x24
 80028ea:	699b      	ldr	r3, [r3, #24]
 80028ec:	2b00      	cmp	r3, #0
 80028ee:	d004      	beq.n	80028fa <PCD_EP_ISR_Handler+0x4c2>
 80028f0:	8efa      	ldrh	r2, [r7, #54]	; 0x36
 80028f2:	6a7b      	ldr	r3, [r7, #36]	; 0x24
 80028f4:	691b      	ldr	r3, [r3, #16]
 80028f6:	429a      	cmp	r2, r3
 80028f8:	d206      	bcs.n	8002908 <PCD_EP_ISR_Handler+0x4d0>
 80028fa:	6a7b      	ldr	r3, [r7, #36]	; 0x24
 80028fc:	781b      	ldrb	r3, [r3, #0]
 80028fe:	4619      	mov	r1, r3
 8002900:	6878      	ldr	r0, [r7, #4]
 8002902:	f004 fed7 	bl	80076b4 <HAL_PCD_DataOutStageCallback>
 8002906:	e005      	b.n	8002914 <PCD_EP_ISR_Handler+0x4dc>
 8002908:	687b      	ldr	r3, [r7, #4]
 800290a:	681b      	ldr	r3, [r3, #0]
 800290c:	6a79      	ldr	r1, [r7, #36]	; 0x24
 800290e:	4618      	mov	r0, r3
 8002910:	f002 f814 	bl	800493c <USB_EPStartXfer>
 8002914:	8d7b      	ldrh	r3, [r7, #42]	; 0x2a
 8002916:	f003 0380 	and.w	r3, r3, #128	; 0x80
 800291a:	2b00      	cmp	r3, #0
 800291c:	d07e      	beq.n	8002a1c <PCD_EP_ISR_Handler+0x5e4>
 800291e:	f897 302d 	ldrb.w	r3, [r7, #45]	; 0x2d
 8002922:	1c5a      	adds	r2, r3, #1
 8002924:	4613      	mov	r3, r2
 8002926:	009b      	lsls	r3, r3, #2
 8002928:	4413      	add	r3, r2
 800292a:	00db      	lsls	r3, r3, #3
 800292c:	687a      	ldr	r2, [r7, #4]
 800292e:	4413      	add	r3, r2
 8002930:	627b      	str	r3, [r7, #36]	; 0x24
 8002932:	687b      	ldr	r3, [r7, #4]
 8002934:	681b      	ldr	r3, [r3, #0]
 8002936:	461a      	mov	r2, r3
 8002938:	f897 302d 	ldrb.w	r3, [r7, #45]	; 0x2d
 800293c:	009b      	lsls	r3, r3, #2
 800293e:	4413      	add	r3, r2
 8002940:	881b      	ldrh	r3, [r3, #0]
 8002942:	b29b      	uxth	r3, r3
 8002944:	f423 43e1 	bic.w	r3, r3, #28800	; 0x7080
 8002948:	f023 0370 	bic.w	r3, r3, #112	; 0x70
 800294c:	843b      	strh	r3, [r7, #32]
 800294e:	687b      	ldr	r3, [r7, #4]
 8002950:	681b      	ldr	r3, [r3, #0]
 8002952:	461a      	mov	r2, r3
 8002954:	f897 302d 	ldrb.w	r3, [r7, #45]	; 0x2d
 8002958:	009b      	lsls	r3, r3, #2
 800295a:	441a      	add	r2, r3
 800295c:	8c3b      	ldrh	r3, [r7, #32]
 800295e:	ea6f 4343 	mvn.w	r3, r3, lsl #17
 8002962:	ea6f 4353 	mvn.w	r3, r3, lsr #17
 8002966:	b29b      	uxth	r3, r3
 8002968:	8013      	strh	r3, [r2, #0]
 800296a:	6a7b      	ldr	r3, [r7, #36]	; 0x24
 800296c:	78db      	ldrb	r3, [r3, #3]
 800296e:	2b03      	cmp	r3, #3
 8002970:	d00c      	beq.n	800298c <PCD_EP_ISR_Handler+0x554>
 8002972:	6a7b      	ldr	r3, [r7, #36]	; 0x24
 8002974:	78db      	ldrb	r3, [r3, #3]
 8002976:	2b00      	cmp	r3, #0
 8002978:	d008      	beq.n	800298c <PCD_EP_ISR_Handler+0x554>
 800297a:	6a7b      	ldr	r3, [r7, #36]	; 0x24
 800297c:	78db      	ldrb	r3, [r3, #3]
 800297e:	2b02      	cmp	r3, #2
 8002980:	d146      	bne.n	8002a10 <PCD_EP_ISR_Handler+0x5d8>
 8002982:	8d7b      	ldrh	r3, [r7, #42]	; 0x2a
 8002984:	f403 7380 	and.w	r3, r3, #256	; 0x100
 8002988:	2b00      	cmp	r3, #0
 800298a:	d141      	bne.n	8002a10 <PCD_EP_ISR_Handler+0x5d8>
 800298c:	687b      	ldr	r3, [r7, #4]
 800298e:	681b      	ldr	r3, [r3, #0]
 8002990:	f8b3 3050 	ldrh.w	r3, [r3, #80]	; 0x50
 8002994:	b29b      	uxth	r3, r3
 8002996:	461a      	mov	r2, r3
 8002998:	6a7b      	ldr	r3, [r7, #36]	; 0x24
 800299a:	781b      	ldrb	r3, [r3, #0]
 800299c:	00db      	lsls	r3, r3, #3
 800299e:	4413      	add	r3, r2
 80029a0:	3302      	adds	r3, #2
 80029a2:	005b      	lsls	r3, r3, #1
 80029a4:	687a      	ldr	r2, [r7, #4]
 80029a6:	6812      	ldr	r2, [r2, #0]
 80029a8:	4413      	add	r3, r2
 80029aa:	f503 6380 	add.w	r3, r3, #1024	; 0x400
 80029ae:	881b      	ldrh	r3, [r3, #0]
 80029b0:	f3c3 0309 	ubfx	r3, r3, #0, #10
 80029b4:	83fb      	strh	r3, [r7, #30]
 80029b6:	6a7b      	ldr	r3, [r7, #36]	; 0x24
 80029b8:	699a      	ldr	r2, [r3, #24]
 80029ba:	8bfb      	ldrh	r3, [r7, #30]
 80029bc:	429a      	cmp	r2, r3
 80029be:	d906      	bls.n	80029ce <PCD_EP_ISR_Handler+0x596>
 80029c0:	6a7b      	ldr	r3, [r7, #36]	; 0x24
 80029c2:	699a      	ldr	r2, [r3, #24]
 80029c4:	8bfb      	ldrh	r3, [r7, #30]
 80029c6:	1ad2      	subs	r2, r2, r3
 80029c8:	6a7b      	ldr	r3, [r7, #36]	; 0x24
 80029ca:	619a      	str	r2, [r3, #24]
 80029cc:	e002      	b.n	80029d4 <PCD_EP_ISR_Handler+0x59c>
 80029ce:	6a7b      	ldr	r3, [r7, #36]	; 0x24
 80029d0:	2200      	movs	r2, #0
 80029d2:	619a      	str	r2, [r3, #24]
 80029d4:	6a7b      	ldr	r3, [r7, #36]	; 0x24
 80029d6:	699b      	ldr	r3, [r3, #24]
 80029d8:	2b00      	cmp	r3, #0
 80029da:	d106      	bne.n	80029ea <PCD_EP_ISR_Handler+0x5b2>
 80029dc:	6a7b      	ldr	r3, [r7, #36]	; 0x24
 80029de:	781b      	ldrb	r3, [r3, #0]
 80029e0:	4619      	mov	r1, r3
 80029e2:	6878      	ldr	r0, [r7, #4]
 80029e4:	f004 fe81 	bl	80076ea <HAL_PCD_DataInStageCallback>
 80029e8:	e018      	b.n	8002a1c <PCD_EP_ISR_Handler+0x5e4>
 80029ea:	6a7b      	ldr	r3, [r7, #36]	; 0x24
 80029ec:	695a      	ldr	r2, [r3, #20]
 80029ee:	8bfb      	ldrh	r3, [r7, #30]
 80029f0:	441a      	add	r2, r3
 80029f2:	6a7b      	ldr	r3, [r7, #36]	; 0x24
 80029f4:	615a      	str	r2, [r3, #20]
 80029f6:	6a7b      	ldr	r3, [r7, #36]	; 0x24
 80029f8:	69da      	ldr	r2, [r3, #28]
 80029fa:	8bfb      	ldrh	r3, [r7, #30]
 80029fc:	441a      	add	r2, r3
 80029fe:	6a7b      	ldr	r3, [r7, #36]	; 0x24
 8002a00:	61da      	str	r2, [r3, #28]
 8002a02:	687b      	ldr	r3, [r7, #4]
 8002a04:	681b      	ldr	r3, [r3, #0]
 8002a06:	6a79      	ldr	r1, [r7, #36]	; 0x24
 8002a08:	4618      	mov	r0, r3
 8002a0a:	f001 ff97 	bl	800493c <USB_EPStartXfer>
 8002a0e:	e005      	b.n	8002a1c <PCD_EP_ISR_Handler+0x5e4>
 8002a10:	8d7b      	ldrh	r3, [r7, #42]	; 0x2a
 8002a12:	461a      	mov	r2, r3
 8002a14:	6a79      	ldr	r1, [r7, #36]	; 0x24
 8002a16:	6878      	ldr	r0, [r7, #4]
 8002a18:	f000 f91b 	bl	8002c52 <HAL_PCD_EP_DB_Transmit>
 8002a1c:	687b      	ldr	r3, [r7, #4]
 8002a1e:	681b      	ldr	r3, [r3, #0]
 8002a20:	f8b3 3044 	ldrh.w	r3, [r3, #68]	; 0x44
 8002a24:	b29b      	uxth	r3, r3
 8002a26:	b21b      	sxth	r3, r3
 8002a28:	2b00      	cmp	r3, #0
 8002a2a:	f6ff ad0a 	blt.w	8002442 <PCD_EP_ISR_Handler+0xa>
 8002a2e:	2300      	movs	r3, #0
 8002a30:	4618      	mov	r0, r3
 8002a32:	3738      	adds	r7, #56	; 0x38
 8002a34:	46bd      	mov	sp, r7
 8002a36:	bd80      	pop	{r7, pc}

08002a38 <HAL_PCD_EP_DB_Receive>:
 8002a38:	b580      	push	{r7, lr}
 8002a3a:	b088      	sub	sp, #32
 8002a3c:	af00      	add	r7, sp, #0
 8002a3e:	60f8      	str	r0, [r7, #12]
 8002a40:	60b9      	str	r1, [r7, #8]
 8002a42:	4613      	mov	r3, r2
 8002a44:	80fb      	strh	r3, [r7, #6]
 8002a46:	88fb      	ldrh	r3, [r7, #6]
 8002a48:	f403 4380 	and.w	r3, r3, #16384	; 0x4000
 8002a4c:	2b00      	cmp	r3, #0
 8002a4e:	d07e      	beq.n	8002b4e <HAL_PCD_EP_DB_Receive+0x116>
 8002a50:	68fb      	ldr	r3, [r7, #12]
 8002a52:	681b      	ldr	r3, [r3, #0]
 8002a54:	f8b3 3050 	ldrh.w	r3, [r3, #80]	; 0x50
 8002a58:	b29b      	uxth	r3, r3
 8002a5a:	461a      	mov	r2, r3
 8002a5c:	68bb      	ldr	r3, [r7, #8]
 8002a5e:	781b      	ldrb	r3, [r3, #0]
 8002a60:	00db      	lsls	r3, r3, #3
 8002a62:	4413      	add	r3, r2
 8002a64:	3302      	adds	r3, #2
 8002a66:	005b      	lsls	r3, r3, #1
 8002a68:	68fa      	ldr	r2, [r7, #12]
 8002a6a:	6812      	ldr	r2, [r2, #0]
 8002a6c:	4413      	add	r3, r2
 8002a6e:	f503 6380 	add.w	r3, r3, #1024	; 0x400
 8002a72:	881b      	ldrh	r3, [r3, #0]
 8002a74:	f3c3 0309 	ubfx	r3, r3, #0, #10
 8002a78:	837b      	strh	r3, [r7, #26]
 8002a7a:	68bb      	ldr	r3, [r7, #8]
 8002a7c:	699a      	ldr	r2, [r3, #24]
 8002a7e:	8b7b      	ldrh	r3, [r7, #26]
 8002a80:	429a      	cmp	r2, r3
 8002a82:	d306      	bcc.n	8002a92 <HAL_PCD_EP_DB_Receive+0x5a>
 8002a84:	68bb      	ldr	r3, [r7, #8]
 8002a86:	699a      	ldr	r2, [r3, #24]
 8002a88:	8b7b      	ldrh	r3, [r7, #26]
 8002a8a:	1ad2      	subs	r2, r2, r3
 8002a8c:	68bb      	ldr	r3, [r7, #8]
 8002a8e:	619a      	str	r2, [r3, #24]
 8002a90:	e002      	b.n	8002a98 <HAL_PCD_EP_DB_Receive+0x60>
 8002a92:	68bb      	ldr	r3, [r7, #8]
 8002a94:	2200      	movs	r2, #0
 8002a96:	619a      	str	r2, [r3, #24]
 8002a98:	68bb      	ldr	r3, [r7, #8]
 8002a9a:	699b      	ldr	r3, [r3, #24]
 8002a9c:	2b00      	cmp	r3, #0
 8002a9e:	d123      	bne.n	8002ae8 <HAL_PCD_EP_DB_Receive+0xb0>
 8002aa0:	68fb      	ldr	r3, [r7, #12]
 8002aa2:	681b      	ldr	r3, [r3, #0]
 8002aa4:	461a      	mov	r2, r3
 8002aa6:	68bb      	ldr	r3, [r7, #8]
 8002aa8:	781b      	ldrb	r3, [r3, #0]
 8002aaa:	009b      	lsls	r3, r3, #2
 8002aac:	4413      	add	r3, r2
 8002aae:	881b      	ldrh	r3, [r3, #0]
 8002ab0:	b29b      	uxth	r3, r3
 8002ab2:	f423 4380 	bic.w	r3, r3, #16384	; 0x4000
 8002ab6:	f023 0370 	bic.w	r3, r3, #112	; 0x70
 8002aba:	833b      	strh	r3, [r7, #24]
 8002abc:	8b3b      	ldrh	r3, [r7, #24]
 8002abe:	f483 5300 	eor.w	r3, r3, #8192	; 0x2000
 8002ac2:	833b      	strh	r3, [r7, #24]
 8002ac4:	68fb      	ldr	r3, [r7, #12]
 8002ac6:	681b      	ldr	r3, [r3, #0]
 8002ac8:	461a      	mov	r2, r3
 8002aca:	68bb      	ldr	r3, [r7, #8]
 8002acc:	781b      	ldrb	r3, [r3, #0]
 8002ace:	009b      	lsls	r3, r3, #2
 8002ad0:	441a      	add	r2, r3
 8002ad2:	8b3b      	ldrh	r3, [r7, #24]
 8002ad4:	f043 437f 	orr.w	r3, r3, #4278190080	; 0xff000000
 8002ad8:	f443 037f 	orr.w	r3, r3, #16711680	; 0xff0000
 8002adc:	f443 4300 	orr.w	r3, r3, #32768	; 0x8000
 8002ae0:	f043 0380 	orr.w	r3, r3, #128	; 0x80
 8002ae4:	b29b      	uxth	r3, r3
 8002ae6:	8013      	strh	r3, [r2, #0]
 8002ae8:	88fb      	ldrh	r3, [r7, #6]
 8002aea:	f003 0340 	and.w	r3, r3, #64	; 0x40
 8002aee:	2b00      	cmp	r3, #0
 8002af0:	d01f      	beq.n	8002b32 <HAL_PCD_EP_DB_Receive+0xfa>
 8002af2:	68fb      	ldr	r3, [r7, #12]
 8002af4:	681b      	ldr	r3, [r3, #0]
 8002af6:	461a      	mov	r2, r3
 8002af8:	68bb      	ldr	r3, [r7, #8]
 8002afa:	781b      	ldrb	r3, [r3, #0]
 8002afc:	009b      	lsls	r3, r3, #2
 8002afe:	4413      	add	r3, r2
 8002b00:	881b      	ldrh	r3, [r3, #0]
 8002b02:	b29b      	uxth	r3, r3
 8002b04:	f423 43e0 	bic.w	r3, r3, #28672	; 0x7000
 8002b08:	f023 0370 	bic.w	r3, r3, #112	; 0x70
 8002b0c:	82fb      	strh	r3, [r7, #22]
 8002b0e:	68fb      	ldr	r3, [r7, #12]
 8002b10:	681b      	ldr	r3, [r3, #0]
 8002b12:	461a      	mov	r2, r3
 8002b14:	68bb      	ldr	r3, [r7, #8]
 8002b16:	781b      	ldrb	r3, [r3, #0]
 8002b18:	009b      	lsls	r3, r3, #2
 8002b1a:	441a      	add	r2, r3
 8002b1c:	8afb      	ldrh	r3, [r7, #22]
 8002b1e:	f043 437f 	orr.w	r3, r3, #4278190080	; 0xff000000
 8002b22:	f443 037f 	orr.w	r3, r3, #16711680	; 0xff0000
 8002b26:	f443 4300 	orr.w	r3, r3, #32768	; 0x8000
 8002b2a:	f043 03c0 	orr.w	r3, r3, #192	; 0xc0
 8002b2e:	b29b      	uxth	r3, r3
 8002b30:	8013      	strh	r3, [r2, #0]
 8002b32:	8b7b      	ldrh	r3, [r7, #26]
 8002b34:	2b00      	cmp	r3, #0
 8002b36:	f000 8087 	beq.w	8002c48 <HAL_PCD_EP_DB_Receive+0x210>
 8002b3a:	68fb      	ldr	r3, [r7, #12]
 8002b3c:	6818      	ldr	r0, [r3, #0]
 8002b3e:	68bb      	ldr	r3, [r7, #8]
 8002b40:	6959      	ldr	r1, [r3, #20]
 8002b42:	68bb      	ldr	r3, [r7, #8]
 8002b44:	891a      	ldrh	r2, [r3, #8]
 8002b46:	8b7b      	ldrh	r3, [r7, #26]
 8002b48:	f003 fb72 	bl	8006230 <USB_ReadPMA>
 8002b4c:	e07c      	b.n	8002c48 <HAL_PCD_EP_DB_Receive+0x210>
 8002b4e:	68fb      	ldr	r3, [r7, #12]
 8002b50:	681b      	ldr	r3, [r3, #0]
 8002b52:	f8b3 3050 	ldrh.w	r3, [r3, #80]	; 0x50
 8002b56:	b29b      	uxth	r3, r3
 8002b58:	461a      	mov	r2, r3
 8002b5a:	68bb      	ldr	r3, [r7, #8]
 8002b5c:	781b      	ldrb	r3, [r3, #0]
 8002b5e:	00db      	lsls	r3, r3, #3
 8002b60:	4413      	add	r3, r2
 8002b62:	3306      	adds	r3, #6
 8002b64:	005b      	lsls	r3, r3, #1
 8002b66:	68fa      	ldr	r2, [r7, #12]
 8002b68:	6812      	ldr	r2, [r2, #0]
 8002b6a:	4413      	add	r3, r2
 8002b6c:	f503 6380 	add.w	r3, r3, #1024	; 0x400
 8002b70:	881b      	ldrh	r3, [r3, #0]
 8002b72:	f3c3 0309 	ubfx	r3, r3, #0, #10
 8002b76:	837b      	strh	r3, [r7, #26]
 8002b78:	68bb      	ldr	r3, [r7, #8]
 8002b7a:	699a      	ldr	r2, [r3, #24]
 8002b7c:	8b7b      	ldrh	r3, [r7, #26]
 8002b7e:	429a      	cmp	r2, r3
 8002b80:	d306      	bcc.n	8002b90 <HAL_PCD_EP_DB_Receive+0x158>
 8002b82:	68bb      	ldr	r3, [r7, #8]
 8002b84:	699a      	ldr	r2, [r3, #24]
 8002b86:	8b7b      	ldrh	r3, [r7, #26]
 8002b88:	1ad2      	subs	r2, r2, r3
 8002b8a:	68bb      	ldr	r3, [r7, #8]
 8002b8c:	619a      	str	r2, [r3, #24]
 8002b8e:	e002      	b.n	8002b96 <HAL_PCD_EP_DB_Receive+0x15e>
 8002b90:	68bb      	ldr	r3, [r7, #8]
 8002b92:	2200      	movs	r2, #0
 8002b94:	619a      	str	r2, [r3, #24]
 8002b96:	68bb      	ldr	r3, [r7, #8]
 8002b98:	699b      	ldr	r3, [r3, #24]
 8002b9a:	2b00      	cmp	r3, #0
 8002b9c:	d123      	bne.n	8002be6 <HAL_PCD_EP_DB_Receive+0x1ae>
 8002b9e:	68fb      	ldr	r3, [r7, #12]
 8002ba0:	681b      	ldr	r3, [r3, #0]
 8002ba2:	461a      	mov	r2, r3
 8002ba4:	68bb      	ldr	r3, [r7, #8]
 8002ba6:	781b      	ldrb	r3, [r3, #0]
 8002ba8:	009b      	lsls	r3, r3, #2
 8002baa:	4413      	add	r3, r2
 8002bac:	881b      	ldrh	r3, [r3, #0]
 8002bae:	b29b      	uxth	r3, r3
 8002bb0:	f423 4380 	bic.w	r3, r3, #16384	; 0x4000
 8002bb4:	f023 0370 	bic.w	r3, r3, #112	; 0x70
 8002bb8:	83fb      	strh	r3, [r7, #30]
 8002bba:	8bfb      	ldrh	r3, [r7, #30]
 8002bbc:	f483 5300 	eor.w	r3, r3, #8192	; 0x2000
 8002bc0:	83fb      	strh	r3, [r7, #30]
 8002bc2:	68fb      	ldr	r3, [r7, #12]
 8002bc4:	681b      	ldr	r3, [r3, #0]
 8002bc6:	461a      	mov	r2, r3
 8002bc8:	68bb      	ldr	r3, [r7, #8]
 8002bca:	781b      	ldrb	r3, [r3, #0]
 8002bcc:	009b      	lsls	r3, r3, #2
 8002bce:	441a      	add	r2, r3
 8002bd0:	8bfb      	ldrh	r3, [r7, #30]
 8002bd2:	f043 437f 	orr.w	r3, r3, #4278190080	; 0xff000000
 8002bd6:	f443 037f 	orr.w	r3, r3, #16711680	; 0xff0000
 8002bda:	f443 4300 	orr.w	r3, r3, #32768	; 0x8000
 8002bde:	f043 0380 	orr.w	r3, r3, #128	; 0x80
 8002be2:	b29b      	uxth	r3, r3
 8002be4:	8013      	strh	r3, [r2, #0]
 8002be6:	88fb      	ldrh	r3, [r7, #6]
 8002be8:	f003 0340 	and.w	r3, r3, #64	; 0x40
 8002bec:	2b00      	cmp	r3, #0
 8002bee:	d11f      	bne.n	8002c30 <HAL_PCD_EP_DB_Receive+0x1f8>
 8002bf0:	68fb      	ldr	r3, [r7, #12]
 8002bf2:	681b      	ldr	r3, [r3, #0]
 8002bf4:	461a      	mov	r2, r3
 8002bf6:	68bb      	ldr	r3, [r7, #8]
 8002bf8:	781b      	ldrb	r3, [r3, #0]
 8002bfa:	009b      	lsls	r3, r3, #2
 8002bfc:	4413      	add	r3, r2
 8002bfe:	881b      	ldrh	r3, [r3, #0]
 8002c00:	b29b      	uxth	r3, r3
 8002c02:	f423 43e0 	bic.w	r3, r3, #28672	; 0x7000
 8002c06:	f023 0370 	bic.w	r3, r3, #112	; 0x70
 8002c0a:	83bb      	strh	r3, [r7, #28]
 8002c0c:	68fb      	ldr	r3, [r7, #12]
 8002c0e:	681b      	ldr	r3, [r3, #0]
 8002c10:	461a      	mov	r2, r3
 8002c12:	68bb      	ldr	r3, [r7, #8]
 8002c14:	781b      	ldrb	r3, [r3, #0]
 8002c16:	009b      	lsls	r3, r3, #2
 8002c18:	441a      	add	r2, r3
 8002c1a:	8bbb      	ldrh	r3, [r7, #28]
 8002c1c:	f043 437f 	orr.w	r3, r3, #4278190080	; 0xff000000
 8002c20:	f443 037f 	orr.w	r3, r3, #16711680	; 0xff0000
 8002c24:	f443 4300 	orr.w	r3, r3, #32768	; 0x8000
 8002c28:	f043 03c0 	orr.w	r3, r3, #192	; 0xc0
 8002c2c:	b29b      	uxth	r3, r3
 8002c2e:	8013      	strh	r3, [r2, #0]
 8002c30:	8b7b      	ldrh	r3, [r7, #26]
 8002c32:	2b00      	cmp	r3, #0
 8002c34:	d008      	beq.n	8002c48 <HAL_PCD_EP_DB_Receive+0x210>
 8002c36:	68fb      	ldr	r3, [r7, #12]
 8002c38:	6818      	ldr	r0, [r3, #0]
 8002c3a:	68bb      	ldr	r3, [r7, #8]
 8002c3c:	6959      	ldr	r1, [r3, #20]
 8002c3e:	68bb      	ldr	r3, [r7, #8]
 8002c40:	895a      	ldrh	r2, [r3, #10]
 8002c42:	8b7b      	ldrh	r3, [r7, #26]
 8002c44:	f003 faf4 	bl	8006230 <USB_ReadPMA>
 8002c48:	8b7b      	ldrh	r3, [r7, #26]
 8002c4a:	4618      	mov	r0, r3
 8002c4c:	3720      	adds	r7, #32
 8002c4e:	46bd      	mov	sp, r7
 8002c50:	bd80      	pop	{r7, pc}

08002c52 <HAL_PCD_EP_DB_Transmit>:
 8002c52:	b580      	push	{r7, lr}
 8002c54:	b0a2      	sub	sp, #136	; 0x88
 8002c56:	af00      	add	r7, sp, #0
 8002c58:	60f8      	str	r0, [r7, #12]
 8002c5a:	60b9      	str	r1, [r7, #8]
 8002c5c:	4613      	mov	r3, r2
 8002c5e:	80fb      	strh	r3, [r7, #6]
 8002c60:	88fb      	ldrh	r3, [r7, #6]
 8002c62:	f003 0340 	and.w	r3, r3, #64	; 0x40
 8002c66:	2b00      	cmp	r3, #0
 8002c68:	f000 81c7 	beq.w	8002ffa <HAL_PCD_EP_DB_Transmit+0x3a8>
 8002c6c:	68fb      	ldr	r3, [r7, #12]
 8002c6e:	681b      	ldr	r3, [r3, #0]
 8002c70:	f8b3 3050 	ldrh.w	r3, [r3, #80]	; 0x50
 8002c74:	b29b      	uxth	r3, r3
 8002c76:	461a      	mov	r2, r3
 8002c78:	68bb      	ldr	r3, [r7, #8]
 8002c7a:	781b      	ldrb	r3, [r3, #0]
 8002c7c:	00db      	lsls	r3, r3, #3
 8002c7e:	4413      	add	r3, r2
 8002c80:	3302      	adds	r3, #2
 8002c82:	005b      	lsls	r3, r3, #1
 8002c84:	68fa      	ldr	r2, [r7, #12]
 8002c86:	6812      	ldr	r2, [r2, #0]
 8002c88:	4413      	add	r3, r2
 8002c8a:	f503 6380 	add.w	r3, r3, #1024	; 0x400
 8002c8e:	881b      	ldrh	r3, [r3, #0]
 8002c90:	f3c3 0309 	ubfx	r3, r3, #0, #10
 8002c94:	f8a7 304e 	strh.w	r3, [r7, #78]	; 0x4e
 8002c98:	68bb      	ldr	r3, [r7, #8]
 8002c9a:	699a      	ldr	r2, [r3, #24]
 8002c9c:	f8b7 304e 	ldrh.w	r3, [r7, #78]	; 0x4e
 8002ca0:	429a      	cmp	r2, r3
 8002ca2:	d907      	bls.n	8002cb4 <HAL_PCD_EP_DB_Transmit+0x62>
 8002ca4:	68bb      	ldr	r3, [r7, #8]
 8002ca6:	699a      	ldr	r2, [r3, #24]
 8002ca8:	f8b7 304e 	ldrh.w	r3, [r7, #78]	; 0x4e
 8002cac:	1ad2      	subs	r2, r2, r3
 8002cae:	68bb      	ldr	r3, [r7, #8]
 8002cb0:	619a      	str	r2, [r3, #24]
 8002cb2:	e002      	b.n	8002cba <HAL_PCD_EP_DB_Transmit+0x68>
 8002cb4:	68bb      	ldr	r3, [r7, #8]
 8002cb6:	2200      	movs	r2, #0
 8002cb8:	619a      	str	r2, [r3, #24]
 8002cba:	68bb      	ldr	r3, [r7, #8]
 8002cbc:	699b      	ldr	r3, [r3, #24]
 8002cbe:	2b00      	cmp	r3, #0
 8002cc0:	f040 80b9 	bne.w	8002e36 <HAL_PCD_EP_DB_Transmit+0x1e4>
 8002cc4:	68bb      	ldr	r3, [r7, #8]
 8002cc6:	785b      	ldrb	r3, [r3, #1]
 8002cc8:	2b00      	cmp	r3, #0
 8002cca:	d126      	bne.n	8002d1a <HAL_PCD_EP_DB_Transmit+0xc8>
 8002ccc:	68fb      	ldr	r3, [r7, #12]
 8002cce:	681b      	ldr	r3, [r3, #0]
 8002cd0:	62bb      	str	r3, [r7, #40]	; 0x28
 8002cd2:	68fb      	ldr	r3, [r7, #12]
 8002cd4:	681b      	ldr	r3, [r3, #0]
 8002cd6:	f8b3 3050 	ldrh.w	r3, [r3, #80]	; 0x50
 8002cda:	b29b      	uxth	r3, r3
 8002cdc:	461a      	mov	r2, r3
 8002cde:	6abb      	ldr	r3, [r7, #40]	; 0x28
 8002ce0:	4413      	add	r3, r2
 8002ce2:	62bb      	str	r3, [r7, #40]	; 0x28
 8002ce4:	68bb      	ldr	r3, [r7, #8]
 8002ce6:	781b      	ldrb	r3, [r3, #0]
 8002ce8:	011a      	lsls	r2, r3, #4
 8002cea:	6abb      	ldr	r3, [r7, #40]	; 0x28
 8002cec:	4413      	add	r3, r2
 8002cee:	f203 4304 	addw	r3, r3, #1028	; 0x404
 8002cf2:	627b      	str	r3, [r7, #36]	; 0x24
 8002cf4:	6a7b      	ldr	r3, [r7, #36]	; 0x24
 8002cf6:	881b      	ldrh	r3, [r3, #0]
 8002cf8:	b29b      	uxth	r3, r3
 8002cfa:	f423 43f8 	bic.w	r3, r3, #31744	; 0x7c00
 8002cfe:	b29a      	uxth	r2, r3
 8002d00:	6a7b      	ldr	r3, [r7, #36]	; 0x24
 8002d02:	801a      	strh	r2, [r3, #0]
 8002d04:	6a7b      	ldr	r3, [r7, #36]	; 0x24
 8002d06:	881b      	ldrh	r3, [r3, #0]
 8002d08:	b29b      	uxth	r3, r3
 8002d0a:	ea6f 4343 	mvn.w	r3, r3, lsl #17
 8002d0e:	ea6f 4353 	mvn.w	r3, r3, lsr #17
 8002d12:	b29a      	uxth	r2, r3
 8002d14:	6a7b      	ldr	r3, [r7, #36]	; 0x24
 8002d16:	801a      	strh	r2, [r3, #0]
 8002d18:	e01a      	b.n	8002d50 <HAL_PCD_EP_DB_Transmit+0xfe>
 8002d1a:	68bb      	ldr	r3, [r7, #8]
 8002d1c:	785b      	ldrb	r3, [r3, #1]
 8002d1e:	2b01      	cmp	r3, #1
 8002d20:	d116      	bne.n	8002d50 <HAL_PCD_EP_DB_Transmit+0xfe>
 8002d22:	68fb      	ldr	r3, [r7, #12]
 8002d24:	681b      	ldr	r3, [r3, #0]
 8002d26:	633b      	str	r3, [r7, #48]	; 0x30
 8002d28:	68fb      	ldr	r3, [r7, #12]
 8002d2a:	681b      	ldr	r3, [r3, #0]
 8002d2c:	f8b3 3050 	ldrh.w	r3, [r3, #80]	; 0x50
 8002d30:	b29b      	uxth	r3, r3
 8002d32:	461a      	mov	r2, r3
 8002d34:	6b3b      	ldr	r3, [r7, #48]	; 0x30
 8002d36:	4413      	add	r3, r2
 8002d38:	633b      	str	r3, [r7, #48]	; 0x30
 8002d3a:	68bb      	ldr	r3, [r7, #8]
 8002d3c:	781b      	ldrb	r3, [r3, #0]
 8002d3e:	011a      	lsls	r2, r3, #4
 8002d40:	6b3b      	ldr	r3, [r7, #48]	; 0x30
 8002d42:	4413      	add	r3, r2
 8002d44:	f203 4304 	addw	r3, r3, #1028	; 0x404
 8002d48:	62fb      	str	r3, [r7, #44]	; 0x2c
 8002d4a:	6afb      	ldr	r3, [r7, #44]	; 0x2c
 8002d4c:	2200      	movs	r2, #0
 8002d4e:	801a      	strh	r2, [r3, #0]
 8002d50:	68fb      	ldr	r3, [r7, #12]
 8002d52:	681b      	ldr	r3, [r3, #0]
 8002d54:	623b      	str	r3, [r7, #32]
 8002d56:	68bb      	ldr	r3, [r7, #8]
 8002d58:	785b      	ldrb	r3, [r3, #1]
 8002d5a:	2b00      	cmp	r3, #0
 8002d5c:	d126      	bne.n	8002dac <HAL_PCD_EP_DB_Transmit+0x15a>
 8002d5e:	68fb      	ldr	r3, [r7, #12]
 8002d60:	681b      	ldr	r3, [r3, #0]
 8002d62:	61bb      	str	r3, [r7, #24]
 8002d64:	68fb      	ldr	r3, [r7, #12]
 8002d66:	681b      	ldr	r3, [r3, #0]
 8002d68:	f8b3 3050 	ldrh.w	r3, [r3, #80]	; 0x50
 8002d6c:	b29b      	uxth	r3, r3
 8002d6e:	461a      	mov	r2, r3
 8002d70:	69bb      	ldr	r3, [r7, #24]
 8002d72:	4413      	add	r3, r2
 8002d74:	61bb      	str	r3, [r7, #24]
 8002d76:	68bb      	ldr	r3, [r7, #8]
 8002d78:	781b      	ldrb	r3, [r3, #0]
 8002d7a:	011a      	lsls	r2, r3, #4
 8002d7c:	69bb      	ldr	r3, [r7, #24]
 8002d7e:	4413      	add	r3, r2
 8002d80:	f203 430c 	addw	r3, r3, #1036	; 0x40c
 8002d84:	617b      	str	r3, [r7, #20]
 8002d86:	697b      	ldr	r3, [r7, #20]
 8002d88:	881b      	ldrh	r3, [r3, #0]
 8002d8a:	b29b      	uxth	r3, r3
 8002d8c:	f423 43f8 	bic.w	r3, r3, #31744	; 0x7c00
 8002d90:	b29a      	uxth	r2, r3
 8002d92:	697b      	ldr	r3, [r7, #20]
 8002d94:	801a      	strh	r2, [r3, #0]
 8002d96:	697b      	ldr	r3, [r7, #20]
 8002d98:	881b      	ldrh	r3, [r3, #0]
 8002d9a:	b29b      	uxth	r3, r3
 8002d9c:	ea6f 4343 	mvn.w	r3, r3, lsl #17
 8002da0:	ea6f 4353 	mvn.w	r3, r3, lsr #17
 8002da4:	b29a      	uxth	r2, r3
 8002da6:	697b      	ldr	r3, [r7, #20]
 8002da8:	801a      	strh	r2, [r3, #0]
 8002daa:	e017      	b.n	8002ddc <HAL_PCD_EP_DB_Transmit+0x18a>
 8002dac:	68bb      	ldr	r3, [r7, #8]
 8002dae:	785b      	ldrb	r3, [r3, #1]
 8002db0:	2b01      	cmp	r3, #1
 8002db2:	d113      	bne.n	8002ddc <HAL_PCD_EP_DB_Transmit+0x18a>
 8002db4:	68fb      	ldr	r3, [r7, #12]
 8002db6:	681b      	ldr	r3, [r3, #0]
 8002db8:	f8b3 3050 	ldrh.w	r3, [r3, #80]	; 0x50
 8002dbc:	b29b      	uxth	r3, r3
 8002dbe:	461a      	mov	r2, r3
 8002dc0:	6a3b      	ldr	r3, [r7, #32]
 8002dc2:	4413      	add	r3, r2
 8002dc4:	623b      	str	r3, [r7, #32]
 8002dc6:	68bb      	ldr	r3, [r7, #8]
 8002dc8:	781b      	ldrb	r3, [r3, #0]
 8002dca:	011a      	lsls	r2, r3, #4
 8002dcc:	6a3b      	ldr	r3, [r7, #32]
 8002dce:	4413      	add	r3, r2
 8002dd0:	f203 430c 	addw	r3, r3, #1036	; 0x40c
 8002dd4:	61fb      	str	r3, [r7, #28]
 8002dd6:	69fb      	ldr	r3, [r7, #28]
 8002dd8:	2200      	movs	r2, #0
 8002dda:	801a      	strh	r2, [r3, #0]
 8002ddc:	68bb      	ldr	r3, [r7, #8]
 8002dde:	781b      	ldrb	r3, [r3, #0]
 8002de0:	4619      	mov	r1, r3
 8002de2:	68f8      	ldr	r0, [r7, #12]
 8002de4:	f004 fc81 	bl	80076ea <HAL_PCD_DataInStageCallback>
 8002de8:	88fb      	ldrh	r3, [r7, #6]
 8002dea:	f403 4380 	and.w	r3, r3, #16384	; 0x4000
 8002dee:	2b00      	cmp	r3, #0
 8002df0:	f000 82d4 	beq.w	800339c <HAL_PCD_EP_DB_Transmit+0x74a>
 8002df4:	68fb      	ldr	r3, [r7, #12]
 8002df6:	681b      	ldr	r3, [r3, #0]
 8002df8:	461a      	mov	r2, r3
 8002dfa:	68bb      	ldr	r3, [r7, #8]
 8002dfc:	781b      	ldrb	r3, [r3, #0]
 8002dfe:	009b      	lsls	r3, r3, #2
 8002e00:	4413      	add	r3, r2
 8002e02:	881b      	ldrh	r3, [r3, #0]
 8002e04:	b29b      	uxth	r3, r3
 8002e06:	f423 43e0 	bic.w	r3, r3, #28672	; 0x7000
 8002e0a:	f023 0370 	bic.w	r3, r3, #112	; 0x70
 8002e0e:	827b      	strh	r3, [r7, #18]
 8002e10:	68fb      	ldr	r3, [r7, #12]
 8002e12:	681b      	ldr	r3, [r3, #0]
 8002e14:	461a      	mov	r2, r3
 8002e16:	68bb      	ldr	r3, [r7, #8]
 8002e18:	781b      	ldrb	r3, [r3, #0]
 8002e1a:	009b      	lsls	r3, r3, #2
 8002e1c:	441a      	add	r2, r3
 8002e1e:	8a7b      	ldrh	r3, [r7, #18]
 8002e20:	f043 437f 	orr.w	r3, r3, #4278190080	; 0xff000000
 8002e24:	f443 037f 	orr.w	r3, r3, #16711680	; 0xff0000
 8002e28:	f443 4340 	orr.w	r3, r3, #49152	; 0xc000
 8002e2c:	f043 0380 	orr.w	r3, r3, #128	; 0x80
 8002e30:	b29b      	uxth	r3, r3
 8002e32:	8013      	strh	r3, [r2, #0]
 8002e34:	e2b2      	b.n	800339c <HAL_PCD_EP_DB_Transmit+0x74a>
 8002e36:	88fb      	ldrh	r3, [r7, #6]
 8002e38:	f403 4380 	and.w	r3, r3, #16384	; 0x4000
 8002e3c:	2b00      	cmp	r3, #0
 8002e3e:	d021      	beq.n	8002e84 <HAL_PCD_EP_DB_Transmit+0x232>
 8002e40:	68fb      	ldr	r3, [r7, #12]
 8002e42:	681b      	ldr	r3, [r3, #0]
 8002e44:	461a      	mov	r2, r3
 8002e46:	68bb      	ldr	r3, [r7, #8]
 8002e48:	781b      	ldrb	r3, [r3, #0]
 8002e4a:	009b      	lsls	r3, r3, #2
 8002e4c:	4413      	add	r3, r2
 8002e4e:	881b      	ldrh	r3, [r3, #0]
 8002e50:	b29b      	uxth	r3, r3
 8002e52:	f423 43e0 	bic.w	r3, r3, #28672	; 0x7000
 8002e56:	f023 0370 	bic.w	r3, r3, #112	; 0x70
 8002e5a:	f8a7 3044 	strh.w	r3, [r7, #68]	; 0x44
 8002e5e:	68fb      	ldr	r3, [r7, #12]
 8002e60:	681b      	ldr	r3, [r3, #0]
 8002e62:	461a      	mov	r2, r3
 8002e64:	68bb      	ldr	r3, [r7, #8]
 8002e66:	781b      	ldrb	r3, [r3, #0]
 8002e68:	009b      	lsls	r3, r3, #2
 8002e6a:	441a      	add	r2, r3
 8002e6c:	f8b7 3044 	ldrh.w	r3, [r7, #68]	; 0x44
 8002e70:	f043 437f 	orr.w	r3, r3, #4278190080	; 0xff000000
 8002e74:	f443 037f 	orr.w	r3, r3, #16711680	; 0xff0000
 8002e78:	f443 4340 	orr.w	r3, r3, #49152	; 0xc000
 8002e7c:	f043 0380 	orr.w	r3, r3, #128	; 0x80
 8002e80:	b29b      	uxth	r3, r3
 8002e82:	8013      	strh	r3, [r2, #0]
 8002e84:	68bb      	ldr	r3, [r7, #8]
 8002e86:	f893 3024 	ldrb.w	r3, [r3, #36]	; 0x24
 8002e8a:	2b01      	cmp	r3, #1
 8002e8c:	f040 8286 	bne.w	800339c <HAL_PCD_EP_DB_Transmit+0x74a>
 8002e90:	68bb      	ldr	r3, [r7, #8]
 8002e92:	695a      	ldr	r2, [r3, #20]
 8002e94:	f8b7 304e 	ldrh.w	r3, [r7, #78]	; 0x4e
 8002e98:	441a      	add	r2, r3
 8002e9a:	68bb      	ldr	r3, [r7, #8]
 8002e9c:	615a      	str	r2, [r3, #20]
 8002e9e:	68bb      	ldr	r3, [r7, #8]
 8002ea0:	69da      	ldr	r2, [r3, #28]
 8002ea2:	f8b7 304e 	ldrh.w	r3, [r7, #78]	; 0x4e
 8002ea6:	441a      	add	r2, r3
 8002ea8:	68bb      	ldr	r3, [r7, #8]
 8002eaa:	61da      	str	r2, [r3, #28]
 8002eac:	68bb      	ldr	r3, [r7, #8]
 8002eae:	6a1a      	ldr	r2, [r3, #32]
 8002eb0:	68bb      	ldr	r3, [r7, #8]
 8002eb2:	691b      	ldr	r3, [r3, #16]
 8002eb4:	429a      	cmp	r2, r3
 8002eb6:	d309      	bcc.n	8002ecc <HAL_PCD_EP_DB_Transmit+0x27a>
 8002eb8:	68bb      	ldr	r3, [r7, #8]
 8002eba:	691b      	ldr	r3, [r3, #16]
 8002ebc:	653b      	str	r3, [r7, #80]	; 0x50
 8002ebe:	68bb      	ldr	r3, [r7, #8]
 8002ec0:	6a1a      	ldr	r2, [r3, #32]
 8002ec2:	6d3b      	ldr	r3, [r7, #80]	; 0x50
 8002ec4:	1ad2      	subs	r2, r2, r3
 8002ec6:	68bb      	ldr	r3, [r7, #8]
 8002ec8:	621a      	str	r2, [r3, #32]
 8002eca:	e015      	b.n	8002ef8 <HAL_PCD_EP_DB_Transmit+0x2a6>
 8002ecc:	68bb      	ldr	r3, [r7, #8]
 8002ece:	6a1b      	ldr	r3, [r3, #32]
 8002ed0:	2b00      	cmp	r3, #0
 8002ed2:	d107      	bne.n	8002ee4 <HAL_PCD_EP_DB_Transmit+0x292>
 8002ed4:	f8b7 304e 	ldrh.w	r3, [r7, #78]	; 0x4e
 8002ed8:	653b      	str	r3, [r7, #80]	; 0x50
 8002eda:	68bb      	ldr	r3, [r7, #8]
 8002edc:	2200      	movs	r2, #0
 8002ede:	f883 2024 	strb.w	r2, [r3, #36]	; 0x24
 8002ee2:	e009      	b.n	8002ef8 <HAL_PCD_EP_DB_Transmit+0x2a6>
 8002ee4:	68bb      	ldr	r3, [r7, #8]
 8002ee6:	2200      	movs	r2, #0
 8002ee8:	f883 2024 	strb.w	r2, [r3, #36]	; 0x24
 8002eec:	68bb      	ldr	r3, [r7, #8]
 8002eee:	6a1b      	ldr	r3, [r3, #32]
 8002ef0:	653b      	str	r3, [r7, #80]	; 0x50
 8002ef2:	68bb      	ldr	r3, [r7, #8]
 8002ef4:	2200      	movs	r2, #0
 8002ef6:	621a      	str	r2, [r3, #32]
 8002ef8:	68bb      	ldr	r3, [r7, #8]
 8002efa:	785b      	ldrb	r3, [r3, #1]
 8002efc:	2b00      	cmp	r3, #0
 8002efe:	d155      	bne.n	8002fac <HAL_PCD_EP_DB_Transmit+0x35a>
 8002f00:	68fb      	ldr	r3, [r7, #12]
 8002f02:	681b      	ldr	r3, [r3, #0]
 8002f04:	63bb      	str	r3, [r7, #56]	; 0x38
 8002f06:	68fb      	ldr	r3, [r7, #12]
 8002f08:	681b      	ldr	r3, [r3, #0]
 8002f0a:	f8b3 3050 	ldrh.w	r3, [r3, #80]	; 0x50
 8002f0e:	b29b      	uxth	r3, r3
 8002f10:	461a      	mov	r2, r3
 8002f12:	6bbb      	ldr	r3, [r7, #56]	; 0x38
 8002f14:	4413      	add	r3, r2
 8002f16:	63bb      	str	r3, [r7, #56]	; 0x38
 8002f18:	68bb      	ldr	r3, [r7, #8]
 8002f1a:	781b      	ldrb	r3, [r3, #0]
 8002f1c:	011a      	lsls	r2, r3, #4
 8002f1e:	6bbb      	ldr	r3, [r7, #56]	; 0x38
 8002f20:	4413      	add	r3, r2
 8002f22:	f203 4304 	addw	r3, r3, #1028	; 0x404
 8002f26:	637b      	str	r3, [r7, #52]	; 0x34
 8002f28:	6d3b      	ldr	r3, [r7, #80]	; 0x50
 8002f2a:	2b00      	cmp	r3, #0
 8002f2c:	d112      	bne.n	8002f54 <HAL_PCD_EP_DB_Transmit+0x302>
 8002f2e:	6b7b      	ldr	r3, [r7, #52]	; 0x34
 8002f30:	881b      	ldrh	r3, [r3, #0]
 8002f32:	b29b      	uxth	r3, r3
 8002f34:	f423 43f8 	bic.w	r3, r3, #31744	; 0x7c00
 8002f38:	b29a      	uxth	r2, r3
 8002f3a:	6b7b      	ldr	r3, [r7, #52]	; 0x34
 8002f3c:	801a      	strh	r2, [r3, #0]
 8002f3e:	6b7b      	ldr	r3, [r7, #52]	; 0x34
 8002f40:	881b      	ldrh	r3, [r3, #0]
 8002f42:	b29b      	uxth	r3, r3
 8002f44:	ea6f 4343 	mvn.w	r3, r3, lsl #17
 8002f48:	ea6f 4353 	mvn.w	r3, r3, lsr #17
 8002f4c:	b29a      	uxth	r2, r3
 8002f4e:	6b7b      	ldr	r3, [r7, #52]	; 0x34
 8002f50:	801a      	strh	r2, [r3, #0]
 8002f52:	e047      	b.n	8002fe4 <HAL_PCD_EP_DB_Transmit+0x392>
 8002f54:	6d3b      	ldr	r3, [r7, #80]	; 0x50
 8002f56:	2b3e      	cmp	r3, #62	; 0x3e
 8002f58:	d811      	bhi.n	8002f7e <HAL_PCD_EP_DB_Transmit+0x32c>
 8002f5a:	6d3b      	ldr	r3, [r7, #80]	; 0x50
 8002f5c:	085b      	lsrs	r3, r3, #1
 8002f5e:	64bb      	str	r3, [r7, #72]	; 0x48
 8002f60:	6d3b      	ldr	r3, [r7, #80]	; 0x50
 8002f62:	f003 0301 	and.w	r3, r3, #1
 8002f66:	2b00      	cmp	r3, #0
 8002f68:	d002      	beq.n	8002f70 <HAL_PCD_EP_DB_Transmit+0x31e>
 8002f6a:	6cbb      	ldr	r3, [r7, #72]	; 0x48
 8002f6c:	3301      	adds	r3, #1
 8002f6e:	64bb      	str	r3, [r7, #72]	; 0x48
 8002f70:	6cbb      	ldr	r3, [r7, #72]	; 0x48
 8002f72:	b29b      	uxth	r3, r3
 8002f74:	029b      	lsls	r3, r3, #10
 8002f76:	b29a      	uxth	r2, r3
 8002f78:	6b7b      	ldr	r3, [r7, #52]	; 0x34
 8002f7a:	801a      	strh	r2, [r3, #0]
 8002f7c:	e032      	b.n	8002fe4 <HAL_PCD_EP_DB_Transmit+0x392>
 8002f7e:	6d3b      	ldr	r3, [r7, #80]	; 0x50
 8002f80:	095b      	lsrs	r3, r3, #5
 8002f82:	64bb      	str	r3, [r7, #72]	; 0x48
 8002f84:	6d3b      	ldr	r3, [r7, #80]	; 0x50
 8002f86:	f003 031f 	and.w	r3, r3, #31
 8002f8a:	2b00      	cmp	r3, #0
 8002f8c:	d102      	bne.n	8002f94 <HAL_PCD_EP_DB_Transmit+0x342>
 8002f8e:	6cbb      	ldr	r3, [r7, #72]	; 0x48
 8002f90:	3b01      	subs	r3, #1
 8002f92:	64bb      	str	r3, [r7, #72]	; 0x48
 8002f94:	6cbb      	ldr	r3, [r7, #72]	; 0x48
 8002f96:	b29b      	uxth	r3, r3
 8002f98:	029b      	lsls	r3, r3, #10
 8002f9a:	b29b      	uxth	r3, r3
 8002f9c:	ea6f 4343 	mvn.w	r3, r3, lsl #17
 8002fa0:	ea6f 4353 	mvn.w	r3, r3, lsr #17
 8002fa4:	b29a      	uxth	r2, r3
 8002fa6:	6b7b      	ldr	r3, [r7, #52]	; 0x34
 8002fa8:	801a      	strh	r2, [r3, #0]
 8002faa:	e01b      	b.n	8002fe4 <HAL_PCD_EP_DB_Transmit+0x392>
 8002fac:	68bb      	ldr	r3, [r7, #8]
 8002fae:	785b      	ldrb	r3, [r3, #1]
 8002fb0:	2b01      	cmp	r3, #1
 8002fb2:	d117      	bne.n	8002fe4 <HAL_PCD_EP_DB_Transmit+0x392>
 8002fb4:	68fb      	ldr	r3, [r7, #12]
 8002fb6:	681b      	ldr	r3, [r3, #0]
 8002fb8:	643b      	str	r3, [r7, #64]	; 0x40
 8002fba:	68fb      	ldr	r3, [r7, #12]
 8002fbc:	681b      	ldr	r3, [r3, #0]
 8002fbe:	f8b3 3050 	ldrh.w	r3, [r3, #80]	; 0x50
 8002fc2:	b29b      	uxth	r3, r3
 8002fc4:	461a      	mov	r2, r3
 8002fc6:	6c3b      	ldr	r3, [r7, #64]	; 0x40
 8002fc8:	4413      	add	r3, r2
 8002fca:	643b      	str	r3, [r7, #64]	; 0x40
 8002fcc:	68bb      	ldr	r3, [r7, #8]
 8002fce:	781b      	ldrb	r3, [r3, #0]
 8002fd0:	011a      	lsls	r2, r3, #4
 8002fd2:	6c3b      	ldr	r3, [r7, #64]	; 0x40
 8002fd4:	4413      	add	r3, r2
 8002fd6:	f203 4304 	addw	r3, r3, #1028	; 0x404
 8002fda:	63fb      	str	r3, [r7, #60]	; 0x3c
 8002fdc:	6d3b      	ldr	r3, [r7, #80]	; 0x50
 8002fde:	b29a      	uxth	r2, r3
 8002fe0:	6bfb      	ldr	r3, [r7, #60]	; 0x3c
 8002fe2:	801a      	strh	r2, [r3, #0]
 8002fe4:	68fb      	ldr	r3, [r7, #12]
 8002fe6:	6818      	ldr	r0, [r3, #0]
 8002fe8:	68bb      	ldr	r3, [r7, #8]
 8002fea:	6959      	ldr	r1, [r3, #20]
 8002fec:	68bb      	ldr	r3, [r7, #8]
 8002fee:	891a      	ldrh	r2, [r3, #8]
 8002ff0:	6d3b      	ldr	r3, [r7, #80]	; 0x50
 8002ff2:	b29b      	uxth	r3, r3
 8002ff4:	f003 f8d7 	bl	80061a6 <USB_WritePMA>
 8002ff8:	e1d0      	b.n	800339c <HAL_PCD_EP_DB_Transmit+0x74a>
 8002ffa:	68fb      	ldr	r3, [r7, #12]
 8002ffc:	681b      	ldr	r3, [r3, #0]
 8002ffe:	f8b3 3050 	ldrh.w	r3, [r3, #80]	; 0x50
 8003002:	b29b      	uxth	r3, r3
 8003004:	461a      	mov	r2, r3
 8003006:	68bb      	ldr	r3, [r7, #8]
 8003008:	781b      	ldrb	r3, [r3, #0]
 800300a:	00db      	lsls	r3, r3, #3
 800300c:	4413      	add	r3, r2
 800300e:	3306      	adds	r3, #6
 8003010:	005b      	lsls	r3, r3, #1
 8003012:	68fa      	ldr	r2, [r7, #12]
 8003014:	6812      	ldr	r2, [r2, #0]
 8003016:	4413      	add	r3, r2
 8003018:	f503 6380 	add.w	r3, r3, #1024	; 0x400
 800301c:	881b      	ldrh	r3, [r3, #0]
 800301e:	f3c3 0309 	ubfx	r3, r3, #0, #10
 8003022:	f8a7 304e 	strh.w	r3, [r7, #78]	; 0x4e
 8003026:	68bb      	ldr	r3, [r7, #8]
 8003028:	699a      	ldr	r2, [r3, #24]
 800302a:	f8b7 304e 	ldrh.w	r3, [r7, #78]	; 0x4e
 800302e:	429a      	cmp	r2, r3
 8003030:	d307      	bcc.n	8003042 <HAL_PCD_EP_DB_Transmit+0x3f0>
 8003032:	68bb      	ldr	r3, [r7, #8]
 8003034:	699a      	ldr	r2, [r3, #24]
 8003036:	f8b7 304e 	ldrh.w	r3, [r7, #78]	; 0x4e
 800303a:	1ad2      	subs	r2, r2, r3
 800303c:	68bb      	ldr	r3, [r7, #8]
 800303e:	619a      	str	r2, [r3, #24]
 8003040:	e002      	b.n	8003048 <HAL_PCD_EP_DB_Transmit+0x3f6>
 8003042:	68bb      	ldr	r3, [r7, #8]
 8003044:	2200      	movs	r2, #0
 8003046:	619a      	str	r2, [r3, #24]
 8003048:	68bb      	ldr	r3, [r7, #8]
 800304a:	699b      	ldr	r3, [r3, #24]
 800304c:	2b00      	cmp	r3, #0
 800304e:	f040 80c4 	bne.w	80031da <HAL_PCD_EP_DB_Transmit+0x588>
 8003052:	68bb      	ldr	r3, [r7, #8]
 8003054:	785b      	ldrb	r3, [r3, #1]
 8003056:	2b00      	cmp	r3, #0
 8003058:	d126      	bne.n	80030a8 <HAL_PCD_EP_DB_Transmit+0x456>
 800305a:	68fb      	ldr	r3, [r7, #12]
 800305c:	681b      	ldr	r3, [r3, #0]
 800305e:	66fb      	str	r3, [r7, #108]	; 0x6c
 8003060:	68fb      	ldr	r3, [r7, #12]
 8003062:	681b      	ldr	r3, [r3, #0]
 8003064:	f8b3 3050 	ldrh.w	r3, [r3, #80]	; 0x50
 8003068:	b29b      	uxth	r3, r3
 800306a:	461a      	mov	r2, r3
 800306c:	6efb      	ldr	r3, [r7, #108]	; 0x6c
 800306e:	4413      	add	r3, r2
 8003070:	66fb      	str	r3, [r7, #108]	; 0x6c
 8003072:	68bb      	ldr	r3, [r7, #8]
 8003074:	781b      	ldrb	r3, [r3, #0]
 8003076:	011a      	lsls	r2, r3, #4
 8003078:	6efb      	ldr	r3, [r7, #108]	; 0x6c
 800307a:	4413      	add	r3, r2
 800307c:	f203 4304 	addw	r3, r3, #1028	; 0x404
 8003080:	66bb      	str	r3, [r7, #104]	; 0x68
 8003082:	6ebb      	ldr	r3, [r7, #104]	; 0x68
 8003084:	881b      	ldrh	r3, [r3, #0]
 8003086:	b29b      	uxth	r3, r3
 8003088:	f423 43f8 	bic.w	r3, r3, #31744	; 0x7c00
 800308c:	b29a      	uxth	r2, r3
 800308e:	6ebb      	ldr	r3, [r7, #104]	; 0x68
 8003090:	801a      	strh	r2, [r3, #0]
 8003092:	6ebb      	ldr	r3, [r7, #104]	; 0x68
 8003094:	881b      	ldrh	r3, [r3, #0]
 8003096:	b29b      	uxth	r3, r3
 8003098:	ea6f 4343 	mvn.w	r3, r3, lsl #17
 800309c:	ea6f 4353 	mvn.w	r3, r3, lsr #17
 80030a0:	b29a      	uxth	r2, r3
 80030a2:	6ebb      	ldr	r3, [r7, #104]	; 0x68
 80030a4:	801a      	strh	r2, [r3, #0]
 80030a6:	e01a      	b.n	80030de <HAL_PCD_EP_DB_Transmit+0x48c>
 80030a8:	68bb      	ldr	r3, [r7, #8]
 80030aa:	785b      	ldrb	r3, [r3, #1]
 80030ac:	2b01      	cmp	r3, #1
 80030ae:	d116      	bne.n	80030de <HAL_PCD_EP_DB_Transmit+0x48c>
 80030b0:	68fb      	ldr	r3, [r7, #12]
 80030b2:	681b      	ldr	r3, [r3, #0]
 80030b4:	677b      	str	r3, [r7, #116]	; 0x74
 80030b6:	68fb      	ldr	r3, [r7, #12]
 80030b8:	681b      	ldr	r3, [r3, #0]
 80030ba:	f8b3 3050 	ldrh.w	r3, [r3, #80]	; 0x50
 80030be:	b29b      	uxth	r3, r3
 80030c0:	461a      	mov	r2, r3
 80030c2:	6f7b      	ldr	r3, [r7, #116]	; 0x74
 80030c4:	4413      	add	r3, r2
 80030c6:	677b      	str	r3, [r7, #116]	; 0x74
 80030c8:	68bb      	ldr	r3, [r7, #8]
 80030ca:	781b      	ldrb	r3, [r3, #0]
 80030cc:	011a      	lsls	r2, r3, #4
 80030ce:	6f7b      	ldr	r3, [r7, #116]	; 0x74
 80030d0:	4413      	add	r3, r2
 80030d2:	f203 4304 	addw	r3, r3, #1028	; 0x404
 80030d6:	673b      	str	r3, [r7, #112]	; 0x70
 80030d8:	6f3b      	ldr	r3, [r7, #112]	; 0x70
 80030da:	2200      	movs	r2, #0
 80030dc:	801a      	strh	r2, [r3, #0]
 80030de:	68fb      	ldr	r3, [r7, #12]
 80030e0:	681b      	ldr	r3, [r3, #0]
 80030e2:	67bb      	str	r3, [r7, #120]	; 0x78
 80030e4:	68bb      	ldr	r3, [r7, #8]
 80030e6:	785b      	ldrb	r3, [r3, #1]
 80030e8:	2b00      	cmp	r3, #0
 80030ea:	d12f      	bne.n	800314c <HAL_PCD_EP_DB_Transmit+0x4fa>
 80030ec:	68fb      	ldr	r3, [r7, #12]
 80030ee:	681b      	ldr	r3, [r3, #0]
 80030f0:	f8c7 3080 	str.w	r3, [r7, #128]	; 0x80
 80030f4:	68fb      	ldr	r3, [r7, #12]
 80030f6:	681b      	ldr	r3, [r3, #0]
 80030f8:	f8b3 3050 	ldrh.w	r3, [r3, #80]	; 0x50
 80030fc:	b29b      	uxth	r3, r3
 80030fe:	461a      	mov	r2, r3
 8003100:	f8d7 3080 	ldr.w	r3, [r7, #128]	; 0x80
 8003104:	4413      	add	r3, r2
 8003106:	f8c7 3080 	str.w	r3, [r7, #128]	; 0x80
 800310a:	68bb      	ldr	r3, [r7, #8]
 800310c:	781b      	ldrb	r3, [r3, #0]
 800310e:	011a      	lsls	r2, r3, #4
 8003110:	f8d7 3080 	ldr.w	r3, [r7, #128]	; 0x80
 8003114:	4413      	add	r3, r2
 8003116:	f203 430c 	addw	r3, r3, #1036	; 0x40c
 800311a:	f8c7 3084 	str.w	r3, [r7, #132]	; 0x84
 800311e:	f8d7 3084 	ldr.w	r3, [r7, #132]	; 0x84
 8003122:	881b      	ldrh	r3, [r3, #0]
 8003124:	b29b      	uxth	r3, r3
 8003126:	f423 43f8 	bic.w	r3, r3, #31744	; 0x7c00
 800312a:	b29a      	uxth	r2, r3
 800312c:	f8d7 3084 	ldr.w	r3, [r7, #132]	; 0x84
 8003130:	801a      	strh	r2, [r3, #0]
 8003132:	f8d7 3084 	ldr.w	r3, [r7, #132]	; 0x84
 8003136:	881b      	ldrh	r3, [r3, #0]
 8003138:	b29b      	uxth	r3, r3
 800313a:	ea6f 4343 	mvn.w	r3, r3, lsl #17
 800313e:	ea6f 4353 	mvn.w	r3, r3, lsr #17
 8003142:	b29a      	uxth	r2, r3
 8003144:	f8d7 3084 	ldr.w	r3, [r7, #132]	; 0x84
 8003148:	801a      	strh	r2, [r3, #0]
 800314a:	e017      	b.n	800317c <HAL_PCD_EP_DB_Transmit+0x52a>
 800314c:	68bb      	ldr	r3, [r7, #8]
 800314e:	785b      	ldrb	r3, [r3, #1]
 8003150:	2b01      	cmp	r3, #1
 8003152:	d113      	bne.n	800317c <HAL_PCD_EP_DB_Transmit+0x52a>
 8003154:	68fb      	ldr	r3, [r7, #12]
 8003156:	681b      	ldr	r3, [r3, #0]
 8003158:	f8b3 3050 	ldrh.w	r3, [r3, #80]	; 0x50
 800315c:	b29b      	uxth	r3, r3
 800315e:	461a      	mov	r2, r3
 8003160:	6fbb      	ldr	r3, [r7, #120]	; 0x78
 8003162:	4413      	add	r3, r2
 8003164:	67bb      	str	r3, [r7, #120]	; 0x78
 8003166:	68bb      	ldr	r3, [r7, #8]
 8003168:	781b      	ldrb	r3, [r3, #0]
 800316a:	011a      	lsls	r2, r3, #4
 800316c:	6fbb      	ldr	r3, [r7, #120]	; 0x78
 800316e:	4413      	add	r3, r2
 8003170:	f203 430c 	addw	r3, r3, #1036	; 0x40c
 8003174:	67fb      	str	r3, [r7, #124]	; 0x7c
 8003176:	6ffb      	ldr	r3, [r7, #124]	; 0x7c
 8003178:	2200      	movs	r2, #0
 800317a:	801a      	strh	r2, [r3, #0]
 800317c:	68bb      	ldr	r3, [r7, #8]
 800317e:	781b      	ldrb	r3, [r3, #0]
 8003180:	4619      	mov	r1, r3
 8003182:	68f8      	ldr	r0, [r7, #12]
 8003184:	f004 fab1 	bl	80076ea <HAL_PCD_DataInStageCallback>
 8003188:	88fb      	ldrh	r3, [r7, #6]
 800318a:	f403 4380 	and.w	r3, r3, #16384	; 0x4000
 800318e:	2b00      	cmp	r3, #0
 8003190:	f040 8104 	bne.w	800339c <HAL_PCD_EP_DB_Transmit+0x74a>
 8003194:	68fb      	ldr	r3, [r7, #12]
 8003196:	681b      	ldr	r3, [r3, #0]
 8003198:	461a      	mov	r2, r3
 800319a:	68bb      	ldr	r3, [r7, #8]
 800319c:	781b      	ldrb	r3, [r3, #0]
 800319e:	009b      	lsls	r3, r3, #2
 80031a0:	4413      	add	r3, r2
 80031a2:	881b      	ldrh	r3, [r3, #0]
 80031a4:	b29b      	uxth	r3, r3
 80031a6:	f423 43e0 	bic.w	r3, r3, #28672	; 0x7000
 80031aa:	f023 0370 	bic.w	r3, r3, #112	; 0x70
 80031ae:	f8a7 3046 	strh.w	r3, [r7, #70]	; 0x46
 80031b2:	68fb      	ldr	r3, [r7, #12]
 80031b4:	681b      	ldr	r3, [r3, #0]
 80031b6:	461a      	mov	r2, r3
 80031b8:	68bb      	ldr	r3, [r7, #8]
 80031ba:	781b      	ldrb	r3, [r3, #0]
 80031bc:	009b      	lsls	r3, r3, #2
 80031be:	441a      	add	r2, r3
 80031c0:	f8b7 3046 	ldrh.w	r3, [r7, #70]	; 0x46
 80031c4:	f043 437f 	orr.w	r3, r3, #4278190080	; 0xff000000
 80031c8:	f443 037f 	orr.w	r3, r3, #16711680	; 0xff0000
 80031cc:	f443 4340 	orr.w	r3, r3, #49152	; 0xc000
 80031d0:	f043 0380 	orr.w	r3, r3, #128	; 0x80
 80031d4:	b29b      	uxth	r3, r3
 80031d6:	8013      	strh	r3, [r2, #0]
 80031d8:	e0e0      	b.n	800339c <HAL_PCD_EP_DB_Transmit+0x74a>
 80031da:	88fb      	ldrh	r3, [r7, #6]
 80031dc:	f403 4380 	and.w	r3, r3, #16384	; 0x4000
 80031e0:	2b00      	cmp	r3, #0
 80031e2:	d121      	bne.n	8003228 <HAL_PCD_EP_DB_Transmit+0x5d6>
 80031e4:	68fb      	ldr	r3, [r7, #12]
 80031e6:	681b      	ldr	r3, [r3, #0]
 80031e8:	461a      	mov	r2, r3
 80031ea:	68bb      	ldr	r3, [r7, #8]
 80031ec:	781b      	ldrb	r3, [r3, #0]
 80031ee:	009b      	lsls	r3, r3, #2
 80031f0:	4413      	add	r3, r2
 80031f2:	881b      	ldrh	r3, [r3, #0]
 80031f4:	b29b      	uxth	r3, r3
 80031f6:	f423 43e0 	bic.w	r3, r3, #28672	; 0x7000
 80031fa:	f023 0370 	bic.w	r3, r3, #112	; 0x70
 80031fe:	f8a7 304c 	strh.w	r3, [r7, #76]	; 0x4c
 8003202:	68fb      	ldr	r3, [r7, #12]
 8003204:	681b      	ldr	r3, [r3, #0]
 8003206:	461a      	mov	r2, r3
 8003208:	68bb      	ldr	r3, [r7, #8]
 800320a:	781b      	ldrb	r3, [r3, #0]
 800320c:	009b      	lsls	r3, r3, #2
 800320e:	441a      	add	r2, r3
 8003210:	f8b7 304c 	ldrh.w	r3, [r7, #76]	; 0x4c
 8003214:	f043 437f 	orr.w	r3, r3, #4278190080	; 0xff000000
 8003218:	f443 037f 	orr.w	r3, r3, #16711680	; 0xff0000
 800321c:	f443 4340 	orr.w	r3, r3, #49152	; 0xc000
 8003220:	f043 0380 	orr.w	r3, r3, #128	; 0x80
 8003224:	b29b      	uxth	r3, r3
 8003226:	8013      	strh	r3, [r2, #0]
 8003228:	68bb      	ldr	r3, [r7, #8]
 800322a:	f893 3024 	ldrb.w	r3, [r3, #36]	; 0x24
 800322e:	2b01      	cmp	r3, #1
 8003230:	f040 80b4 	bne.w	800339c <HAL_PCD_EP_DB_Transmit+0x74a>
 8003234:	68bb      	ldr	r3, [r7, #8]
 8003236:	695a      	ldr	r2, [r3, #20]
 8003238:	f8b7 304e 	ldrh.w	r3, [r7, #78]	; 0x4e
 800323c:	441a      	add	r2, r3
 800323e:	68bb      	ldr	r3, [r7, #8]
 8003240:	615a      	str	r2, [r3, #20]
 8003242:	68bb      	ldr	r3, [r7, #8]
 8003244:	69da      	ldr	r2, [r3, #28]
 8003246:	f8b7 304e 	ldrh.w	r3, [r7, #78]	; 0x4e
 800324a:	441a      	add	r2, r3
 800324c:	68bb      	ldr	r3, [r7, #8]
 800324e:	61da      	str	r2, [r3, #28]
 8003250:	68bb      	ldr	r3, [r7, #8]
 8003252:	6a1a      	ldr	r2, [r3, #32]
 8003254:	68bb      	ldr	r3, [r7, #8]
 8003256:	691b      	ldr	r3, [r3, #16]
 8003258:	429a      	cmp	r2, r3
 800325a:	d309      	bcc.n	8003270 <HAL_PCD_EP_DB_Transmit+0x61e>
 800325c:	68bb      	ldr	r3, [r7, #8]
 800325e:	691b      	ldr	r3, [r3, #16]
 8003260:	653b      	str	r3, [r7, #80]	; 0x50
 8003262:	68bb      	ldr	r3, [r7, #8]
 8003264:	6a1a      	ldr	r2, [r3, #32]
 8003266:	6d3b      	ldr	r3, [r7, #80]	; 0x50
 8003268:	1ad2      	subs	r2, r2, r3
 800326a:	68bb      	ldr	r3, [r7, #8]
 800326c:	621a      	str	r2, [r3, #32]
 800326e:	e015      	b.n	800329c <HAL_PCD_EP_DB_Transmit+0x64a>
 8003270:	68bb      	ldr	r3, [r7, #8]
 8003272:	6a1b      	ldr	r3, [r3, #32]
 8003274:	2b00      	cmp	r3, #0
 8003276:	d107      	bne.n	8003288 <HAL_PCD_EP_DB_Transmit+0x636>
 8003278:	f8b7 304e 	ldrh.w	r3, [r7, #78]	; 0x4e
 800327c:	653b      	str	r3, [r7, #80]	; 0x50
 800327e:	68bb      	ldr	r3, [r7, #8]
 8003280:	2200      	movs	r2, #0
 8003282:	f883 2024 	strb.w	r2, [r3, #36]	; 0x24
 8003286:	e009      	b.n	800329c <HAL_PCD_EP_DB_Transmit+0x64a>
 8003288:	68bb      	ldr	r3, [r7, #8]
 800328a:	6a1b      	ldr	r3, [r3, #32]
 800328c:	653b      	str	r3, [r7, #80]	; 0x50
 800328e:	68bb      	ldr	r3, [r7, #8]
 8003290:	2200      	movs	r2, #0
 8003292:	621a      	str	r2, [r3, #32]
 8003294:	68bb      	ldr	r3, [r7, #8]
 8003296:	2200      	movs	r2, #0
 8003298:	f883 2024 	strb.w	r2, [r3, #36]	; 0x24
 800329c:	68fb      	ldr	r3, [r7, #12]
 800329e:	681b      	ldr	r3, [r3, #0]
 80032a0:	667b      	str	r3, [r7, #100]	; 0x64
 80032a2:	68bb      	ldr	r3, [r7, #8]
 80032a4:	785b      	ldrb	r3, [r3, #1]
 80032a6:	2b00      	cmp	r3, #0
 80032a8:	d155      	bne.n	8003356 <HAL_PCD_EP_DB_Transmit+0x704>
 80032aa:	68fb      	ldr	r3, [r7, #12]
 80032ac:	681b      	ldr	r3, [r3, #0]
 80032ae:	65fb      	str	r3, [r7, #92]	; 0x5c
 80032b0:	68fb      	ldr	r3, [r7, #12]
 80032b2:	681b      	ldr	r3, [r3, #0]
 80032b4:	f8b3 3050 	ldrh.w	r3, [r3, #80]	; 0x50
 80032b8:	b29b      	uxth	r3, r3
 80032ba:	461a      	mov	r2, r3
 80032bc:	6dfb      	ldr	r3, [r7, #92]	; 0x5c
 80032be:	4413      	add	r3, r2
 80032c0:	65fb      	str	r3, [r7, #92]	; 0x5c
 80032c2:	68bb      	ldr	r3, [r7, #8]
 80032c4:	781b      	ldrb	r3, [r3, #0]
 80032c6:	011a      	lsls	r2, r3, #4
 80032c8:	6dfb      	ldr	r3, [r7, #92]	; 0x5c
 80032ca:	4413      	add	r3, r2
 80032cc:	f203 430c 	addw	r3, r3, #1036	; 0x40c
 80032d0:	65bb      	str	r3, [r7, #88]	; 0x58
 80032d2:	6d3b      	ldr	r3, [r7, #80]	; 0x50
 80032d4:	2b00      	cmp	r3, #0
 80032d6:	d112      	bne.n	80032fe <HAL_PCD_EP_DB_Transmit+0x6ac>
 80032d8:	6dbb      	ldr	r3, [r7, #88]	; 0x58
 80032da:	881b      	ldrh	r3, [r3, #0]
 80032dc:	b29b      	uxth	r3, r3
 80032de:	f423 43f8 	bic.w	r3, r3, #31744	; 0x7c00
 80032e2:	b29a      	uxth	r2, r3
 80032e4:	6dbb      	ldr	r3, [r7, #88]	; 0x58
 80032e6:	801a      	strh	r2, [r3, #0]
 80032e8:	6dbb      	ldr	r3, [r7, #88]	; 0x58
 80032ea:	881b      	ldrh	r3, [r3, #0]
 80032ec:	b29b      	uxth	r3, r3
 80032ee:	ea6f 4343 	mvn.w	r3, r3, lsl #17
 80032f2:	ea6f 4353 	mvn.w	r3, r3, lsr #17
 80032f6:	b29a      	uxth	r2, r3
 80032f8:	6dbb      	ldr	r3, [r7, #88]	; 0x58
 80032fa:	801a      	strh	r2, [r3, #0]
 80032fc:	e044      	b.n	8003388 <HAL_PCD_EP_DB_Transmit+0x736>
 80032fe:	6d3b      	ldr	r3, [r7, #80]	; 0x50
 8003300:	2b3e      	cmp	r3, #62	; 0x3e
 8003302:	d811      	bhi.n	8003328 <HAL_PCD_EP_DB_Transmit+0x6d6>
 8003304:	6d3b      	ldr	r3, [r7, #80]	; 0x50
 8003306:	085b      	lsrs	r3, r3, #1
 8003308:	657b      	str	r3, [r7, #84]	; 0x54
 800330a:	6d3b      	ldr	r3, [r7, #80]	; 0x50
 800330c:	f003 0301 	and.w	r3, r3, #1
 8003310:	2b00      	cmp	r3, #0
 8003312:	d002      	beq.n	800331a <HAL_PCD_EP_DB_Transmit+0x6c8>
 8003314:	6d7b      	ldr	r3, [r7, #84]	; 0x54
 8003316:	3301      	adds	r3, #1
 8003318:	657b      	str	r3, [r7, #84]	; 0x54
 800331a:	6d7b      	ldr	r3, [r7, #84]	; 0x54
 800331c:	b29b      	uxth	r3, r3
 800331e:	029b      	lsls	r3, r3, #10
 8003320:	b29a      	uxth	r2, r3
 8003322:	6dbb      	ldr	r3, [r7, #88]	; 0x58
 8003324:	801a      	strh	r2, [r3, #0]
 8003326:	e02f      	b.n	8003388 <HAL_PCD_EP_DB_Transmit+0x736>
 8003328:	6d3b      	ldr	r3, [r7, #80]	; 0x50
 800332a:	095b      	lsrs	r3, r3, #5
 800332c:	657b      	str	r3, [r7, #84]	; 0x54
 800332e:	6d3b      	ldr	r3, [r7, #80]	; 0x50
 8003330:	f003 031f 	and.w	r3, r3, #31
 8003334:	2b00      	cmp	r3, #0
 8003336:	d102      	bne.n	800333e <HAL_PCD_EP_DB_Transmit+0x6ec>
 8003338:	6d7b      	ldr	r3, [r7, #84]	; 0x54
 800333a:	3b01      	subs	r3, #1
 800333c:	657b      	str	r3, [r7, #84]	; 0x54
 800333e:	6d7b      	ldr	r3, [r7, #84]	; 0x54
 8003340:	b29b      	uxth	r3, r3
 8003342:	029b      	lsls	r3, r3, #10
 8003344:	b29b      	uxth	r3, r3
 8003346:	ea6f 4343 	mvn.w	r3, r3, lsl #17
 800334a:	ea6f 4353 	mvn.w	r3, r3, lsr #17
 800334e:	b29a      	uxth	r2, r3
 8003350:	6dbb      	ldr	r3, [r7, #88]	; 0x58
 8003352:	801a      	strh	r2, [r3, #0]
 8003354:	e018      	b.n	8003388 <HAL_PCD_EP_DB_Transmit+0x736>
 8003356:	68bb      	ldr	r3, [r7, #8]
 8003358:	785b      	ldrb	r3, [r3, #1]
 800335a:	2b01      	cmp	r3, #1
 800335c:	d114      	bne.n	8003388 <HAL_PCD_EP_DB_Transmit+0x736>
 800335e:	68fb      	ldr	r3, [r7, #12]
 8003360:	681b      	ldr	r3, [r3, #0]
 8003362:	f8b3 3050 	ldrh.w	r3, [r3, #80]	; 0x50
 8003366:	b29b      	uxth	r3, r3
 8003368:	461a      	mov	r2, r3
 800336a:	6e7b      	ldr	r3, [r7, #100]	; 0x64
 800336c:	4413      	add	r3, r2
 800336e:	667b      	str	r3, [r7, #100]	; 0x64
 8003370:	68bb      	ldr	r3, [r7, #8]
 8003372:	781b      	ldrb	r3, [r3, #0]
 8003374:	011a      	lsls	r2, r3, #4
 8003376:	6e7b      	ldr	r3, [r7, #100]	; 0x64
 8003378:	4413      	add	r3, r2
 800337a:	f203 430c 	addw	r3, r3, #1036	; 0x40c
 800337e:	663b      	str	r3, [r7, #96]	; 0x60
 8003380:	6d3b      	ldr	r3, [r7, #80]	; 0x50
 8003382:	b29a      	uxth	r2, r3
 8003384:	6e3b      	ldr	r3, [r7, #96]	; 0x60
 8003386:	801a      	strh	r2, [r3, #0]
 8003388:	68fb      	ldr	r3, [r7, #12]
 800338a:	6818      	ldr	r0, [r3, #0]
 800338c:	68bb      	ldr	r3, [r7, #8]
 800338e:	6959      	ldr	r1, [r3, #20]
 8003390:	68bb      	ldr	r3, [r7, #8]
 8003392:	895a      	ldrh	r2, [r3, #10]
 8003394:	6d3b      	ldr	r3, [r7, #80]	; 0x50
 8003396:	b29b      	uxth	r3, r3
 8003398:	f002 ff05 	bl	80061a6 <USB_WritePMA>
 800339c:	68fb      	ldr	r3, [r7, #12]
 800339e:	681b      	ldr	r3, [r3, #0]
 80033a0:	461a      	mov	r2, r3
 80033a2:	68bb      	ldr	r3, [r7, #8]
 80033a4:	781b      	ldrb	r3, [r3, #0]
 80033a6:	009b      	lsls	r3, r3, #2
 80033a8:	4413      	add	r3, r2
 80033aa:	881b      	ldrh	r3, [r3, #0]
 80033ac:	b29b      	uxth	r3, r3
 80033ae:	f423 43e0 	bic.w	r3, r3, #28672	; 0x7000
 80033b2:	f023 0340 	bic.w	r3, r3, #64	; 0x40
 80033b6:	823b      	strh	r3, [r7, #16]
 80033b8:	8a3b      	ldrh	r3, [r7, #16]
 80033ba:	f083 0310 	eor.w	r3, r3, #16
 80033be:	823b      	strh	r3, [r7, #16]
 80033c0:	8a3b      	ldrh	r3, [r7, #16]
 80033c2:	f083 0320 	eor.w	r3, r3, #32
 80033c6:	823b      	strh	r3, [r7, #16]
 80033c8:	68fb      	ldr	r3, [r7, #12]
 80033ca:	681b      	ldr	r3, [r3, #0]
 80033cc:	461a      	mov	r2, r3
 80033ce:	68bb      	ldr	r3, [r7, #8]
 80033d0:	781b      	ldrb	r3, [r3, #0]
 80033d2:	009b      	lsls	r3, r3, #2
 80033d4:	441a      	add	r2, r3
 80033d6:	8a3b      	ldrh	r3, [r7, #16]
 80033d8:	f043 437f 	orr.w	r3, r3, #4278190080	; 0xff000000
 80033dc:	f443 037f 	orr.w	r3, r3, #16711680	; 0xff0000
 80033e0:	f443 4300 	orr.w	r3, r3, #32768	; 0x8000
 80033e4:	f043 0380 	orr.w	r3, r3, #128	; 0x80
 80033e8:	b29b      	uxth	r3, r3
 80033ea:	8013      	strh	r3, [r2, #0]
 80033ec:	2300      	movs	r3, #0
 80033ee:	4618      	mov	r0, r3
 80033f0:	3788      	adds	r7, #136	; 0x88
 80033f2:	46bd      	mov	sp, r7
 80033f4:	bd80      	pop	{r7, pc}

080033f6 <HAL_PCDEx_PMAConfig>:
 80033f6:	b480      	push	{r7}
 80033f8:	b087      	sub	sp, #28
 80033fa:	af00      	add	r7, sp, #0
 80033fc:	60f8      	str	r0, [r7, #12]
 80033fe:	607b      	str	r3, [r7, #4]
 8003400:	460b      	mov	r3, r1
 8003402:	817b      	strh	r3, [r7, #10]
 8003404:	4613      	mov	r3, r2
 8003406:	813b      	strh	r3, [r7, #8]
 8003408:	897b      	ldrh	r3, [r7, #10]
 800340a:	f003 0380 	and.w	r3, r3, #128	; 0x80
 800340e:	b29b      	uxth	r3, r3
 8003410:	2b00      	cmp	r3, #0
 8003412:	d00b      	beq.n	800342c <HAL_PCDEx_PMAConfig+0x36>
 8003414:	897b      	ldrh	r3, [r7, #10]
 8003416:	f003 0307 	and.w	r3, r3, #7
 800341a:	1c5a      	adds	r2, r3, #1
 800341c:	4613      	mov	r3, r2
 800341e:	009b      	lsls	r3, r3, #2
 8003420:	4413      	add	r3, r2
 8003422:	00db      	lsls	r3, r3, #3
 8003424:	68fa      	ldr	r2, [r7, #12]
 8003426:	4413      	add	r3, r2
 8003428:	617b      	str	r3, [r7, #20]
 800342a:	e009      	b.n	8003440 <HAL_PCDEx_PMAConfig+0x4a>
 800342c:	897a      	ldrh	r2, [r7, #10]
 800342e:	4613      	mov	r3, r2
 8003430:	009b      	lsls	r3, r3, #2
 8003432:	4413      	add	r3, r2
 8003434:	00db      	lsls	r3, r3, #3
 8003436:	f503 73b4 	add.w	r3, r3, #360	; 0x168
 800343a:	68fa      	ldr	r2, [r7, #12]
 800343c:	4413      	add	r3, r2
 800343e:	617b      	str	r3, [r7, #20]
 8003440:	893b      	ldrh	r3, [r7, #8]
 8003442:	2b00      	cmp	r3, #0
 8003444:	d107      	bne.n	8003456 <HAL_PCDEx_PMAConfig+0x60>
 8003446:	697b      	ldr	r3, [r7, #20]
 8003448:	2200      	movs	r2, #0
 800344a:	731a      	strb	r2, [r3, #12]
 800344c:	687b      	ldr	r3, [r7, #4]
 800344e:	b29a      	uxth	r2, r3
 8003450:	697b      	ldr	r3, [r7, #20]
 8003452:	80da      	strh	r2, [r3, #6]
 8003454:	e00b      	b.n	800346e <HAL_PCDEx_PMAConfig+0x78>
 8003456:	697b      	ldr	r3, [r7, #20]
 8003458:	2201      	movs	r2, #1
 800345a:	731a      	strb	r2, [r3, #12]
 800345c:	687b      	ldr	r3, [r7, #4]
 800345e:	b29a      	uxth	r2, r3
 8003460:	697b      	ldr	r3, [r7, #20]
 8003462:	811a      	strh	r2, [r3, #8]
 8003464:	687b      	ldr	r3, [r7, #4]
 8003466:	0c1b      	lsrs	r3, r3, #16
 8003468:	b29a      	uxth	r2, r3
 800346a:	697b      	ldr	r3, [r7, #20]
 800346c:	815a      	strh	r2, [r3, #10]
 800346e:	2300      	movs	r3, #0
 8003470:	4618      	mov	r0, r3
 8003472:	371c      	adds	r7, #28
 8003474:	46bd      	mov	sp, r7
 8003476:	bc80      	pop	{r7}
 8003478:	4770      	bx	lr
	...

0800347c <HAL_RCC_OscConfig>:
 800347c:	b580      	push	{r7, lr}
 800347e:	b086      	sub	sp, #24
 8003480:	af00      	add	r7, sp, #0
 8003482:	6078      	str	r0, [r7, #4]
 8003484:	687b      	ldr	r3, [r7, #4]
 8003486:	2b00      	cmp	r3, #0
 8003488:	d101      	bne.n	800348e <HAL_RCC_OscConfig+0x12>
 800348a:	2301      	movs	r3, #1
 800348c:	e26c      	b.n	8003968 <HAL_RCC_OscConfig+0x4ec>
 800348e:	687b      	ldr	r3, [r7, #4]
 8003490:	681b      	ldr	r3, [r3, #0]
 8003492:	f003 0301 	and.w	r3, r3, #1
 8003496:	2b00      	cmp	r3, #0
 8003498:	f000 8087 	beq.w	80035aa <HAL_RCC_OscConfig+0x12e>
 800349c:	4b92      	ldr	r3, [pc, #584]	; (80036e8 <HAL_RCC_OscConfig+0x26c>)
 800349e:	685b      	ldr	r3, [r3, #4]
 80034a0:	f003 030c 	and.w	r3, r3, #12
 80034a4:	2b04      	cmp	r3, #4
 80034a6:	d00c      	beq.n	80034c2 <HAL_RCC_OscConfig+0x46>
 80034a8:	4b8f      	ldr	r3, [pc, #572]	; (80036e8 <HAL_RCC_OscConfig+0x26c>)
 80034aa:	685b      	ldr	r3, [r3, #4]
 80034ac:	f003 030c 	and.w	r3, r3, #12
 80034b0:	2b08      	cmp	r3, #8
 80034b2:	d112      	bne.n	80034da <HAL_RCC_OscConfig+0x5e>
 80034b4:	4b8c      	ldr	r3, [pc, #560]	; (80036e8 <HAL_RCC_OscConfig+0x26c>)
 80034b6:	685b      	ldr	r3, [r3, #4]
 80034b8:	f403 3380 	and.w	r3, r3, #65536	; 0x10000
 80034bc:	f5b3 3f80 	cmp.w	r3, #65536	; 0x10000
 80034c0:	d10b      	bne.n	80034da <HAL_RCC_OscConfig+0x5e>
 80034c2:	4b89      	ldr	r3, [pc, #548]	; (80036e8 <HAL_RCC_OscConfig+0x26c>)
 80034c4:	681b      	ldr	r3, [r3, #0]
 80034c6:	f403 3300 	and.w	r3, r3, #131072	; 0x20000
 80034ca:	2b00      	cmp	r3, #0
 80034cc:	d06c      	beq.n	80035a8 <HAL_RCC_OscConfig+0x12c>
 80034ce:	687b      	ldr	r3, [r7, #4]
 80034d0:	685b      	ldr	r3, [r3, #4]
 80034d2:	2b00      	cmp	r3, #0
 80034d4:	d168      	bne.n	80035a8 <HAL_RCC_OscConfig+0x12c>
 80034d6:	2301      	movs	r3, #1
 80034d8:	e246      	b.n	8003968 <HAL_RCC_OscConfig+0x4ec>
 80034da:	687b      	ldr	r3, [r7, #4]
 80034dc:	685b      	ldr	r3, [r3, #4]
 80034de:	f5b3 3f80 	cmp.w	r3, #65536	; 0x10000
 80034e2:	d106      	bne.n	80034f2 <HAL_RCC_OscConfig+0x76>
 80034e4:	4b80      	ldr	r3, [pc, #512]	; (80036e8 <HAL_RCC_OscConfig+0x26c>)
 80034e6:	681b      	ldr	r3, [r3, #0]
 80034e8:	4a7f      	ldr	r2, [pc, #508]	; (80036e8 <HAL_RCC_OscConfig+0x26c>)
 80034ea:	f443 3380 	orr.w	r3, r3, #65536	; 0x10000
 80034ee:	6013      	str	r3, [r2, #0]
 80034f0:	e02e      	b.n	8003550 <HAL_RCC_OscConfig+0xd4>
 80034f2:	687b      	ldr	r3, [r7, #4]
 80034f4:	685b      	ldr	r3, [r3, #4]
 80034f6:	2b00      	cmp	r3, #0
 80034f8:	d10c      	bne.n	8003514 <HAL_RCC_OscConfig+0x98>
 80034fa:	4b7b      	ldr	r3, [pc, #492]	; (80036e8 <HAL_RCC_OscConfig+0x26c>)
 80034fc:	681b      	ldr	r3, [r3, #0]
 80034fe:	4a7a      	ldr	r2, [pc, #488]	; (80036e8 <HAL_RCC_OscConfig+0x26c>)
 8003500:	f423 3380 	bic.w	r3, r3, #65536	; 0x10000
 8003504:	6013      	str	r3, [r2, #0]
 8003506:	4b78      	ldr	r3, [pc, #480]	; (80036e8 <HAL_RCC_OscConfig+0x26c>)
 8003508:	681b      	ldr	r3, [r3, #0]
 800350a:	4a77      	ldr	r2, [pc, #476]	; (80036e8 <HAL_RCC_OscConfig+0x26c>)
 800350c:	f423 2380 	bic.w	r3, r3, #262144	; 0x40000
 8003510:	6013      	str	r3, [r2, #0]
 8003512:	e01d      	b.n	8003550 <HAL_RCC_OscConfig+0xd4>
 8003514:	687b      	ldr	r3, [r7, #4]
 8003516:	685b      	ldr	r3, [r3, #4]
 8003518:	f5b3 2fa0 	cmp.w	r3, #327680	; 0x50000
 800351c:	d10c      	bne.n	8003538 <HAL_RCC_OscConfig+0xbc>
 800351e:	4b72      	ldr	r3, [pc, #456]	; (80036e8 <HAL_RCC_OscConfig+0x26c>)
 8003520:	681b      	ldr	r3, [r3, #0]
 8003522:	4a71      	ldr	r2, [pc, #452]	; (80036e8 <HAL_RCC_OscConfig+0x26c>)
 8003524:	f443 2380 	orr.w	r3, r3, #262144	; 0x40000
 8003528:	6013      	str	r3, [r2, #0]
 800352a:	4b6f      	ldr	r3, [pc, #444]	; (80036e8 <HAL_RCC_OscConfig+0x26c>)
 800352c:	681b      	ldr	r3, [r3, #0]
 800352e:	4a6e      	ldr	r2, [pc, #440]	; (80036e8 <HAL_RCC_OscConfig+0x26c>)
 8003530:	f443 3380 	orr.w	r3, r3, #65536	; 0x10000
 8003534:	6013      	str	r3, [r2, #0]
 8003536:	e00b      	b.n	8003550 <HAL_RCC_OscConfig+0xd4>
 8003538:	4b6b      	ldr	r3, [pc, #428]	; (80036e8 <HAL_RCC_OscConfig+0x26c>)
 800353a:	681b      	ldr	r3, [r3, #0]
 800353c:	4a6a      	ldr	r2, [pc, #424]	; (80036e8 <HAL_RCC_OscConfig+0x26c>)
 800353e:	f423 3380 	bic.w	r3, r3, #65536	; 0x10000
 8003542:	6013      	str	r3, [r2, #0]
 8003544:	4b68      	ldr	r3, [pc, #416]	; (80036e8 <HAL_RCC_OscConfig+0x26c>)
 8003546:	681b      	ldr	r3, [r3, #0]
 8003548:	4a67      	ldr	r2, [pc, #412]	; (80036e8 <HAL_RCC_OscConfig+0x26c>)
 800354a:	f423 2380 	bic.w	r3, r3, #262144	; 0x40000
 800354e:	6013      	str	r3, [r2, #0]
 8003550:	687b      	ldr	r3, [r7, #4]
 8003552:	685b      	ldr	r3, [r3, #4]
 8003554:	2b00      	cmp	r3, #0
 8003556:	d013      	beq.n	8003580 <HAL_RCC_OscConfig+0x104>
 8003558:	f7fe f9ca 	bl	80018f0 <HAL_GetTick>
 800355c:	6138      	str	r0, [r7, #16]
 800355e:	e008      	b.n	8003572 <HAL_RCC_OscConfig+0xf6>
 8003560:	f7fe f9c6 	bl	80018f0 <HAL_GetTick>
 8003564:	4602      	mov	r2, r0
 8003566:	693b      	ldr	r3, [r7, #16]
 8003568:	1ad3      	subs	r3, r2, r3
 800356a:	2b64      	cmp	r3, #100	; 0x64
 800356c:	d901      	bls.n	8003572 <HAL_RCC_OscConfig+0xf6>
 800356e:	2303      	movs	r3, #3
 8003570:	e1fa      	b.n	8003968 <HAL_RCC_OscConfig+0x4ec>
 8003572:	4b5d      	ldr	r3, [pc, #372]	; (80036e8 <HAL_RCC_OscConfig+0x26c>)
 8003574:	681b      	ldr	r3, [r3, #0]
 8003576:	f403 3300 	and.w	r3, r3, #131072	; 0x20000
 800357a:	2b00      	cmp	r3, #0
 800357c:	d0f0      	beq.n	8003560 <HAL_RCC_OscConfig+0xe4>
 800357e:	e014      	b.n	80035aa <HAL_RCC_OscConfig+0x12e>
 8003580:	f7fe f9b6 	bl	80018f0 <HAL_GetTick>
 8003584:	6138      	str	r0, [r7, #16]
 8003586:	e008      	b.n	800359a <HAL_RCC_OscConfig+0x11e>
 8003588:	f7fe f9b2 	bl	80018f0 <HAL_GetTick>
 800358c:	4602      	mov	r2, r0
 800358e:	693b      	ldr	r3, [r7, #16]
 8003590:	1ad3      	subs	r3, r2, r3
 8003592:	2b64      	cmp	r3, #100	; 0x64
 8003594:	d901      	bls.n	800359a <HAL_RCC_OscConfig+0x11e>
 8003596:	2303      	movs	r3, #3
 8003598:	e1e6      	b.n	8003968 <HAL_RCC_OscConfig+0x4ec>
 800359a:	4b53      	ldr	r3, [pc, #332]	; (80036e8 <HAL_RCC_OscConfig+0x26c>)
 800359c:	681b      	ldr	r3, [r3, #0]
 800359e:	f403 3300 	and.w	r3, r3, #131072	; 0x20000
 80035a2:	2b00      	cmp	r3, #0
 80035a4:	d1f0      	bne.n	8003588 <HAL_RCC_OscConfig+0x10c>
 80035a6:	e000      	b.n	80035aa <HAL_RCC_OscConfig+0x12e>
 80035a8:	bf00      	nop
 80035aa:	687b      	ldr	r3, [r7, #4]
 80035ac:	681b      	ldr	r3, [r3, #0]
 80035ae:	f003 0302 	and.w	r3, r3, #2
 80035b2:	2b00      	cmp	r3, #0
 80035b4:	d063      	beq.n	800367e <HAL_RCC_OscConfig+0x202>
 80035b6:	4b4c      	ldr	r3, [pc, #304]	; (80036e8 <HAL_RCC_OscConfig+0x26c>)
 80035b8:	685b      	ldr	r3, [r3, #4]
 80035ba:	f003 030c 	and.w	r3, r3, #12
 80035be:	2b00      	cmp	r3, #0
 80035c0:	d00b      	beq.n	80035da <HAL_RCC_OscConfig+0x15e>
 80035c2:	4b49      	ldr	r3, [pc, #292]	; (80036e8 <HAL_RCC_OscConfig+0x26c>)
 80035c4:	685b      	ldr	r3, [r3, #4]
 80035c6:	f003 030c 	and.w	r3, r3, #12
 80035ca:	2b08      	cmp	r3, #8
 80035cc:	d11c      	bne.n	8003608 <HAL_RCC_OscConfig+0x18c>
 80035ce:	4b46      	ldr	r3, [pc, #280]	; (80036e8 <HAL_RCC_OscConfig+0x26c>)
 80035d0:	685b      	ldr	r3, [r3, #4]
 80035d2:	f403 3380 	and.w	r3, r3, #65536	; 0x10000
 80035d6:	2b00      	cmp	r3, #0
 80035d8:	d116      	bne.n	8003608 <HAL_RCC_OscConfig+0x18c>
 80035da:	4b43      	ldr	r3, [pc, #268]	; (80036e8 <HAL_RCC_OscConfig+0x26c>)
 80035dc:	681b      	ldr	r3, [r3, #0]
 80035de:	f003 0302 	and.w	r3, r3, #2
 80035e2:	2b00      	cmp	r3, #0
 80035e4:	d005      	beq.n	80035f2 <HAL_RCC_OscConfig+0x176>
 80035e6:	687b      	ldr	r3, [r7, #4]
 80035e8:	691b      	ldr	r3, [r3, #16]
 80035ea:	2b01      	cmp	r3, #1
 80035ec:	d001      	beq.n	80035f2 <HAL_RCC_OscConfig+0x176>
 80035ee:	2301      	movs	r3, #1
 80035f0:	e1ba      	b.n	8003968 <HAL_RCC_OscConfig+0x4ec>
 80035f2:	4b3d      	ldr	r3, [pc, #244]	; (80036e8 <HAL_RCC_OscConfig+0x26c>)
 80035f4:	681b      	ldr	r3, [r3, #0]
 80035f6:	f023 02f8 	bic.w	r2, r3, #248	; 0xf8
 80035fa:	687b      	ldr	r3, [r7, #4]
 80035fc:	695b      	ldr	r3, [r3, #20]
 80035fe:	00db      	lsls	r3, r3, #3
 8003600:	4939      	ldr	r1, [pc, #228]	; (80036e8 <HAL_RCC_OscConfig+0x26c>)
 8003602:	4313      	orrs	r3, r2
 8003604:	600b      	str	r3, [r1, #0]
 8003606:	e03a      	b.n	800367e <HAL_RCC_OscConfig+0x202>
 8003608:	687b      	ldr	r3, [r7, #4]
 800360a:	691b      	ldr	r3, [r3, #16]
 800360c:	2b00      	cmp	r3, #0
 800360e:	d020      	beq.n	8003652 <HAL_RCC_OscConfig+0x1d6>
 8003610:	4b36      	ldr	r3, [pc, #216]	; (80036ec <HAL_RCC_OscConfig+0x270>)
 8003612:	2201      	movs	r2, #1
 8003614:	601a      	str	r2, [r3, #0]
 8003616:	f7fe f96b 	bl	80018f0 <HAL_GetTick>
 800361a:	6138      	str	r0, [r7, #16]
 800361c:	e008      	b.n	8003630 <HAL_RCC_OscConfig+0x1b4>
 800361e:	f7fe f967 	bl	80018f0 <HAL_GetTick>
 8003622:	4602      	mov	r2, r0
 8003624:	693b      	ldr	r3, [r7, #16]
 8003626:	1ad3      	subs	r3, r2, r3
 8003628:	2b02      	cmp	r3, #2
 800362a:	d901      	bls.n	8003630 <HAL_RCC_OscConfig+0x1b4>
 800362c:	2303      	movs	r3, #3
 800362e:	e19b      	b.n	8003968 <HAL_RCC_OscConfig+0x4ec>
 8003630:	4b2d      	ldr	r3, [pc, #180]	; (80036e8 <HAL_RCC_OscConfig+0x26c>)
 8003632:	681b      	ldr	r3, [r3, #0]
 8003634:	f003 0302 	and.w	r3, r3, #2
 8003638:	2b00      	cmp	r3, #0
 800363a:	d0f0      	beq.n	800361e <HAL_RCC_OscConfig+0x1a2>
 800363c:	4b2a      	ldr	r3, [pc, #168]	; (80036e8 <HAL_RCC_OscConfig+0x26c>)
 800363e:	681b      	ldr	r3, [r3, #0]
 8003640:	f023 02f8 	bic.w	r2, r3, #248	; 0xf8
 8003644:	687b      	ldr	r3, [r7, #4]
 8003646:	695b      	ldr	r3, [r3, #20]
 8003648:	00db      	lsls	r3, r3, #3
 800364a:	4927      	ldr	r1, [pc, #156]	; (80036e8 <HAL_RCC_OscConfig+0x26c>)
 800364c:	4313      	orrs	r3, r2
 800364e:	600b      	str	r3, [r1, #0]
 8003650:	e015      	b.n	800367e <HAL_RCC_OscConfig+0x202>
 8003652:	4b26      	ldr	r3, [pc, #152]	; (80036ec <HAL_RCC_OscConfig+0x270>)
 8003654:	2200      	movs	r2, #0
 8003656:	601a      	str	r2, [r3, #0]
 8003658:	f7fe f94a 	bl	80018f0 <HAL_GetTick>
 800365c:	6138      	str	r0, [r7, #16]
 800365e:	e008      	b.n	8003672 <HAL_RCC_OscConfig+0x1f6>
 8003660:	f7fe f946 	bl	80018f0 <HAL_GetTick>
 8003664:	4602      	mov	r2, r0
 8003666:	693b      	ldr	r3, [r7, #16]
 8003668:	1ad3      	subs	r3, r2, r3
 800366a:	2b02      	cmp	r3, #2
 800366c:	d901      	bls.n	8003672 <HAL_RCC_OscConfig+0x1f6>
 800366e:	2303      	movs	r3, #3
 8003670:	e17a      	b.n	8003968 <HAL_RCC_OscConfig+0x4ec>
 8003672:	4b1d      	ldr	r3, [pc, #116]	; (80036e8 <HAL_RCC_OscConfig+0x26c>)
 8003674:	681b      	ldr	r3, [r3, #0]
 8003676:	f003 0302 	and.w	r3, r3, #2
 800367a:	2b00      	cmp	r3, #0
 800367c:	d1f0      	bne.n	8003660 <HAL_RCC_OscConfig+0x1e4>
 800367e:	687b      	ldr	r3, [r7, #4]
 8003680:	681b      	ldr	r3, [r3, #0]
 8003682:	f003 0308 	and.w	r3, r3, #8
 8003686:	2b00      	cmp	r3, #0
 8003688:	d03a      	beq.n	8003700 <HAL_RCC_OscConfig+0x284>
 800368a:	687b      	ldr	r3, [r7, #4]
 800368c:	699b      	ldr	r3, [r3, #24]
 800368e:	2b00      	cmp	r3, #0
 8003690:	d019      	beq.n	80036c6 <HAL_RCC_OscConfig+0x24a>
 8003692:	4b17      	ldr	r3, [pc, #92]	; (80036f0 <HAL_RCC_OscConfig+0x274>)
 8003694:	2201      	movs	r2, #1
 8003696:	601a      	str	r2, [r3, #0]
 8003698:	f7fe f92a 	bl	80018f0 <HAL_GetTick>
 800369c:	6138      	str	r0, [r7, #16]
 800369e:	e008      	b.n	80036b2 <HAL_RCC_OscConfig+0x236>
 80036a0:	f7fe f926 	bl	80018f0 <HAL_GetTick>
 80036a4:	4602      	mov	r2, r0
 80036a6:	693b      	ldr	r3, [r7, #16]
 80036a8:	1ad3      	subs	r3, r2, r3
 80036aa:	2b02      	cmp	r3, #2
 80036ac:	d901      	bls.n	80036b2 <HAL_RCC_OscConfig+0x236>
 80036ae:	2303      	movs	r3, #3
 80036b0:	e15a      	b.n	8003968 <HAL_RCC_OscConfig+0x4ec>
 80036b2:	4b0d      	ldr	r3, [pc, #52]	; (80036e8 <HAL_RCC_OscConfig+0x26c>)
 80036b4:	6a5b      	ldr	r3, [r3, #36]	; 0x24
 80036b6:	f003 0302 	and.w	r3, r3, #2
 80036ba:	2b00      	cmp	r3, #0
 80036bc:	d0f0      	beq.n	80036a0 <HAL_RCC_OscConfig+0x224>
 80036be:	2001      	movs	r0, #1
 80036c0:	f000 faa6 	bl	8003c10 <RCC_Delay>
 80036c4:	e01c      	b.n	8003700 <HAL_RCC_OscConfig+0x284>
 80036c6:	4b0a      	ldr	r3, [pc, #40]	; (80036f0 <HAL_RCC_OscConfig+0x274>)
 80036c8:	2200      	movs	r2, #0
 80036ca:	601a      	str	r2, [r3, #0]
 80036cc:	f7fe f910 	bl	80018f0 <HAL_GetTick>
 80036d0:	6138      	str	r0, [r7, #16]
 80036d2:	e00f      	b.n	80036f4 <HAL_RCC_OscConfig+0x278>
 80036d4:	f7fe f90c 	bl	80018f0 <HAL_GetTick>
 80036d8:	4602      	mov	r2, r0
 80036da:	693b      	ldr	r3, [r7, #16]
 80036dc:	1ad3      	subs	r3, r2, r3
 80036de:	2b02      	cmp	r3, #2
 80036e0:	d908      	bls.n	80036f4 <HAL_RCC_OscConfig+0x278>
 80036e2:	2303      	movs	r3, #3
 80036e4:	e140      	b.n	8003968 <HAL_RCC_OscConfig+0x4ec>
 80036e6:	bf00      	nop
 80036e8:	40021000 	.word	0x40021000
 80036ec:	42420000 	.word	0x42420000
 80036f0:	42420480 	.word	0x42420480
 80036f4:	4b9e      	ldr	r3, [pc, #632]	; (8003970 <HAL_RCC_OscConfig+0x4f4>)
 80036f6:	6a5b      	ldr	r3, [r3, #36]	; 0x24
 80036f8:	f003 0302 	and.w	r3, r3, #2
 80036fc:	2b00      	cmp	r3, #0
 80036fe:	d1e9      	bne.n	80036d4 <HAL_RCC_OscConfig+0x258>
 8003700:	687b      	ldr	r3, [r7, #4]
 8003702:	681b      	ldr	r3, [r3, #0]
 8003704:	f003 0304 	and.w	r3, r3, #4
 8003708:	2b00      	cmp	r3, #0
 800370a:	f000 80a6 	beq.w	800385a <HAL_RCC_OscConfig+0x3de>
 800370e:	2300      	movs	r3, #0
 8003710:	75fb      	strb	r3, [r7, #23]
 8003712:	4b97      	ldr	r3, [pc, #604]	; (8003970 <HAL_RCC_OscConfig+0x4f4>)
 8003714:	69db      	ldr	r3, [r3, #28]
 8003716:	f003 5380 	and.w	r3, r3, #268435456	; 0x10000000
 800371a:	2b00      	cmp	r3, #0
 800371c:	d10d      	bne.n	800373a <HAL_RCC_OscConfig+0x2be>
 800371e:	4b94      	ldr	r3, [pc, #592]	; (8003970 <HAL_RCC_OscConfig+0x4f4>)
 8003720:	69db      	ldr	r3, [r3, #28]
 8003722:	4a93      	ldr	r2, [pc, #588]	; (8003970 <HAL_RCC_OscConfig+0x4f4>)
 8003724:	f043 5380 	orr.w	r3, r3, #268435456	; 0x10000000
 8003728:	61d3      	str	r3, [r2, #28]
 800372a:	4b91      	ldr	r3, [pc, #580]	; (8003970 <HAL_RCC_OscConfig+0x4f4>)
 800372c:	69db      	ldr	r3, [r3, #28]
 800372e:	f003 5380 	and.w	r3, r3, #268435456	; 0x10000000
 8003732:	60bb      	str	r3, [r7, #8]
 8003734:	68bb      	ldr	r3, [r7, #8]
 8003736:	2301      	movs	r3, #1
 8003738:	75fb      	strb	r3, [r7, #23]
 800373a:	4b8e      	ldr	r3, [pc, #568]	; (8003974 <HAL_RCC_OscConfig+0x4f8>)
 800373c:	681b      	ldr	r3, [r3, #0]
 800373e:	f403 7380 	and.w	r3, r3, #256	; 0x100
 8003742:	2b00      	cmp	r3, #0
 8003744:	d118      	bne.n	8003778 <HAL_RCC_OscConfig+0x2fc>
 8003746:	4b8b      	ldr	r3, [pc, #556]	; (8003974 <HAL_RCC_OscConfig+0x4f8>)
 8003748:	681b      	ldr	r3, [r3, #0]
 800374a:	4a8a      	ldr	r2, [pc, #552]	; (8003974 <HAL_RCC_OscConfig+0x4f8>)
 800374c:	f443 7380 	orr.w	r3, r3, #256	; 0x100
 8003750:	6013      	str	r3, [r2, #0]
 8003752:	f7fe f8cd 	bl	80018f0 <HAL_GetTick>
 8003756:	6138      	str	r0, [r7, #16]
 8003758:	e008      	b.n	800376c <HAL_RCC_OscConfig+0x2f0>
 800375a:	f7fe f8c9 	bl	80018f0 <HAL_GetTick>
 800375e:	4602      	mov	r2, r0
 8003760:	693b      	ldr	r3, [r7, #16]
 8003762:	1ad3      	subs	r3, r2, r3
 8003764:	2b64      	cmp	r3, #100	; 0x64
 8003766:	d901      	bls.n	800376c <HAL_RCC_OscConfig+0x2f0>
 8003768:	2303      	movs	r3, #3
 800376a:	e0fd      	b.n	8003968 <HAL_RCC_OscConfig+0x4ec>
 800376c:	4b81      	ldr	r3, [pc, #516]	; (8003974 <HAL_RCC_OscConfig+0x4f8>)
 800376e:	681b      	ldr	r3, [r3, #0]
 8003770:	f403 7380 	and.w	r3, r3, #256	; 0x100
 8003774:	2b00      	cmp	r3, #0
 8003776:	d0f0      	beq.n	800375a <HAL_RCC_OscConfig+0x2de>
 8003778:	687b      	ldr	r3, [r7, #4]
 800377a:	68db      	ldr	r3, [r3, #12]
 800377c:	2b01      	cmp	r3, #1
 800377e:	d106      	bne.n	800378e <HAL_RCC_OscConfig+0x312>
 8003780:	4b7b      	ldr	r3, [pc, #492]	; (8003970 <HAL_RCC_OscConfig+0x4f4>)
 8003782:	6a1b      	ldr	r3, [r3, #32]
 8003784:	4a7a      	ldr	r2, [pc, #488]	; (8003970 <HAL_RCC_OscConfig+0x4f4>)
 8003786:	f043 0301 	orr.w	r3, r3, #1
 800378a:	6213      	str	r3, [r2, #32]
 800378c:	e02d      	b.n	80037ea <HAL_RCC_OscConfig+0x36e>
 800378e:	687b      	ldr	r3, [r7, #4]
 8003790:	68db      	ldr	r3, [r3, #12]
 8003792:	2b00      	cmp	r3, #0
 8003794:	d10c      	bne.n	80037b0 <HAL_RCC_OscConfig+0x334>
 8003796:	4b76      	ldr	r3, [pc, #472]	; (8003970 <HAL_RCC_OscConfig+0x4f4>)
 8003798:	6a1b      	ldr	r3, [r3, #32]
 800379a:	4a75      	ldr	r2, [pc, #468]	; (8003970 <HAL_RCC_OscConfig+0x4f4>)
 800379c:	f023 0301 	bic.w	r3, r3, #1
 80037a0:	6213      	str	r3, [r2, #32]
 80037a2:	4b73      	ldr	r3, [pc, #460]	; (8003970 <HAL_RCC_OscConfig+0x4f4>)
 80037a4:	6a1b      	ldr	r3, [r3, #32]
 80037a6:	4a72      	ldr	r2, [pc, #456]	; (8003970 <HAL_RCC_OscConfig+0x4f4>)
 80037a8:	f023 0304 	bic.w	r3, r3, #4
 80037ac:	6213      	str	r3, [r2, #32]
 80037ae:	e01c      	b.n	80037ea <HAL_RCC_OscConfig+0x36e>
 80037b0:	687b      	ldr	r3, [r7, #4]
 80037b2:	68db      	ldr	r3, [r3, #12]
 80037b4:	2b05      	cmp	r3, #5
 80037b6:	d10c      	bne.n	80037d2 <HAL_RCC_OscConfig+0x356>
 80037b8:	4b6d      	ldr	r3, [pc, #436]	; (8003970 <HAL_RCC_OscConfig+0x4f4>)
 80037ba:	6a1b      	ldr	r3, [r3, #32]
 80037bc:	4a6c      	ldr	r2, [pc, #432]	; (8003970 <HAL_RCC_OscConfig+0x4f4>)
 80037be:	f043 0304 	orr.w	r3, r3, #4
 80037c2:	6213      	str	r3, [r2, #32]
 80037c4:	4b6a      	ldr	r3, [pc, #424]	; (8003970 <HAL_RCC_OscConfig+0x4f4>)
 80037c6:	6a1b      	ldr	r3, [r3, #32]
 80037c8:	4a69      	ldr	r2, [pc, #420]	; (8003970 <HAL_RCC_OscConfig+0x4f4>)
 80037ca:	f043 0301 	orr.w	r3, r3, #1
 80037ce:	6213      	str	r3, [r2, #32]
 80037d0:	e00b      	b.n	80037ea <HAL_RCC_OscConfig+0x36e>
 80037d2:	4b67      	ldr	r3, [pc, #412]	; (8003970 <HAL_RCC_OscConfig+0x4f4>)
 80037d4:	6a1b      	ldr	r3, [r3, #32]
 80037d6:	4a66      	ldr	r2, [pc, #408]	; (8003970 <HAL_RCC_OscConfig+0x4f4>)
 80037d8:	f023 0301 	bic.w	r3, r3, #1
 80037dc:	6213      	str	r3, [r2, #32]
 80037de:	4b64      	ldr	r3, [pc, #400]	; (8003970 <HAL_RCC_OscConfig+0x4f4>)
 80037e0:	6a1b      	ldr	r3, [r3, #32]
 80037e2:	4a63      	ldr	r2, [pc, #396]	; (8003970 <HAL_RCC_OscConfig+0x4f4>)
 80037e4:	f023 0304 	bic.w	r3, r3, #4
 80037e8:	6213      	str	r3, [r2, #32]
 80037ea:	687b      	ldr	r3, [r7, #4]
 80037ec:	68db      	ldr	r3, [r3, #12]
 80037ee:	2b00      	cmp	r3, #0
 80037f0:	d015      	beq.n	800381e <HAL_RCC_OscConfig+0x3a2>
 80037f2:	f7fe f87d 	bl	80018f0 <HAL_GetTick>
 80037f6:	6138      	str	r0, [r7, #16]
 80037f8:	e00a      	b.n	8003810 <HAL_RCC_OscConfig+0x394>
 80037fa:	f7fe f879 	bl	80018f0 <HAL_GetTick>
 80037fe:	4602      	mov	r2, r0
 8003800:	693b      	ldr	r3, [r7, #16]
 8003802:	1ad3      	subs	r3, r2, r3
 8003804:	f241 3288 	movw	r2, #5000	; 0x1388
 8003808:	4293      	cmp	r3, r2
 800380a:	d901      	bls.n	8003810 <HAL_RCC_OscConfig+0x394>
 800380c:	2303      	movs	r3, #3
 800380e:	e0ab      	b.n	8003968 <HAL_RCC_OscConfig+0x4ec>
 8003810:	4b57      	ldr	r3, [pc, #348]	; (8003970 <HAL_RCC_OscConfig+0x4f4>)
 8003812:	6a1b      	ldr	r3, [r3, #32]
 8003814:	f003 0302 	and.w	r3, r3, #2
 8003818:	2b00      	cmp	r3, #0
 800381a:	d0ee      	beq.n	80037fa <HAL_RCC_OscConfig+0x37e>
 800381c:	e014      	b.n	8003848 <HAL_RCC_OscConfig+0x3cc>
 800381e:	f7fe f867 	bl	80018f0 <HAL_GetTick>
 8003822:	6138      	str	r0, [r7, #16]
 8003824:	e00a      	b.n	800383c <HAL_RCC_OscConfig+0x3c0>
 8003826:	f7fe f863 	bl	80018f0 <HAL_GetTick>
 800382a:	4602      	mov	r2, r0
 800382c:	693b      	ldr	r3, [r7, #16]
 800382e:	1ad3      	subs	r3, r2, r3
 8003830:	f241 3288 	movw	r2, #5000	; 0x1388
 8003834:	4293      	cmp	r3, r2
 8003836:	d901      	bls.n	800383c <HAL_RCC_OscConfig+0x3c0>
 8003838:	2303      	movs	r3, #3
 800383a:	e095      	b.n	8003968 <HAL_RCC_OscConfig+0x4ec>
 800383c:	4b4c      	ldr	r3, [pc, #304]	; (8003970 <HAL_RCC_OscConfig+0x4f4>)
 800383e:	6a1b      	ldr	r3, [r3, #32]
 8003840:	f003 0302 	and.w	r3, r3, #2
 8003844:	2b00      	cmp	r3, #0
 8003846:	d1ee      	bne.n	8003826 <HAL_RCC_OscConfig+0x3aa>
 8003848:	7dfb      	ldrb	r3, [r7, #23]
 800384a:	2b01      	cmp	r3, #1
 800384c:	d105      	bne.n	800385a <HAL_RCC_OscConfig+0x3de>
 800384e:	4b48      	ldr	r3, [pc, #288]	; (8003970 <HAL_RCC_OscConfig+0x4f4>)
 8003850:	69db      	ldr	r3, [r3, #28]
 8003852:	4a47      	ldr	r2, [pc, #284]	; (8003970 <HAL_RCC_OscConfig+0x4f4>)
 8003854:	f023 5380 	bic.w	r3, r3, #268435456	; 0x10000000
 8003858:	61d3      	str	r3, [r2, #28]
 800385a:	687b      	ldr	r3, [r7, #4]
 800385c:	69db      	ldr	r3, [r3, #28]
 800385e:	2b00      	cmp	r3, #0
 8003860:	f000 8081 	beq.w	8003966 <HAL_RCC_OscConfig+0x4ea>
 8003864:	4b42      	ldr	r3, [pc, #264]	; (8003970 <HAL_RCC_OscConfig+0x4f4>)
 8003866:	685b      	ldr	r3, [r3, #4]
 8003868:	f003 030c 	and.w	r3, r3, #12
 800386c:	2b08      	cmp	r3, #8
 800386e:	d061      	beq.n	8003934 <HAL_RCC_OscConfig+0x4b8>
 8003870:	687b      	ldr	r3, [r7, #4]
 8003872:	69db      	ldr	r3, [r3, #28]
 8003874:	2b02      	cmp	r3, #2
 8003876:	d146      	bne.n	8003906 <HAL_RCC_OscConfig+0x48a>
 8003878:	4b3f      	ldr	r3, [pc, #252]	; (8003978 <HAL_RCC_OscConfig+0x4fc>)
 800387a:	2200      	movs	r2, #0
 800387c:	601a      	str	r2, [r3, #0]
 800387e:	f7fe f837 	bl	80018f0 <HAL_GetTick>
 8003882:	6138      	str	r0, [r7, #16]
 8003884:	e008      	b.n	8003898 <HAL_RCC_OscConfig+0x41c>
 8003886:	f7fe f833 	bl	80018f0 <HAL_GetTick>
 800388a:	4602      	mov	r2, r0
 800388c:	693b      	ldr	r3, [r7, #16]
 800388e:	1ad3      	subs	r3, r2, r3
 8003890:	2b02      	cmp	r3, #2
 8003892:	d901      	bls.n	8003898 <HAL_RCC_OscConfig+0x41c>
 8003894:	2303      	movs	r3, #3
 8003896:	e067      	b.n	8003968 <HAL_RCC_OscConfig+0x4ec>
 8003898:	4b35      	ldr	r3, [pc, #212]	; (8003970 <HAL_RCC_OscConfig+0x4f4>)
 800389a:	681b      	ldr	r3, [r3, #0]
 800389c:	f003 7300 	and.w	r3, r3, #33554432	; 0x2000000
 80038a0:	2b00      	cmp	r3, #0
 80038a2:	d1f0      	bne.n	8003886 <HAL_RCC_OscConfig+0x40a>
 80038a4:	687b      	ldr	r3, [r7, #4]
 80038a6:	6a1b      	ldr	r3, [r3, #32]
 80038a8:	f5b3 3f80 	cmp.w	r3, #65536	; 0x10000
 80038ac:	d108      	bne.n	80038c0 <HAL_RCC_OscConfig+0x444>
 80038ae:	4b30      	ldr	r3, [pc, #192]	; (8003970 <HAL_RCC_OscConfig+0x4f4>)
 80038b0:	685b      	ldr	r3, [r3, #4]
 80038b2:	f423 3200 	bic.w	r2, r3, #131072	; 0x20000
 80038b6:	687b      	ldr	r3, [r7, #4]
 80038b8:	689b      	ldr	r3, [r3, #8]
 80038ba:	492d      	ldr	r1, [pc, #180]	; (8003970 <HAL_RCC_OscConfig+0x4f4>)
 80038bc:	4313      	orrs	r3, r2
 80038be:	604b      	str	r3, [r1, #4]
 80038c0:	4b2b      	ldr	r3, [pc, #172]	; (8003970 <HAL_RCC_OscConfig+0x4f4>)
 80038c2:	685b      	ldr	r3, [r3, #4]
 80038c4:	f423 1274 	bic.w	r2, r3, #3997696	; 0x3d0000
 80038c8:	687b      	ldr	r3, [r7, #4]
 80038ca:	6a19      	ldr	r1, [r3, #32]
 80038cc:	687b      	ldr	r3, [r7, #4]
 80038ce:	6a5b      	ldr	r3, [r3, #36]	; 0x24
 80038d0:	430b      	orrs	r3, r1
 80038d2:	4927      	ldr	r1, [pc, #156]	; (8003970 <HAL_RCC_OscConfig+0x4f4>)
 80038d4:	4313      	orrs	r3, r2
 80038d6:	604b      	str	r3, [r1, #4]
 80038d8:	4b27      	ldr	r3, [pc, #156]	; (8003978 <HAL_RCC_OscConfig+0x4fc>)
 80038da:	2201      	movs	r2, #1
 80038dc:	601a      	str	r2, [r3, #0]
 80038de:	f7fe f807 	bl	80018f0 <HAL_GetTick>
 80038e2:	6138      	str	r0, [r7, #16]
 80038e4:	e008      	b.n	80038f8 <HAL_RCC_OscConfig+0x47c>
 80038e6:	f7fe f803 	bl	80018f0 <HAL_GetTick>
 80038ea:	4602      	mov	r2, r0
 80038ec:	693b      	ldr	r3, [r7, #16]
 80038ee:	1ad3      	subs	r3, r2, r3
 80038f0:	2b02      	cmp	r3, #2
 80038f2:	d901      	bls.n	80038f8 <HAL_RCC_OscConfig+0x47c>
 80038f4:	2303      	movs	r3, #3
 80038f6:	e037      	b.n	8003968 <HAL_RCC_OscConfig+0x4ec>
 80038f8:	4b1d      	ldr	r3, [pc, #116]	; (8003970 <HAL_RCC_OscConfig+0x4f4>)
 80038fa:	681b      	ldr	r3, [r3, #0]
 80038fc:	f003 7300 	and.w	r3, r3, #33554432	; 0x2000000
 8003900:	2b00      	cmp	r3, #0
 8003902:	d0f0      	beq.n	80038e6 <HAL_RCC_OscConfig+0x46a>
 8003904:	e02f      	b.n	8003966 <HAL_RCC_OscConfig+0x4ea>
 8003906:	4b1c      	ldr	r3, [pc, #112]	; (8003978 <HAL_RCC_OscConfig+0x4fc>)
 8003908:	2200      	movs	r2, #0
 800390a:	601a      	str	r2, [r3, #0]
 800390c:	f7fd fff0 	bl	80018f0 <HAL_GetTick>
 8003910:	6138      	str	r0, [r7, #16]
 8003912:	e008      	b.n	8003926 <HAL_RCC_OscConfig+0x4aa>
 8003914:	f7fd ffec 	bl	80018f0 <HAL_GetTick>
 8003918:	4602      	mov	r2, r0
 800391a:	693b      	ldr	r3, [r7, #16]
 800391c:	1ad3      	subs	r3, r2, r3
 800391e:	2b02      	cmp	r3, #2
 8003920:	d901      	bls.n	8003926 <HAL_RCC_OscConfig+0x4aa>
 8003922:	2303      	movs	r3, #3
 8003924:	e020      	b.n	8003968 <HAL_RCC_OscConfig+0x4ec>
 8003926:	4b12      	ldr	r3, [pc, #72]	; (8003970 <HAL_RCC_OscConfig+0x4f4>)
 8003928:	681b      	ldr	r3, [r3, #0]
 800392a:	f003 7300 	and.w	r3, r3, #33554432	; 0x2000000
 800392e:	2b00      	cmp	r3, #0
 8003930:	d1f0      	bne.n	8003914 <HAL_RCC_OscConfig+0x498>
 8003932:	e018      	b.n	8003966 <HAL_RCC_OscConfig+0x4ea>
 8003934:	687b      	ldr	r3, [r7, #4]
 8003936:	69db      	ldr	r3, [r3, #28]
 8003938:	2b01      	cmp	r3, #1
 800393a:	d101      	bne.n	8003940 <HAL_RCC_OscConfig+0x4c4>
 800393c:	2301      	movs	r3, #1
 800393e:	e013      	b.n	8003968 <HAL_RCC_OscConfig+0x4ec>
 8003940:	4b0b      	ldr	r3, [pc, #44]	; (8003970 <HAL_RCC_OscConfig+0x4f4>)
 8003942:	685b      	ldr	r3, [r3, #4]
 8003944:	60fb      	str	r3, [r7, #12]
 8003946:	68fb      	ldr	r3, [r7, #12]
 8003948:	f403 3280 	and.w	r2, r3, #65536	; 0x10000
 800394c:	687b      	ldr	r3, [r7, #4]
 800394e:	6a1b      	ldr	r3, [r3, #32]
 8003950:	429a      	cmp	r2, r3
 8003952:	d106      	bne.n	8003962 <HAL_RCC_OscConfig+0x4e6>
 8003954:	68fb      	ldr	r3, [r7, #12]
 8003956:	f403 1270 	and.w	r2, r3, #3932160	; 0x3c0000
 800395a:	687b      	ldr	r3, [r7, #4]
 800395c:	6a5b      	ldr	r3, [r3, #36]	; 0x24
 800395e:	429a      	cmp	r2, r3
 8003960:	d001      	beq.n	8003966 <HAL_RCC_OscConfig+0x4ea>
 8003962:	2301      	movs	r3, #1
 8003964:	e000      	b.n	8003968 <HAL_RCC_OscConfig+0x4ec>
 8003966:	2300      	movs	r3, #0
 8003968:	4618      	mov	r0, r3
 800396a:	3718      	adds	r7, #24
 800396c:	46bd      	mov	sp, r7
 800396e:	bd80      	pop	{r7, pc}
 8003970:	40021000 	.word	0x40021000
 8003974:	40007000 	.word	0x40007000
 8003978:	42420060 	.word	0x42420060

0800397c <HAL_RCC_ClockConfig>:
 800397c:	b580      	push	{r7, lr}
 800397e:	b084      	sub	sp, #16
 8003980:	af00      	add	r7, sp, #0
 8003982:	6078      	str	r0, [r7, #4]
 8003984:	6039      	str	r1, [r7, #0]
 8003986:	687b      	ldr	r3, [r7, #4]
 8003988:	2b00      	cmp	r3, #0
 800398a:	d101      	bne.n	8003990 <HAL_RCC_ClockConfig+0x14>
 800398c:	2301      	movs	r3, #1
 800398e:	e0d0      	b.n	8003b32 <HAL_RCC_ClockConfig+0x1b6>
 8003990:	4b6a      	ldr	r3, [pc, #424]	; (8003b3c <HAL_RCC_ClockConfig+0x1c0>)
 8003992:	681b      	ldr	r3, [r3, #0]
 8003994:	f003 0307 	and.w	r3, r3, #7
 8003998:	683a      	ldr	r2, [r7, #0]
 800399a:	429a      	cmp	r2, r3
 800399c:	d910      	bls.n	80039c0 <HAL_RCC_ClockConfig+0x44>
 800399e:	4b67      	ldr	r3, [pc, #412]	; (8003b3c <HAL_RCC_ClockConfig+0x1c0>)
 80039a0:	681b      	ldr	r3, [r3, #0]
 80039a2:	f023 0207 	bic.w	r2, r3, #7
 80039a6:	4965      	ldr	r1, [pc, #404]	; (8003b3c <HAL_RCC_ClockConfig+0x1c0>)
 80039a8:	683b      	ldr	r3, [r7, #0]
 80039aa:	4313      	orrs	r3, r2
 80039ac:	600b      	str	r3, [r1, #0]
 80039ae:	4b63      	ldr	r3, [pc, #396]	; (8003b3c <HAL_RCC_ClockConfig+0x1c0>)
 80039b0:	681b      	ldr	r3, [r3, #0]
 80039b2:	f003 0307 	and.w	r3, r3, #7
 80039b6:	683a      	ldr	r2, [r7, #0]
 80039b8:	429a      	cmp	r2, r3
 80039ba:	d001      	beq.n	80039c0 <HAL_RCC_ClockConfig+0x44>
 80039bc:	2301      	movs	r3, #1
 80039be:	e0b8      	b.n	8003b32 <HAL_RCC_ClockConfig+0x1b6>
 80039c0:	687b      	ldr	r3, [r7, #4]
 80039c2:	681b      	ldr	r3, [r3, #0]
 80039c4:	f003 0302 	and.w	r3, r3, #2
 80039c8:	2b00      	cmp	r3, #0
 80039ca:	d020      	beq.n	8003a0e <HAL_RCC_ClockConfig+0x92>
 80039cc:	687b      	ldr	r3, [r7, #4]
 80039ce:	681b      	ldr	r3, [r3, #0]
 80039d0:	f003 0304 	and.w	r3, r3, #4
 80039d4:	2b00      	cmp	r3, #0
 80039d6:	d005      	beq.n	80039e4 <HAL_RCC_ClockConfig+0x68>
 80039d8:	4b59      	ldr	r3, [pc, #356]	; (8003b40 <HAL_RCC_ClockConfig+0x1c4>)
 80039da:	685b      	ldr	r3, [r3, #4]
 80039dc:	4a58      	ldr	r2, [pc, #352]	; (8003b40 <HAL_RCC_ClockConfig+0x1c4>)
 80039de:	f443 63e0 	orr.w	r3, r3, #1792	; 0x700
 80039e2:	6053      	str	r3, [r2, #4]
 80039e4:	687b      	ldr	r3, [r7, #4]
 80039e6:	681b      	ldr	r3, [r3, #0]
 80039e8:	f003 0308 	and.w	r3, r3, #8
 80039ec:	2b00      	cmp	r3, #0
 80039ee:	d005      	beq.n	80039fc <HAL_RCC_ClockConfig+0x80>
 80039f0:	4b53      	ldr	r3, [pc, #332]	; (8003b40 <HAL_RCC_ClockConfig+0x1c4>)
 80039f2:	685b      	ldr	r3, [r3, #4]
 80039f4:	4a52      	ldr	r2, [pc, #328]	; (8003b40 <HAL_RCC_ClockConfig+0x1c4>)
 80039f6:	f443 5360 	orr.w	r3, r3, #14336	; 0x3800
 80039fa:	6053      	str	r3, [r2, #4]
 80039fc:	4b50      	ldr	r3, [pc, #320]	; (8003b40 <HAL_RCC_ClockConfig+0x1c4>)
 80039fe:	685b      	ldr	r3, [r3, #4]
 8003a00:	f023 02f0 	bic.w	r2, r3, #240	; 0xf0
 8003a04:	687b      	ldr	r3, [r7, #4]
 8003a06:	689b      	ldr	r3, [r3, #8]
 8003a08:	494d      	ldr	r1, [pc, #308]	; (8003b40 <HAL_RCC_ClockConfig+0x1c4>)
 8003a0a:	4313      	orrs	r3, r2
 8003a0c:	604b      	str	r3, [r1, #4]
 8003a0e:	687b      	ldr	r3, [r7, #4]
 8003a10:	681b      	ldr	r3, [r3, #0]
 8003a12:	f003 0301 	and.w	r3, r3, #1
 8003a16:	2b00      	cmp	r3, #0
 8003a18:	d040      	beq.n	8003a9c <HAL_RCC_ClockConfig+0x120>
 8003a1a:	687b      	ldr	r3, [r7, #4]
 8003a1c:	685b      	ldr	r3, [r3, #4]
 8003a1e:	2b01      	cmp	r3, #1
 8003a20:	d107      	bne.n	8003a32 <HAL_RCC_ClockConfig+0xb6>
 8003a22:	4b47      	ldr	r3, [pc, #284]	; (8003b40 <HAL_RCC_ClockConfig+0x1c4>)
 8003a24:	681b      	ldr	r3, [r3, #0]
 8003a26:	f403 3300 	and.w	r3, r3, #131072	; 0x20000
 8003a2a:	2b00      	cmp	r3, #0
 8003a2c:	d115      	bne.n	8003a5a <HAL_RCC_ClockConfig+0xde>
 8003a2e:	2301      	movs	r3, #1
 8003a30:	e07f      	b.n	8003b32 <HAL_RCC_ClockConfig+0x1b6>
 8003a32:	687b      	ldr	r3, [r7, #4]
 8003a34:	685b      	ldr	r3, [r3, #4]
 8003a36:	2b02      	cmp	r3, #2
 8003a38:	d107      	bne.n	8003a4a <HAL_RCC_ClockConfig+0xce>
 8003a3a:	4b41      	ldr	r3, [pc, #260]	; (8003b40 <HAL_RCC_ClockConfig+0x1c4>)
 8003a3c:	681b      	ldr	r3, [r3, #0]
 8003a3e:	f003 7300 	and.w	r3, r3, #33554432	; 0x2000000
 8003a42:	2b00      	cmp	r3, #0
 8003a44:	d109      	bne.n	8003a5a <HAL_RCC_ClockConfig+0xde>
 8003a46:	2301      	movs	r3, #1
 8003a48:	e073      	b.n	8003b32 <HAL_RCC_ClockConfig+0x1b6>
 8003a4a:	4b3d      	ldr	r3, [pc, #244]	; (8003b40 <HAL_RCC_ClockConfig+0x1c4>)
 8003a4c:	681b      	ldr	r3, [r3, #0]
 8003a4e:	f003 0302 	and.w	r3, r3, #2
 8003a52:	2b00      	cmp	r3, #0
 8003a54:	d101      	bne.n	8003a5a <HAL_RCC_ClockConfig+0xde>
 8003a56:	2301      	movs	r3, #1
 8003a58:	e06b      	b.n	8003b32 <HAL_RCC_ClockConfig+0x1b6>
 8003a5a:	4b39      	ldr	r3, [pc, #228]	; (8003b40 <HAL_RCC_ClockConfig+0x1c4>)
 8003a5c:	685b      	ldr	r3, [r3, #4]
 8003a5e:	f023 0203 	bic.w	r2, r3, #3
 8003a62:	687b      	ldr	r3, [r7, #4]
 8003a64:	685b      	ldr	r3, [r3, #4]
 8003a66:	4936      	ldr	r1, [pc, #216]	; (8003b40 <HAL_RCC_ClockConfig+0x1c4>)
 8003a68:	4313      	orrs	r3, r2
 8003a6a:	604b      	str	r3, [r1, #4]
 8003a6c:	f7fd ff40 	bl	80018f0 <HAL_GetTick>
 8003a70:	60f8      	str	r0, [r7, #12]
 8003a72:	e00a      	b.n	8003a8a <HAL_RCC_ClockConfig+0x10e>
 8003a74:	f7fd ff3c 	bl	80018f0 <HAL_GetTick>
 8003a78:	4602      	mov	r2, r0
 8003a7a:	68fb      	ldr	r3, [r7, #12]
 8003a7c:	1ad3      	subs	r3, r2, r3
 8003a7e:	f241 3288 	movw	r2, #5000	; 0x1388
 8003a82:	4293      	cmp	r3, r2
 8003a84:	d901      	bls.n	8003a8a <HAL_RCC_ClockConfig+0x10e>
 8003a86:	2303      	movs	r3, #3
 8003a88:	e053      	b.n	8003b32 <HAL_RCC_ClockConfig+0x1b6>
 8003a8a:	4b2d      	ldr	r3, [pc, #180]	; (8003b40 <HAL_RCC_ClockConfig+0x1c4>)
 8003a8c:	685b      	ldr	r3, [r3, #4]
 8003a8e:	f003 020c 	and.w	r2, r3, #12
 8003a92:	687b      	ldr	r3, [r7, #4]
 8003a94:	685b      	ldr	r3, [r3, #4]
 8003a96:	009b      	lsls	r3, r3, #2
 8003a98:	429a      	cmp	r2, r3
 8003a9a:	d1eb      	bne.n	8003a74 <HAL_RCC_ClockConfig+0xf8>
 8003a9c:	4b27      	ldr	r3, [pc, #156]	; (8003b3c <HAL_RCC_ClockConfig+0x1c0>)
 8003a9e:	681b      	ldr	r3, [r3, #0]
 8003aa0:	f003 0307 	and.w	r3, r3, #7
 8003aa4:	683a      	ldr	r2, [r7, #0]
 8003aa6:	429a      	cmp	r2, r3
 8003aa8:	d210      	bcs.n	8003acc <HAL_RCC_ClockConfig+0x150>
 8003aaa:	4b24      	ldr	r3, [pc, #144]	; (8003b3c <HAL_RCC_ClockConfig+0x1c0>)
 8003aac:	681b      	ldr	r3, [r3, #0]
 8003aae:	f023 0207 	bic.w	r2, r3, #7
 8003ab2:	4922      	ldr	r1, [pc, #136]	; (8003b3c <HAL_RCC_ClockConfig+0x1c0>)
 8003ab4:	683b      	ldr	r3, [r7, #0]
 8003ab6:	4313      	orrs	r3, r2
 8003ab8:	600b      	str	r3, [r1, #0]
 8003aba:	4b20      	ldr	r3, [pc, #128]	; (8003b3c <HAL_RCC_ClockConfig+0x1c0>)
 8003abc:	681b      	ldr	r3, [r3, #0]
 8003abe:	f003 0307 	and.w	r3, r3, #7
 8003ac2:	683a      	ldr	r2, [r7, #0]
 8003ac4:	429a      	cmp	r2, r3
 8003ac6:	d001      	beq.n	8003acc <HAL_RCC_ClockConfig+0x150>
 8003ac8:	2301      	movs	r3, #1
 8003aca:	e032      	b.n	8003b32 <HAL_RCC_ClockConfig+0x1b6>
 8003acc:	687b      	ldr	r3, [r7, #4]
 8003ace:	681b      	ldr	r3, [r3, #0]
 8003ad0:	f003 0304 	and.w	r3, r3, #4
 8003ad4:	2b00      	cmp	r3, #0
 8003ad6:	d008      	beq.n	8003aea <HAL_RCC_ClockConfig+0x16e>
 8003ad8:	4b19      	ldr	r3, [pc, #100]	; (8003b40 <HAL_RCC_ClockConfig+0x1c4>)
 8003ada:	685b      	ldr	r3, [r3, #4]
 8003adc:	f423 62e0 	bic.w	r2, r3, #1792	; 0x700
 8003ae0:	687b      	ldr	r3, [r7, #4]
 8003ae2:	68db      	ldr	r3, [r3, #12]
 8003ae4:	4916      	ldr	r1, [pc, #88]	; (8003b40 <HAL_RCC_ClockConfig+0x1c4>)
 8003ae6:	4313      	orrs	r3, r2
 8003ae8:	604b      	str	r3, [r1, #4]
 8003aea:	687b      	ldr	r3, [r7, #4]
 8003aec:	681b      	ldr	r3, [r3, #0]
 8003aee:	f003 0308 	and.w	r3, r3, #8
 8003af2:	2b00      	cmp	r3, #0
 8003af4:	d009      	beq.n	8003b0a <HAL_RCC_ClockConfig+0x18e>
 8003af6:	4b12      	ldr	r3, [pc, #72]	; (8003b40 <HAL_RCC_ClockConfig+0x1c4>)
 8003af8:	685b      	ldr	r3, [r3, #4]
 8003afa:	f423 5260 	bic.w	r2, r3, #14336	; 0x3800
 8003afe:	687b      	ldr	r3, [r7, #4]
 8003b00:	691b      	ldr	r3, [r3, #16]
 8003b02:	00db      	lsls	r3, r3, #3
 8003b04:	490e      	ldr	r1, [pc, #56]	; (8003b40 <HAL_RCC_ClockConfig+0x1c4>)
 8003b06:	4313      	orrs	r3, r2
 8003b08:	604b      	str	r3, [r1, #4]
 8003b0a:	f000 f821 	bl	8003b50 <HAL_RCC_GetSysClockFreq>
 8003b0e:	4602      	mov	r2, r0
 8003b10:	4b0b      	ldr	r3, [pc, #44]	; (8003b40 <HAL_RCC_ClockConfig+0x1c4>)
 8003b12:	685b      	ldr	r3, [r3, #4]
 8003b14:	091b      	lsrs	r3, r3, #4
 8003b16:	f003 030f 	and.w	r3, r3, #15
 8003b1a:	490a      	ldr	r1, [pc, #40]	; (8003b44 <HAL_RCC_ClockConfig+0x1c8>)
 8003b1c:	5ccb      	ldrb	r3, [r1, r3]
 8003b1e:	fa22 f303 	lsr.w	r3, r2, r3
 8003b22:	4a09      	ldr	r2, [pc, #36]	; (8003b48 <HAL_RCC_ClockConfig+0x1cc>)
 8003b24:	6013      	str	r3, [r2, #0]
 8003b26:	4b09      	ldr	r3, [pc, #36]	; (8003b4c <HAL_RCC_ClockConfig+0x1d0>)
 8003b28:	681b      	ldr	r3, [r3, #0]
 8003b2a:	4618      	mov	r0, r3
 8003b2c:	f7fd feb0 	bl	8001890 <HAL_InitTick>
 8003b30:	2300      	movs	r3, #0
 8003b32:	4618      	mov	r0, r3
 8003b34:	3710      	adds	r7, #16
 8003b36:	46bd      	mov	sp, r7
 8003b38:	bd80      	pop	{r7, pc}
 8003b3a:	bf00      	nop
 8003b3c:	40022000 	.word	0x40022000
 8003b40:	40021000 	.word	0x40021000
 8003b44:	08008b34 	.word	0x08008b34
 8003b48:	20000000 	.word	0x20000000
 8003b4c:	200000a8 	.word	0x200000a8

08003b50 <HAL_RCC_GetSysClockFreq>:
 8003b50:	b490      	push	{r4, r7}
 8003b52:	b08a      	sub	sp, #40	; 0x28
 8003b54:	af00      	add	r7, sp, #0
 8003b56:	4b2a      	ldr	r3, [pc, #168]	; (8003c00 <HAL_RCC_GetSysClockFreq+0xb0>)
 8003b58:	1d3c      	adds	r4, r7, #4
 8003b5a:	cb0f      	ldmia	r3, {r0, r1, r2, r3}
 8003b5c:	e884 000f 	stmia.w	r4, {r0, r1, r2, r3}
 8003b60:	f240 2301 	movw	r3, #513	; 0x201
 8003b64:	803b      	strh	r3, [r7, #0]
 8003b66:	2300      	movs	r3, #0
 8003b68:	61fb      	str	r3, [r7, #28]
 8003b6a:	2300      	movs	r3, #0
 8003b6c:	61bb      	str	r3, [r7, #24]
 8003b6e:	2300      	movs	r3, #0
 8003b70:	627b      	str	r3, [r7, #36]	; 0x24
 8003b72:	2300      	movs	r3, #0
 8003b74:	617b      	str	r3, [r7, #20]
 8003b76:	2300      	movs	r3, #0
 8003b78:	623b      	str	r3, [r7, #32]
 8003b7a:	4b22      	ldr	r3, [pc, #136]	; (8003c04 <HAL_RCC_GetSysClockFreq+0xb4>)
 8003b7c:	685b      	ldr	r3, [r3, #4]
 8003b7e:	61fb      	str	r3, [r7, #28]
 8003b80:	69fb      	ldr	r3, [r7, #28]
 8003b82:	f003 030c 	and.w	r3, r3, #12
 8003b86:	2b04      	cmp	r3, #4
 8003b88:	d002      	beq.n	8003b90 <HAL_RCC_GetSysClockFreq+0x40>
 8003b8a:	2b08      	cmp	r3, #8
 8003b8c:	d003      	beq.n	8003b96 <HAL_RCC_GetSysClockFreq+0x46>
 8003b8e:	e02d      	b.n	8003bec <HAL_RCC_GetSysClockFreq+0x9c>
 8003b90:	4b1d      	ldr	r3, [pc, #116]	; (8003c08 <HAL_RCC_GetSysClockFreq+0xb8>)
 8003b92:	623b      	str	r3, [r7, #32]
 8003b94:	e02d      	b.n	8003bf2 <HAL_RCC_GetSysClockFreq+0xa2>
 8003b96:	69fb      	ldr	r3, [r7, #28]
 8003b98:	0c9b      	lsrs	r3, r3, #18
 8003b9a:	f003 030f 	and.w	r3, r3, #15
 8003b9e:	f107 0228 	add.w	r2, r7, #40	; 0x28
 8003ba2:	4413      	add	r3, r2
 8003ba4:	f813 3c24 	ldrb.w	r3, [r3, #-36]
 8003ba8:	617b      	str	r3, [r7, #20]
 8003baa:	69fb      	ldr	r3, [r7, #28]
 8003bac:	f403 3380 	and.w	r3, r3, #65536	; 0x10000
 8003bb0:	2b00      	cmp	r3, #0
 8003bb2:	d013      	beq.n	8003bdc <HAL_RCC_GetSysClockFreq+0x8c>
 8003bb4:	4b13      	ldr	r3, [pc, #76]	; (8003c04 <HAL_RCC_GetSysClockFreq+0xb4>)
 8003bb6:	685b      	ldr	r3, [r3, #4]
 8003bb8:	0c5b      	lsrs	r3, r3, #17
 8003bba:	f003 0301 	and.w	r3, r3, #1
 8003bbe:	f107 0228 	add.w	r2, r7, #40	; 0x28
 8003bc2:	4413      	add	r3, r2
 8003bc4:	f813 3c28 	ldrb.w	r3, [r3, #-40]
 8003bc8:	61bb      	str	r3, [r7, #24]
 8003bca:	697b      	ldr	r3, [r7, #20]
 8003bcc:	4a0e      	ldr	r2, [pc, #56]	; (8003c08 <HAL_RCC_GetSysClockFreq+0xb8>)
 8003bce:	fb02 f203 	mul.w	r2, r2, r3
 8003bd2:	69bb      	ldr	r3, [r7, #24]
 8003bd4:	fbb2 f3f3 	udiv	r3, r2, r3
 8003bd8:	627b      	str	r3, [r7, #36]	; 0x24
 8003bda:	e004      	b.n	8003be6 <HAL_RCC_GetSysClockFreq+0x96>
 8003bdc:	697b      	ldr	r3, [r7, #20]
 8003bde:	4a0b      	ldr	r2, [pc, #44]	; (8003c0c <HAL_RCC_GetSysClockFreq+0xbc>)
 8003be0:	fb02 f303 	mul.w	r3, r2, r3
 8003be4:	627b      	str	r3, [r7, #36]	; 0x24
 8003be6:	6a7b      	ldr	r3, [r7, #36]	; 0x24
 8003be8:	623b      	str	r3, [r7, #32]
 8003bea:	e002      	b.n	8003bf2 <HAL_RCC_GetSysClockFreq+0xa2>
 8003bec:	4b06      	ldr	r3, [pc, #24]	; (8003c08 <HAL_RCC_GetSysClockFreq+0xb8>)
 8003bee:	623b      	str	r3, [r7, #32]
 8003bf0:	bf00      	nop
 8003bf2:	6a3b      	ldr	r3, [r7, #32]
 8003bf4:	4618      	mov	r0, r3
 8003bf6:	3728      	adds	r7, #40	; 0x28
 8003bf8:	46bd      	mov	sp, r7
 8003bfa:	bc90      	pop	{r4, r7}
 8003bfc:	4770      	bx	lr
 8003bfe:	bf00      	nop
 8003c00:	08008ae8 	.word	0x08008ae8
 8003c04:	40021000 	.word	0x40021000
 8003c08:	007a1200 	.word	0x007a1200
 8003c0c:	003d0900 	.word	0x003d0900

08003c10 <RCC_Delay>:
 8003c10:	b480      	push	{r7}
 8003c12:	b085      	sub	sp, #20
 8003c14:	af00      	add	r7, sp, #0
 8003c16:	6078      	str	r0, [r7, #4]
 8003c18:	4b0a      	ldr	r3, [pc, #40]	; (8003c44 <RCC_Delay+0x34>)
 8003c1a:	681b      	ldr	r3, [r3, #0]
 8003c1c:	4a0a      	ldr	r2, [pc, #40]	; (8003c48 <RCC_Delay+0x38>)
 8003c1e:	fba2 2303 	umull	r2, r3, r2, r3
 8003c22:	0a5b      	lsrs	r3, r3, #9
 8003c24:	687a      	ldr	r2, [r7, #4]
 8003c26:	fb02 f303 	mul.w	r3, r2, r3
 8003c2a:	60fb      	str	r3, [r7, #12]
 8003c2c:	bf00      	nop
 8003c2e:	68fb      	ldr	r3, [r7, #12]
 8003c30:	1e5a      	subs	r2, r3, #1
 8003c32:	60fa      	str	r2, [r7, #12]
 8003c34:	2b00      	cmp	r3, #0
 8003c36:	d1f9      	bne.n	8003c2c <RCC_Delay+0x1c>
 8003c38:	bf00      	nop
 8003c3a:	bf00      	nop
 8003c3c:	3714      	adds	r7, #20
 8003c3e:	46bd      	mov	sp, r7
 8003c40:	bc80      	pop	{r7}
 8003c42:	4770      	bx	lr
 8003c44:	20000000 	.word	0x20000000
 8003c48:	10624dd3 	.word	0x10624dd3

08003c4c <HAL_RCCEx_PeriphCLKConfig>:
 8003c4c:	b580      	push	{r7, lr}
 8003c4e:	b086      	sub	sp, #24
 8003c50:	af00      	add	r7, sp, #0
 8003c52:	6078      	str	r0, [r7, #4]
 8003c54:	2300      	movs	r3, #0
 8003c56:	613b      	str	r3, [r7, #16]
 8003c58:	2300      	movs	r3, #0
 8003c5a:	60fb      	str	r3, [r7, #12]
 8003c5c:	687b      	ldr	r3, [r7, #4]
 8003c5e:	681b      	ldr	r3, [r3, #0]
 8003c60:	f003 0301 	and.w	r3, r3, #1
 8003c64:	2b00      	cmp	r3, #0
 8003c66:	d07d      	beq.n	8003d64 <HAL_RCCEx_PeriphCLKConfig+0x118>
 8003c68:	2300      	movs	r3, #0
 8003c6a:	75fb      	strb	r3, [r7, #23]
 8003c6c:	4b4f      	ldr	r3, [pc, #316]	; (8003dac <HAL_RCCEx_PeriphCLKConfig+0x160>)
 8003c6e:	69db      	ldr	r3, [r3, #28]
 8003c70:	f003 5380 	and.w	r3, r3, #268435456	; 0x10000000
 8003c74:	2b00      	cmp	r3, #0
 8003c76:	d10d      	bne.n	8003c94 <HAL_RCCEx_PeriphCLKConfig+0x48>
 8003c78:	4b4c      	ldr	r3, [pc, #304]	; (8003dac <HAL_RCCEx_PeriphCLKConfig+0x160>)
 8003c7a:	69db      	ldr	r3, [r3, #28]
 8003c7c:	4a4b      	ldr	r2, [pc, #300]	; (8003dac <HAL_RCCEx_PeriphCLKConfig+0x160>)
 8003c7e:	f043 5380 	orr.w	r3, r3, #268435456	; 0x10000000
 8003c82:	61d3      	str	r3, [r2, #28]
 8003c84:	4b49      	ldr	r3, [pc, #292]	; (8003dac <HAL_RCCEx_PeriphCLKConfig+0x160>)
 8003c86:	69db      	ldr	r3, [r3, #28]
 8003c88:	f003 5380 	and.w	r3, r3, #268435456	; 0x10000000
 8003c8c:	60bb      	str	r3, [r7, #8]
 8003c8e:	68bb      	ldr	r3, [r7, #8]
 8003c90:	2301      	movs	r3, #1
 8003c92:	75fb      	strb	r3, [r7, #23]
 8003c94:	4b46      	ldr	r3, [pc, #280]	; (8003db0 <HAL_RCCEx_PeriphCLKConfig+0x164>)
 8003c96:	681b      	ldr	r3, [r3, #0]
 8003c98:	f403 7380 	and.w	r3, r3, #256	; 0x100
 8003c9c:	2b00      	cmp	r3, #0
 8003c9e:	d118      	bne.n	8003cd2 <HAL_RCCEx_PeriphCLKConfig+0x86>
 8003ca0:	4b43      	ldr	r3, [pc, #268]	; (8003db0 <HAL_RCCEx_PeriphCLKConfig+0x164>)
 8003ca2:	681b      	ldr	r3, [r3, #0]
 8003ca4:	4a42      	ldr	r2, [pc, #264]	; (8003db0 <HAL_RCCEx_PeriphCLKConfig+0x164>)
 8003ca6:	f443 7380 	orr.w	r3, r3, #256	; 0x100
 8003caa:	6013      	str	r3, [r2, #0]
 8003cac:	f7fd fe20 	bl	80018f0 <HAL_GetTick>
 8003cb0:	6138      	str	r0, [r7, #16]
 8003cb2:	e008      	b.n	8003cc6 <HAL_RCCEx_PeriphCLKConfig+0x7a>
 8003cb4:	f7fd fe1c 	bl	80018f0 <HAL_GetTick>
 8003cb8:	4602      	mov	r2, r0
 8003cba:	693b      	ldr	r3, [r7, #16]
 8003cbc:	1ad3      	subs	r3, r2, r3
 8003cbe:	2b64      	cmp	r3, #100	; 0x64
 8003cc0:	d901      	bls.n	8003cc6 <HAL_RCCEx_PeriphCLKConfig+0x7a>
 8003cc2:	2303      	movs	r3, #3
 8003cc4:	e06d      	b.n	8003da2 <HAL_RCCEx_PeriphCLKConfig+0x156>
 8003cc6:	4b3a      	ldr	r3, [pc, #232]	; (8003db0 <HAL_RCCEx_PeriphCLKConfig+0x164>)
 8003cc8:	681b      	ldr	r3, [r3, #0]
 8003cca:	f403 7380 	and.w	r3, r3, #256	; 0x100
 8003cce:	2b00      	cmp	r3, #0
 8003cd0:	d0f0      	beq.n	8003cb4 <HAL_RCCEx_PeriphCLKConfig+0x68>
 8003cd2:	4b36      	ldr	r3, [pc, #216]	; (8003dac <HAL_RCCEx_PeriphCLKConfig+0x160>)
 8003cd4:	6a1b      	ldr	r3, [r3, #32]
 8003cd6:	f403 7340 	and.w	r3, r3, #768	; 0x300
 8003cda:	60fb      	str	r3, [r7, #12]
 8003cdc:	68fb      	ldr	r3, [r7, #12]
 8003cde:	2b00      	cmp	r3, #0
 8003ce0:	d02e      	beq.n	8003d40 <HAL_RCCEx_PeriphCLKConfig+0xf4>
 8003ce2:	687b      	ldr	r3, [r7, #4]
 8003ce4:	685b      	ldr	r3, [r3, #4]
 8003ce6:	f403 7340 	and.w	r3, r3, #768	; 0x300
 8003cea:	68fa      	ldr	r2, [r7, #12]
 8003cec:	429a      	cmp	r2, r3
 8003cee:	d027      	beq.n	8003d40 <HAL_RCCEx_PeriphCLKConfig+0xf4>
 8003cf0:	4b2e      	ldr	r3, [pc, #184]	; (8003dac <HAL_RCCEx_PeriphCLKConfig+0x160>)
 8003cf2:	6a1b      	ldr	r3, [r3, #32]
 8003cf4:	f423 7340 	bic.w	r3, r3, #768	; 0x300
 8003cf8:	60fb      	str	r3, [r7, #12]
 8003cfa:	4b2e      	ldr	r3, [pc, #184]	; (8003db4 <HAL_RCCEx_PeriphCLKConfig+0x168>)
 8003cfc:	2201      	movs	r2, #1
 8003cfe:	601a      	str	r2, [r3, #0]
 8003d00:	4b2c      	ldr	r3, [pc, #176]	; (8003db4 <HAL_RCCEx_PeriphCLKConfig+0x168>)
 8003d02:	2200      	movs	r2, #0
 8003d04:	601a      	str	r2, [r3, #0]
 8003d06:	4a29      	ldr	r2, [pc, #164]	; (8003dac <HAL_RCCEx_PeriphCLKConfig+0x160>)
 8003d08:	68fb      	ldr	r3, [r7, #12]
 8003d0a:	6213      	str	r3, [r2, #32]
 8003d0c:	68fb      	ldr	r3, [r7, #12]
 8003d0e:	f003 0301 	and.w	r3, r3, #1
 8003d12:	2b00      	cmp	r3, #0
 8003d14:	d014      	beq.n	8003d40 <HAL_RCCEx_PeriphCLKConfig+0xf4>
 8003d16:	f7fd fdeb 	bl	80018f0 <HAL_GetTick>
 8003d1a:	6138      	str	r0, [r7, #16]
 8003d1c:	e00a      	b.n	8003d34 <HAL_RCCEx_PeriphCLKConfig+0xe8>
 8003d1e:	f7fd fde7 	bl	80018f0 <HAL_GetTick>
 8003d22:	4602      	mov	r2, r0
 8003d24:	693b      	ldr	r3, [r7, #16]
 8003d26:	1ad3      	subs	r3, r2, r3
 8003d28:	f241 3288 	movw	r2, #5000	; 0x1388
 8003d2c:	4293      	cmp	r3, r2
 8003d2e:	d901      	bls.n	8003d34 <HAL_RCCEx_PeriphCLKConfig+0xe8>
 8003d30:	2303      	movs	r3, #3
 8003d32:	e036      	b.n	8003da2 <HAL_RCCEx_PeriphCLKConfig+0x156>
 8003d34:	4b1d      	ldr	r3, [pc, #116]	; (8003dac <HAL_RCCEx_PeriphCLKConfig+0x160>)
 8003d36:	6a1b      	ldr	r3, [r3, #32]
 8003d38:	f003 0302 	and.w	r3, r3, #2
 8003d3c:	2b00      	cmp	r3, #0
 8003d3e:	d0ee      	beq.n	8003d1e <HAL_RCCEx_PeriphCLKConfig+0xd2>
 8003d40:	4b1a      	ldr	r3, [pc, #104]	; (8003dac <HAL_RCCEx_PeriphCLKConfig+0x160>)
 8003d42:	6a1b      	ldr	r3, [r3, #32]
 8003d44:	f423 7240 	bic.w	r2, r3, #768	; 0x300
 8003d48:	687b      	ldr	r3, [r7, #4]
 8003d4a:	685b      	ldr	r3, [r3, #4]
 8003d4c:	4917      	ldr	r1, [pc, #92]	; (8003dac <HAL_RCCEx_PeriphCLKConfig+0x160>)
 8003d4e:	4313      	orrs	r3, r2
 8003d50:	620b      	str	r3, [r1, #32]
 8003d52:	7dfb      	ldrb	r3, [r7, #23]
 8003d54:	2b01      	cmp	r3, #1
 8003d56:	d105      	bne.n	8003d64 <HAL_RCCEx_PeriphCLKConfig+0x118>
 8003d58:	4b14      	ldr	r3, [pc, #80]	; (8003dac <HAL_RCCEx_PeriphCLKConfig+0x160>)
 8003d5a:	69db      	ldr	r3, [r3, #28]
 8003d5c:	4a13      	ldr	r2, [pc, #76]	; (8003dac <HAL_RCCEx_PeriphCLKConfig+0x160>)
 8003d5e:	f023 5380 	bic.w	r3, r3, #268435456	; 0x10000000
 8003d62:	61d3      	str	r3, [r2, #28]
 8003d64:	687b      	ldr	r3, [r7, #4]
 8003d66:	681b      	ldr	r3, [r3, #0]
 8003d68:	f003 0302 	and.w	r3, r3, #2
 8003d6c:	2b00      	cmp	r3, #0
 8003d6e:	d008      	beq.n	8003d82 <HAL_RCCEx_PeriphCLKConfig+0x136>
 8003d70:	4b0e      	ldr	r3, [pc, #56]	; (8003dac <HAL_RCCEx_PeriphCLKConfig+0x160>)
 8003d72:	685b      	ldr	r3, [r3, #4]
 8003d74:	f423 4240 	bic.w	r2, r3, #49152	; 0xc000
 8003d78:	687b      	ldr	r3, [r7, #4]
 8003d7a:	689b      	ldr	r3, [r3, #8]
 8003d7c:	490b      	ldr	r1, [pc, #44]	; (8003dac <HAL_RCCEx_PeriphCLKConfig+0x160>)
 8003d7e:	4313      	orrs	r3, r2
 8003d80:	604b      	str	r3, [r1, #4]
 8003d82:	687b      	ldr	r3, [r7, #4]
 8003d84:	681b      	ldr	r3, [r3, #0]
 8003d86:	f003 0310 	and.w	r3, r3, #16
 8003d8a:	2b00      	cmp	r3, #0
 8003d8c:	d008      	beq.n	8003da0 <HAL_RCCEx_PeriphCLKConfig+0x154>
 8003d8e:	4b07      	ldr	r3, [pc, #28]	; (8003dac <HAL_RCCEx_PeriphCLKConfig+0x160>)
 8003d90:	685b      	ldr	r3, [r3, #4]
 8003d92:	f423 0280 	bic.w	r2, r3, #4194304	; 0x400000
 8003d96:	687b      	ldr	r3, [r7, #4]
 8003d98:	68db      	ldr	r3, [r3, #12]
 8003d9a:	4904      	ldr	r1, [pc, #16]	; (8003dac <HAL_RCCEx_PeriphCLKConfig+0x160>)
 8003d9c:	4313      	orrs	r3, r2
 8003d9e:	604b      	str	r3, [r1, #4]
 8003da0:	2300      	movs	r3, #0
 8003da2:	4618      	mov	r0, r3
 8003da4:	3718      	adds	r7, #24
 8003da6:	46bd      	mov	sp, r7
 8003da8:	bd80      	pop	{r7, pc}
 8003daa:	bf00      	nop
 8003dac:	40021000 	.word	0x40021000
 8003db0:	40007000 	.word	0x40007000
 8003db4:	42420440 	.word	0x42420440

08003db8 <USB_CoreInit>:
 8003db8:	b084      	sub	sp, #16
 8003dba:	b480      	push	{r7}
 8003dbc:	b083      	sub	sp, #12
 8003dbe:	af00      	add	r7, sp, #0
 8003dc0:	6078      	str	r0, [r7, #4]
 8003dc2:	f107 0014 	add.w	r0, r7, #20
 8003dc6:	e880 000e 	stmia.w	r0, {r1, r2, r3}
 8003dca:	2300      	movs	r3, #0
 8003dcc:	4618      	mov	r0, r3
 8003dce:	370c      	adds	r7, #12
 8003dd0:	46bd      	mov	sp, r7
 8003dd2:	bc80      	pop	{r7}
 8003dd4:	b004      	add	sp, #16
 8003dd6:	4770      	bx	lr

08003dd8 <USB_EnableGlobalInt>:
 8003dd8:	b480      	push	{r7}
 8003dda:	b085      	sub	sp, #20
 8003ddc:	af00      	add	r7, sp, #0
 8003dde:	6078      	str	r0, [r7, #4]
 8003de0:	687b      	ldr	r3, [r7, #4]
 8003de2:	2200      	movs	r2, #0
 8003de4:	f8a3 2044 	strh.w	r2, [r3, #68]	; 0x44
 8003de8:	f44f 433f 	mov.w	r3, #48896	; 0xbf00
 8003dec:	60fb      	str	r3, [r7, #12]
 8003dee:	68fb      	ldr	r3, [r7, #12]
 8003df0:	b29a      	uxth	r2, r3
 8003df2:	687b      	ldr	r3, [r7, #4]
 8003df4:	f8a3 2040 	strh.w	r2, [r3, #64]	; 0x40
 8003df8:	2300      	movs	r3, #0
 8003dfa:	4618      	mov	r0, r3
 8003dfc:	3714      	adds	r7, #20
 8003dfe:	46bd      	mov	sp, r7
 8003e00:	bc80      	pop	{r7}
 8003e02:	4770      	bx	lr

08003e04 <USB_DisableGlobalInt>:
 8003e04:	b480      	push	{r7}
 8003e06:	b085      	sub	sp, #20
 8003e08:	af00      	add	r7, sp, #0
 8003e0a:	6078      	str	r0, [r7, #4]
 8003e0c:	f44f 433f 	mov.w	r3, #48896	; 0xbf00
 8003e10:	60fb      	str	r3, [r7, #12]
 8003e12:	687b      	ldr	r3, [r7, #4]
 8003e14:	f8b3 3040 	ldrh.w	r3, [r3, #64]	; 0x40
 8003e18:	b29a      	uxth	r2, r3
 8003e1a:	68fb      	ldr	r3, [r7, #12]
 8003e1c:	b29b      	uxth	r3, r3
 8003e1e:	43db      	mvns	r3, r3
 8003e20:	b29b      	uxth	r3, r3
 8003e22:	4013      	ands	r3, r2
 8003e24:	b29a      	uxth	r2, r3
 8003e26:	687b      	ldr	r3, [r7, #4]
 8003e28:	f8a3 2040 	strh.w	r2, [r3, #64]	; 0x40
 8003e2c:	2300      	movs	r3, #0
 8003e2e:	4618      	mov	r0, r3
 8003e30:	3714      	adds	r7, #20
 8003e32:	46bd      	mov	sp, r7
 8003e34:	bc80      	pop	{r7}
 8003e36:	4770      	bx	lr

08003e38 <USB_SetCurrentMode>:
 8003e38:	b480      	push	{r7}
 8003e3a:	b083      	sub	sp, #12
 8003e3c:	af00      	add	r7, sp, #0
 8003e3e:	6078      	str	r0, [r7, #4]
 8003e40:	460b      	mov	r3, r1
 8003e42:	70fb      	strb	r3, [r7, #3]
 8003e44:	2300      	movs	r3, #0
 8003e46:	4618      	mov	r0, r3
 8003e48:	370c      	adds	r7, #12
 8003e4a:	46bd      	mov	sp, r7
 8003e4c:	bc80      	pop	{r7}
 8003e4e:	4770      	bx	lr

08003e50 <USB_DevInit>:
 8003e50:	b084      	sub	sp, #16
 8003e52:	b480      	push	{r7}
 8003e54:	b083      	sub	sp, #12
 8003e56:	af00      	add	r7, sp, #0
 8003e58:	6078      	str	r0, [r7, #4]
 8003e5a:	f107 0014 	add.w	r0, r7, #20
 8003e5e:	e880 000e 	stmia.w	r0, {r1, r2, r3}
 8003e62:	687b      	ldr	r3, [r7, #4]
 8003e64:	2201      	movs	r2, #1
 8003e66:	f8a3 2040 	strh.w	r2, [r3, #64]	; 0x40
 8003e6a:	687b      	ldr	r3, [r7, #4]
 8003e6c:	2200      	movs	r2, #0
 8003e6e:	f8a3 2040 	strh.w	r2, [r3, #64]	; 0x40
 8003e72:	687b      	ldr	r3, [r7, #4]
 8003e74:	2200      	movs	r2, #0
 8003e76:	f8a3 2044 	strh.w	r2, [r3, #68]	; 0x44
 8003e7a:	687b      	ldr	r3, [r7, #4]
 8003e7c:	2200      	movs	r2, #0
 8003e7e:	f8a3 2050 	strh.w	r2, [r3, #80]	; 0x50
 8003e82:	2300      	movs	r3, #0
 8003e84:	4618      	mov	r0, r3
 8003e86:	370c      	adds	r7, #12
 8003e88:	46bd      	mov	sp, r7
 8003e8a:	bc80      	pop	{r7}
 8003e8c:	b004      	add	sp, #16
 8003e8e:	4770      	bx	lr

08003e90 <USB_ActivateEndpoint>:
 8003e90:	b480      	push	{r7}
 8003e92:	b09b      	sub	sp, #108	; 0x6c
 8003e94:	af00      	add	r7, sp, #0
 8003e96:	6078      	str	r0, [r7, #4]
 8003e98:	6039      	str	r1, [r7, #0]
 8003e9a:	2300      	movs	r3, #0
 8003e9c:	f887 3067 	strb.w	r3, [r7, #103]	; 0x67
 8003ea0:	687a      	ldr	r2, [r7, #4]
 8003ea2:	683b      	ldr	r3, [r7, #0]
 8003ea4:	781b      	ldrb	r3, [r3, #0]
 8003ea6:	009b      	lsls	r3, r3, #2
 8003ea8:	4413      	add	r3, r2
 8003eaa:	881b      	ldrh	r3, [r3, #0]
 8003eac:	b29b      	uxth	r3, r3
 8003eae:	f423 43ec 	bic.w	r3, r3, #30208	; 0x7600
 8003eb2:	f023 0370 	bic.w	r3, r3, #112	; 0x70
 8003eb6:	f8a7 3064 	strh.w	r3, [r7, #100]	; 0x64
 8003eba:	683b      	ldr	r3, [r7, #0]
 8003ebc:	78db      	ldrb	r3, [r3, #3]
 8003ebe:	2b03      	cmp	r3, #3
 8003ec0:	d81f      	bhi.n	8003f02 <USB_ActivateEndpoint+0x72>
 8003ec2:	a201      	add	r2, pc, #4	; (adr r2, 8003ec8 <USB_ActivateEndpoint+0x38>)
 8003ec4:	f852 f023 	ldr.w	pc, [r2, r3, lsl #2]
 8003ec8:	08003ed9 	.word	0x08003ed9
 8003ecc:	08003ef5 	.word	0x08003ef5
 8003ed0:	08003f0b 	.word	0x08003f0b
 8003ed4:	08003ee7 	.word	0x08003ee7
 8003ed8:	f8b7 3064 	ldrh.w	r3, [r7, #100]	; 0x64
 8003edc:	f443 7300 	orr.w	r3, r3, #512	; 0x200
 8003ee0:	f8a7 3064 	strh.w	r3, [r7, #100]	; 0x64
 8003ee4:	e012      	b.n	8003f0c <USB_ActivateEndpoint+0x7c>
 8003ee6:	f8b7 3064 	ldrh.w	r3, [r7, #100]	; 0x64
 8003eea:	f443 63c0 	orr.w	r3, r3, #1536	; 0x600
 8003eee:	f8a7 3064 	strh.w	r3, [r7, #100]	; 0x64
 8003ef2:	e00b      	b.n	8003f0c <USB_ActivateEndpoint+0x7c>
 8003ef4:	f8b7 3064 	ldrh.w	r3, [r7, #100]	; 0x64
 8003ef8:	f443 6380 	orr.w	r3, r3, #1024	; 0x400
 8003efc:	f8a7 3064 	strh.w	r3, [r7, #100]	; 0x64
 8003f00:	e004      	b.n	8003f0c <USB_ActivateEndpoint+0x7c>
 8003f02:	2301      	movs	r3, #1
 8003f04:	f887 3067 	strb.w	r3, [r7, #103]	; 0x67
 8003f08:	e000      	b.n	8003f0c <USB_ActivateEndpoint+0x7c>
 8003f0a:	bf00      	nop
 8003f0c:	687a      	ldr	r2, [r7, #4]
 8003f0e:	683b      	ldr	r3, [r7, #0]
 8003f10:	781b      	ldrb	r3, [r3, #0]
 8003f12:	009b      	lsls	r3, r3, #2
 8003f14:	441a      	add	r2, r3
 8003f16:	f8b7 3064 	ldrh.w	r3, [r7, #100]	; 0x64
 8003f1a:	f043 437f 	orr.w	r3, r3, #4278190080	; 0xff000000
 8003f1e:	f443 037f 	orr.w	r3, r3, #16711680	; 0xff0000
 8003f22:	f443 4300 	orr.w	r3, r3, #32768	; 0x8000
 8003f26:	f043 0380 	orr.w	r3, r3, #128	; 0x80
 8003f2a:	b29b      	uxth	r3, r3
 8003f2c:	8013      	strh	r3, [r2, #0]
 8003f2e:	687a      	ldr	r2, [r7, #4]
 8003f30:	683b      	ldr	r3, [r7, #0]
 8003f32:	781b      	ldrb	r3, [r3, #0]
 8003f34:	009b      	lsls	r3, r3, #2
 8003f36:	4413      	add	r3, r2
 8003f38:	881b      	ldrh	r3, [r3, #0]
 8003f3a:	b29b      	uxth	r3, r3
 8003f3c:	f423 43e0 	bic.w	r3, r3, #28672	; 0x7000
 8003f40:	f023 0370 	bic.w	r3, r3, #112	; 0x70
 8003f44:	b29a      	uxth	r2, r3
 8003f46:	683b      	ldr	r3, [r7, #0]
 8003f48:	781b      	ldrb	r3, [r3, #0]
 8003f4a:	b29b      	uxth	r3, r3
 8003f4c:	4313      	orrs	r3, r2
 8003f4e:	f8a7 305e 	strh.w	r3, [r7, #94]	; 0x5e
 8003f52:	687a      	ldr	r2, [r7, #4]
 8003f54:	683b      	ldr	r3, [r7, #0]
 8003f56:	781b      	ldrb	r3, [r3, #0]
 8003f58:	009b      	lsls	r3, r3, #2
 8003f5a:	441a      	add	r2, r3
 8003f5c:	f8b7 305e 	ldrh.w	r3, [r7, #94]	; 0x5e
 8003f60:	f043 437f 	orr.w	r3, r3, #4278190080	; 0xff000000
 8003f64:	f443 037f 	orr.w	r3, r3, #16711680	; 0xff0000
 8003f68:	f443 4300 	orr.w	r3, r3, #32768	; 0x8000
 8003f6c:	f043 0380 	orr.w	r3, r3, #128	; 0x80
 8003f70:	b29b      	uxth	r3, r3
 8003f72:	8013      	strh	r3, [r2, #0]
 8003f74:	683b      	ldr	r3, [r7, #0]
 8003f76:	7b1b      	ldrb	r3, [r3, #12]
 8003f78:	2b00      	cmp	r3, #0
 8003f7a:	f040 8149 	bne.w	8004210 <USB_ActivateEndpoint+0x380>
 8003f7e:	683b      	ldr	r3, [r7, #0]
 8003f80:	785b      	ldrb	r3, [r3, #1]
 8003f82:	2b00      	cmp	r3, #0
 8003f84:	f000 8084 	beq.w	8004090 <USB_ActivateEndpoint+0x200>
 8003f88:	687b      	ldr	r3, [r7, #4]
 8003f8a:	617b      	str	r3, [r7, #20]
 8003f8c:	687b      	ldr	r3, [r7, #4]
 8003f8e:	f8b3 3050 	ldrh.w	r3, [r3, #80]	; 0x50
 8003f92:	b29b      	uxth	r3, r3
 8003f94:	461a      	mov	r2, r3
 8003f96:	697b      	ldr	r3, [r7, #20]
 8003f98:	4413      	add	r3, r2
 8003f9a:	617b      	str	r3, [r7, #20]
 8003f9c:	683b      	ldr	r3, [r7, #0]
 8003f9e:	781b      	ldrb	r3, [r3, #0]
 8003fa0:	011a      	lsls	r2, r3, #4
 8003fa2:	697b      	ldr	r3, [r7, #20]
 8003fa4:	4413      	add	r3, r2
 8003fa6:	f503 6380 	add.w	r3, r3, #1024	; 0x400
 8003faa:	613b      	str	r3, [r7, #16]
 8003fac:	683b      	ldr	r3, [r7, #0]
 8003fae:	88db      	ldrh	r3, [r3, #6]
 8003fb0:	085b      	lsrs	r3, r3, #1
 8003fb2:	b29b      	uxth	r3, r3
 8003fb4:	005b      	lsls	r3, r3, #1
 8003fb6:	b29a      	uxth	r2, r3
 8003fb8:	693b      	ldr	r3, [r7, #16]
 8003fba:	801a      	strh	r2, [r3, #0]
 8003fbc:	687a      	ldr	r2, [r7, #4]
 8003fbe:	683b      	ldr	r3, [r7, #0]
 8003fc0:	781b      	ldrb	r3, [r3, #0]
 8003fc2:	009b      	lsls	r3, r3, #2
 8003fc4:	4413      	add	r3, r2
 8003fc6:	881b      	ldrh	r3, [r3, #0]
 8003fc8:	81fb      	strh	r3, [r7, #14]
 8003fca:	89fb      	ldrh	r3, [r7, #14]
 8003fcc:	f003 0340 	and.w	r3, r3, #64	; 0x40
 8003fd0:	2b00      	cmp	r3, #0
 8003fd2:	d01b      	beq.n	800400c <USB_ActivateEndpoint+0x17c>
 8003fd4:	687a      	ldr	r2, [r7, #4]
 8003fd6:	683b      	ldr	r3, [r7, #0]
 8003fd8:	781b      	ldrb	r3, [r3, #0]
 8003fda:	009b      	lsls	r3, r3, #2
 8003fdc:	4413      	add	r3, r2
 8003fde:	881b      	ldrh	r3, [r3, #0]
 8003fe0:	b29b      	uxth	r3, r3
 8003fe2:	f423 43e0 	bic.w	r3, r3, #28672	; 0x7000
 8003fe6:	f023 0370 	bic.w	r3, r3, #112	; 0x70
 8003fea:	81bb      	strh	r3, [r7, #12]
 8003fec:	687a      	ldr	r2, [r7, #4]
 8003fee:	683b      	ldr	r3, [r7, #0]
 8003ff0:	781b      	ldrb	r3, [r3, #0]
 8003ff2:	009b      	lsls	r3, r3, #2
 8003ff4:	441a      	add	r2, r3
 8003ff6:	89bb      	ldrh	r3, [r7, #12]
 8003ff8:	f043 437f 	orr.w	r3, r3, #4278190080	; 0xff000000
 8003ffc:	f443 037f 	orr.w	r3, r3, #16711680	; 0xff0000
 8004000:	f443 4300 	orr.w	r3, r3, #32768	; 0x8000
 8004004:	f043 03c0 	orr.w	r3, r3, #192	; 0xc0
 8004008:	b29b      	uxth	r3, r3
 800400a:	8013      	strh	r3, [r2, #0]
 800400c:	683b      	ldr	r3, [r7, #0]
 800400e:	78db      	ldrb	r3, [r3, #3]
 8004010:	2b01      	cmp	r3, #1
 8004012:	d020      	beq.n	8004056 <USB_ActivateEndpoint+0x1c6>
 8004014:	687a      	ldr	r2, [r7, #4]
 8004016:	683b      	ldr	r3, [r7, #0]
 8004018:	781b      	ldrb	r3, [r3, #0]
 800401a:	009b      	lsls	r3, r3, #2
 800401c:	4413      	add	r3, r2
 800401e:	881b      	ldrh	r3, [r3, #0]
 8004020:	b29b      	uxth	r3, r3
 8004022:	f423 43e0 	bic.w	r3, r3, #28672	; 0x7000
 8004026:	f023 0340 	bic.w	r3, r3, #64	; 0x40
 800402a:	813b      	strh	r3, [r7, #8]
 800402c:	893b      	ldrh	r3, [r7, #8]
 800402e:	f083 0320 	eor.w	r3, r3, #32
 8004032:	813b      	strh	r3, [r7, #8]
 8004034:	687a      	ldr	r2, [r7, #4]
 8004036:	683b      	ldr	r3, [r7, #0]
 8004038:	781b      	ldrb	r3, [r3, #0]
 800403a:	009b      	lsls	r3, r3, #2
 800403c:	441a      	add	r2, r3
 800403e:	893b      	ldrh	r3, [r7, #8]
 8004040:	f043 437f 	orr.w	r3, r3, #4278190080	; 0xff000000
 8004044:	f443 037f 	orr.w	r3, r3, #16711680	; 0xff0000
 8004048:	f443 4300 	orr.w	r3, r3, #32768	; 0x8000
 800404c:	f043 0380 	orr.w	r3, r3, #128	; 0x80
 8004050:	b29b      	uxth	r3, r3
 8004052:	8013      	strh	r3, [r2, #0]
 8004054:	e27f      	b.n	8004556 <USB_ActivateEndpoint+0x6c6>
 8004056:	687a      	ldr	r2, [r7, #4]
 8004058:	683b      	ldr	r3, [r7, #0]
 800405a:	781b      	ldrb	r3, [r3, #0]
 800405c:	009b      	lsls	r3, r3, #2
 800405e:	4413      	add	r3, r2
 8004060:	881b      	ldrh	r3, [r3, #0]
 8004062:	b29b      	uxth	r3, r3
 8004064:	f423 43e0 	bic.w	r3, r3, #28672	; 0x7000
 8004068:	f023 0340 	bic.w	r3, r3, #64	; 0x40
 800406c:	817b      	strh	r3, [r7, #10]
 800406e:	687a      	ldr	r2, [r7, #4]
 8004070:	683b      	ldr	r3, [r7, #0]
 8004072:	781b      	ldrb	r3, [r3, #0]
 8004074:	009b      	lsls	r3, r3, #2
 8004076:	441a      	add	r2, r3
 8004078:	897b      	ldrh	r3, [r7, #10]
 800407a:	f043 437f 	orr.w	r3, r3, #4278190080	; 0xff000000
 800407e:	f443 037f 	orr.w	r3, r3, #16711680	; 0xff0000
 8004082:	f443 4300 	orr.w	r3, r3, #32768	; 0x8000
 8004086:	f043 0380 	orr.w	r3, r3, #128	; 0x80
 800408a:	b29b      	uxth	r3, r3
 800408c:	8013      	strh	r3, [r2, #0]
 800408e:	e262      	b.n	8004556 <USB_ActivateEndpoint+0x6c6>
 8004090:	687b      	ldr	r3, [r7, #4]
 8004092:	62fb      	str	r3, [r7, #44]	; 0x2c
 8004094:	687b      	ldr	r3, [r7, #4]
 8004096:	f8b3 3050 	ldrh.w	r3, [r3, #80]	; 0x50
 800409a:	b29b      	uxth	r3, r3
 800409c:	461a      	mov	r2, r3
 800409e:	6afb      	ldr	r3, [r7, #44]	; 0x2c
 80040a0:	4413      	add	r3, r2
 80040a2:	62fb      	str	r3, [r7, #44]	; 0x2c
 80040a4:	683b      	ldr	r3, [r7, #0]
 80040a6:	781b      	ldrb	r3, [r3, #0]
 80040a8:	011a      	lsls	r2, r3, #4
 80040aa:	6afb      	ldr	r3, [r7, #44]	; 0x2c
 80040ac:	4413      	add	r3, r2
 80040ae:	f503 6381 	add.w	r3, r3, #1032	; 0x408
 80040b2:	62bb      	str	r3, [r7, #40]	; 0x28
 80040b4:	683b      	ldr	r3, [r7, #0]
 80040b6:	88db      	ldrh	r3, [r3, #6]
 80040b8:	085b      	lsrs	r3, r3, #1
 80040ba:	b29b      	uxth	r3, r3
 80040bc:	005b      	lsls	r3, r3, #1
 80040be:	b29a      	uxth	r2, r3
 80040c0:	6abb      	ldr	r3, [r7, #40]	; 0x28
 80040c2:	801a      	strh	r2, [r3, #0]
 80040c4:	687b      	ldr	r3, [r7, #4]
 80040c6:	627b      	str	r3, [r7, #36]	; 0x24
 80040c8:	687b      	ldr	r3, [r7, #4]
 80040ca:	f8b3 3050 	ldrh.w	r3, [r3, #80]	; 0x50
 80040ce:	b29b      	uxth	r3, r3
 80040d0:	461a      	mov	r2, r3
 80040d2:	6a7b      	ldr	r3, [r7, #36]	; 0x24
 80040d4:	4413      	add	r3, r2
 80040d6:	627b      	str	r3, [r7, #36]	; 0x24
 80040d8:	683b      	ldr	r3, [r7, #0]
 80040da:	781b      	ldrb	r3, [r3, #0]
 80040dc:	011a      	lsls	r2, r3, #4
 80040de:	6a7b      	ldr	r3, [r7, #36]	; 0x24
 80040e0:	4413      	add	r3, r2
 80040e2:	f203 430c 	addw	r3, r3, #1036	; 0x40c
 80040e6:	623b      	str	r3, [r7, #32]
 80040e8:	683b      	ldr	r3, [r7, #0]
 80040ea:	691b      	ldr	r3, [r3, #16]
 80040ec:	2b00      	cmp	r3, #0
 80040ee:	d112      	bne.n	8004116 <USB_ActivateEndpoint+0x286>
 80040f0:	6a3b      	ldr	r3, [r7, #32]
 80040f2:	881b      	ldrh	r3, [r3, #0]
 80040f4:	b29b      	uxth	r3, r3
 80040f6:	f423 43f8 	bic.w	r3, r3, #31744	; 0x7c00
 80040fa:	b29a      	uxth	r2, r3
 80040fc:	6a3b      	ldr	r3, [r7, #32]
 80040fe:	801a      	strh	r2, [r3, #0]
 8004100:	6a3b      	ldr	r3, [r7, #32]
 8004102:	881b      	ldrh	r3, [r3, #0]
 8004104:	b29b      	uxth	r3, r3
 8004106:	ea6f 4343 	mvn.w	r3, r3, lsl #17
 800410a:	ea6f 4353 	mvn.w	r3, r3, lsr #17
 800410e:	b29a      	uxth	r2, r3
 8004110:	6a3b      	ldr	r3, [r7, #32]
 8004112:	801a      	strh	r2, [r3, #0]
 8004114:	e02f      	b.n	8004176 <USB_ActivateEndpoint+0x2e6>
 8004116:	683b      	ldr	r3, [r7, #0]
 8004118:	691b      	ldr	r3, [r3, #16]
 800411a:	2b3e      	cmp	r3, #62	; 0x3e
 800411c:	d813      	bhi.n	8004146 <USB_ActivateEndpoint+0x2b6>
 800411e:	683b      	ldr	r3, [r7, #0]
 8004120:	691b      	ldr	r3, [r3, #16]
 8004122:	085b      	lsrs	r3, r3, #1
 8004124:	663b      	str	r3, [r7, #96]	; 0x60
 8004126:	683b      	ldr	r3, [r7, #0]
 8004128:	691b      	ldr	r3, [r3, #16]
 800412a:	f003 0301 	and.w	r3, r3, #1
 800412e:	2b00      	cmp	r3, #0
 8004130:	d002      	beq.n	8004138 <USB_ActivateEndpoint+0x2a8>
 8004132:	6e3b      	ldr	r3, [r7, #96]	; 0x60
 8004134:	3301      	adds	r3, #1
 8004136:	663b      	str	r3, [r7, #96]	; 0x60
 8004138:	6e3b      	ldr	r3, [r7, #96]	; 0x60
 800413a:	b29b      	uxth	r3, r3
 800413c:	029b      	lsls	r3, r3, #10
 800413e:	b29a      	uxth	r2, r3
 8004140:	6a3b      	ldr	r3, [r7, #32]
 8004142:	801a      	strh	r2, [r3, #0]
 8004144:	e017      	b.n	8004176 <USB_ActivateEndpoint+0x2e6>
 8004146:	683b      	ldr	r3, [r7, #0]
 8004148:	691b      	ldr	r3, [r3, #16]
 800414a:	095b      	lsrs	r3, r3, #5
 800414c:	663b      	str	r3, [r7, #96]	; 0x60
 800414e:	683b      	ldr	r3, [r7, #0]
 8004150:	691b      	ldr	r3, [r3, #16]
 8004152:	f003 031f 	and.w	r3, r3, #31
 8004156:	2b00      	cmp	r3, #0
 8004158:	d102      	bne.n	8004160 <USB_ActivateEndpoint+0x2d0>
 800415a:	6e3b      	ldr	r3, [r7, #96]	; 0x60
 800415c:	3b01      	subs	r3, #1
 800415e:	663b      	str	r3, [r7, #96]	; 0x60
 8004160:	6e3b      	ldr	r3, [r7, #96]	; 0x60
 8004162:	b29b      	uxth	r3, r3
 8004164:	029b      	lsls	r3, r3, #10
 8004166:	b29b      	uxth	r3, r3
 8004168:	ea6f 4343 	mvn.w	r3, r3, lsl #17
 800416c:	ea6f 4353 	mvn.w	r3, r3, lsr #17
 8004170:	b29a      	uxth	r2, r3
 8004172:	6a3b      	ldr	r3, [r7, #32]
 8004174:	801a      	strh	r2, [r3, #0]
 8004176:	687a      	ldr	r2, [r7, #4]
 8004178:	683b      	ldr	r3, [r7, #0]
 800417a:	781b      	ldrb	r3, [r3, #0]
 800417c:	009b      	lsls	r3, r3, #2
 800417e:	4413      	add	r3, r2
 8004180:	881b      	ldrh	r3, [r3, #0]
 8004182:	83fb      	strh	r3, [r7, #30]
 8004184:	8bfb      	ldrh	r3, [r7, #30]
 8004186:	f403 4380 	and.w	r3, r3, #16384	; 0x4000
 800418a:	2b00      	cmp	r3, #0
 800418c:	d01b      	beq.n	80041c6 <USB_ActivateEndpoint+0x336>
 800418e:	687a      	ldr	r2, [r7, #4]
 8004190:	683b      	ldr	r3, [r7, #0]
 8004192:	781b      	ldrb	r3, [r3, #0]
 8004194:	009b      	lsls	r3, r3, #2
 8004196:	4413      	add	r3, r2
 8004198:	881b      	ldrh	r3, [r3, #0]
 800419a:	b29b      	uxth	r3, r3
 800419c:	f423 43e0 	bic.w	r3, r3, #28672	; 0x7000
 80041a0:	f023 0370 	bic.w	r3, r3, #112	; 0x70
 80041a4:	83bb      	strh	r3, [r7, #28]
 80041a6:	687a      	ldr	r2, [r7, #4]
 80041a8:	683b      	ldr	r3, [r7, #0]
 80041aa:	781b      	ldrb	r3, [r3, #0]
 80041ac:	009b      	lsls	r3, r3, #2
 80041ae:	441a      	add	r2, r3
 80041b0:	8bbb      	ldrh	r3, [r7, #28]
 80041b2:	f043 437f 	orr.w	r3, r3, #4278190080	; 0xff000000
 80041b6:	f443 037f 	orr.w	r3, r3, #16711680	; 0xff0000
 80041ba:	f443 4340 	orr.w	r3, r3, #49152	; 0xc000
 80041be:	f043 0380 	orr.w	r3, r3, #128	; 0x80
 80041c2:	b29b      	uxth	r3, r3
 80041c4:	8013      	strh	r3, [r2, #0]
 80041c6:	687a      	ldr	r2, [r7, #4]
 80041c8:	683b      	ldr	r3, [r7, #0]
 80041ca:	781b      	ldrb	r3, [r3, #0]
 80041cc:	009b      	lsls	r3, r3, #2
 80041ce:	4413      	add	r3, r2
 80041d0:	881b      	ldrh	r3, [r3, #0]
 80041d2:	b29b      	uxth	r3, r3
 80041d4:	f423 4380 	bic.w	r3, r3, #16384	; 0x4000
 80041d8:	f023 0370 	bic.w	r3, r3, #112	; 0x70
 80041dc:	837b      	strh	r3, [r7, #26]
 80041de:	8b7b      	ldrh	r3, [r7, #26]
 80041e0:	f483 5380 	eor.w	r3, r3, #4096	; 0x1000
 80041e4:	837b      	strh	r3, [r7, #26]
 80041e6:	8b7b      	ldrh	r3, [r7, #26]
 80041e8:	f483 5300 	eor.w	r3, r3, #8192	; 0x2000
 80041ec:	837b      	strh	r3, [r7, #26]
 80041ee:	687a      	ldr	r2, [r7, #4]
 80041f0:	683b      	ldr	r3, [r7, #0]
 80041f2:	781b      	ldrb	r3, [r3, #0]
 80041f4:	009b      	lsls	r3, r3, #2
 80041f6:	441a      	add	r2, r3
 80041f8:	8b7b      	ldrh	r3, [r7, #26]
 80041fa:	f043 437f 	orr.w	r3, r3, #4278190080	; 0xff000000
 80041fe:	f443 037f 	orr.w	r3, r3, #16711680	; 0xff0000
 8004202:	f443 4300 	orr.w	r3, r3, #32768	; 0x8000
 8004206:	f043 0380 	orr.w	r3, r3, #128	; 0x80
 800420a:	b29b      	uxth	r3, r3
 800420c:	8013      	strh	r3, [r2, #0]
 800420e:	e1a2      	b.n	8004556 <USB_ActivateEndpoint+0x6c6>
 8004210:	687a      	ldr	r2, [r7, #4]
 8004212:	683b      	ldr	r3, [r7, #0]
 8004214:	781b      	ldrb	r3, [r3, #0]
 8004216:	009b      	lsls	r3, r3, #2
 8004218:	4413      	add	r3, r2
 800421a:	881b      	ldrh	r3, [r3, #0]
 800421c:	b29b      	uxth	r3, r3
 800421e:	f423 43e0 	bic.w	r3, r3, #28672	; 0x7000
 8004222:	f023 0370 	bic.w	r3, r3, #112	; 0x70
 8004226:	f8a7 305c 	strh.w	r3, [r7, #92]	; 0x5c
 800422a:	687a      	ldr	r2, [r7, #4]
 800422c:	683b      	ldr	r3, [r7, #0]
 800422e:	781b      	ldrb	r3, [r3, #0]
 8004230:	009b      	lsls	r3, r3, #2
 8004232:	441a      	add	r2, r3
 8004234:	f8b7 305c 	ldrh.w	r3, [r7, #92]	; 0x5c
 8004238:	f043 437f 	orr.w	r3, r3, #4278190080	; 0xff000000
 800423c:	f443 037f 	orr.w	r3, r3, #16711680	; 0xff0000
 8004240:	f443 4301 	orr.w	r3, r3, #33024	; 0x8100
 8004244:	f043 0380 	orr.w	r3, r3, #128	; 0x80
 8004248:	b29b      	uxth	r3, r3
 800424a:	8013      	strh	r3, [r2, #0]
 800424c:	687b      	ldr	r3, [r7, #4]
 800424e:	65bb      	str	r3, [r7, #88]	; 0x58
 8004250:	687b      	ldr	r3, [r7, #4]
 8004252:	f8b3 3050 	ldrh.w	r3, [r3, #80]	; 0x50
 8004256:	b29b      	uxth	r3, r3
 8004258:	461a      	mov	r2, r3
 800425a:	6dbb      	ldr	r3, [r7, #88]	; 0x58
 800425c:	4413      	add	r3, r2
 800425e:	65bb      	str	r3, [r7, #88]	; 0x58
 8004260:	683b      	ldr	r3, [r7, #0]
 8004262:	781b      	ldrb	r3, [r3, #0]
 8004264:	011a      	lsls	r2, r3, #4
 8004266:	6dbb      	ldr	r3, [r7, #88]	; 0x58
 8004268:	4413      	add	r3, r2
 800426a:	f503 6380 	add.w	r3, r3, #1024	; 0x400
 800426e:	657b      	str	r3, [r7, #84]	; 0x54
 8004270:	683b      	ldr	r3, [r7, #0]
 8004272:	891b      	ldrh	r3, [r3, #8]
 8004274:	085b      	lsrs	r3, r3, #1
 8004276:	b29b      	uxth	r3, r3
 8004278:	005b      	lsls	r3, r3, #1
 800427a:	b29a      	uxth	r2, r3
 800427c:	6d7b      	ldr	r3, [r7, #84]	; 0x54
 800427e:	801a      	strh	r2, [r3, #0]
 8004280:	687b      	ldr	r3, [r7, #4]
 8004282:	653b      	str	r3, [r7, #80]	; 0x50
 8004284:	687b      	ldr	r3, [r7, #4]
 8004286:	f8b3 3050 	ldrh.w	r3, [r3, #80]	; 0x50
 800428a:	b29b      	uxth	r3, r3
 800428c:	461a      	mov	r2, r3
 800428e:	6d3b      	ldr	r3, [r7, #80]	; 0x50
 8004290:	4413      	add	r3, r2
 8004292:	653b      	str	r3, [r7, #80]	; 0x50
 8004294:	683b      	ldr	r3, [r7, #0]
 8004296:	781b      	ldrb	r3, [r3, #0]
 8004298:	011a      	lsls	r2, r3, #4
 800429a:	6d3b      	ldr	r3, [r7, #80]	; 0x50
 800429c:	4413      	add	r3, r2
 800429e:	f503 6381 	add.w	r3, r3, #1032	; 0x408
 80042a2:	64fb      	str	r3, [r7, #76]	; 0x4c
 80042a4:	683b      	ldr	r3, [r7, #0]
 80042a6:	895b      	ldrh	r3, [r3, #10]
 80042a8:	085b      	lsrs	r3, r3, #1
 80042aa:	b29b      	uxth	r3, r3
 80042ac:	005b      	lsls	r3, r3, #1
 80042ae:	b29a      	uxth	r2, r3
 80042b0:	6cfb      	ldr	r3, [r7, #76]	; 0x4c
 80042b2:	801a      	strh	r2, [r3, #0]
 80042b4:	683b      	ldr	r3, [r7, #0]
 80042b6:	785b      	ldrb	r3, [r3, #1]
 80042b8:	2b00      	cmp	r3, #0
 80042ba:	f040 8091 	bne.w	80043e0 <USB_ActivateEndpoint+0x550>
 80042be:	687a      	ldr	r2, [r7, #4]
 80042c0:	683b      	ldr	r3, [r7, #0]
 80042c2:	781b      	ldrb	r3, [r3, #0]
 80042c4:	009b      	lsls	r3, r3, #2
 80042c6:	4413      	add	r3, r2
 80042c8:	881b      	ldrh	r3, [r3, #0]
 80042ca:	87bb      	strh	r3, [r7, #60]	; 0x3c
 80042cc:	8fbb      	ldrh	r3, [r7, #60]	; 0x3c
 80042ce:	f403 4380 	and.w	r3, r3, #16384	; 0x4000
 80042d2:	2b00      	cmp	r3, #0
 80042d4:	d01b      	beq.n	800430e <USB_ActivateEndpoint+0x47e>
 80042d6:	687a      	ldr	r2, [r7, #4]
 80042d8:	683b      	ldr	r3, [r7, #0]
 80042da:	781b      	ldrb	r3, [r3, #0]
 80042dc:	009b      	lsls	r3, r3, #2
 80042de:	4413      	add	r3, r2
 80042e0:	881b      	ldrh	r3, [r3, #0]
 80042e2:	b29b      	uxth	r3, r3
 80042e4:	f423 43e0 	bic.w	r3, r3, #28672	; 0x7000
 80042e8:	f023 0370 	bic.w	r3, r3, #112	; 0x70
 80042ec:	877b      	strh	r3, [r7, #58]	; 0x3a
 80042ee:	687a      	ldr	r2, [r7, #4]
 80042f0:	683b      	ldr	r3, [r7, #0]
 80042f2:	781b      	ldrb	r3, [r3, #0]
 80042f4:	009b      	lsls	r3, r3, #2
 80042f6:	441a      	add	r2, r3
 80042f8:	8f7b      	ldrh	r3, [r7, #58]	; 0x3a
 80042fa:	f043 437f 	orr.w	r3, r3, #4278190080	; 0xff000000
 80042fe:	f443 037f 	orr.w	r3, r3, #16711680	; 0xff0000
 8004302:	f443 4340 	orr.w	r3, r3, #49152	; 0xc000
 8004306:	f043 0380 	orr.w	r3, r3, #128	; 0x80
 800430a:	b29b      	uxth	r3, r3
 800430c:	8013      	strh	r3, [r2, #0]
 800430e:	687a      	ldr	r2, [r7, #4]
 8004310:	683b      	ldr	r3, [r7, #0]
 8004312:	781b      	ldrb	r3, [r3, #0]
 8004314:	009b      	lsls	r3, r3, #2
 8004316:	4413      	add	r3, r2
 8004318:	881b      	ldrh	r3, [r3, #0]
 800431a:	873b      	strh	r3, [r7, #56]	; 0x38
 800431c:	8f3b      	ldrh	r3, [r7, #56]	; 0x38
 800431e:	f003 0340 	and.w	r3, r3, #64	; 0x40
 8004322:	2b00      	cmp	r3, #0
 8004324:	d01b      	beq.n	800435e <USB_ActivateEndpoint+0x4ce>
 8004326:	687a      	ldr	r2, [r7, #4]
 8004328:	683b      	ldr	r3, [r7, #0]
 800432a:	781b      	ldrb	r3, [r3, #0]
 800432c:	009b      	lsls	r3, r3, #2
 800432e:	4413      	add	r3, r2
 8004330:	881b      	ldrh	r3, [r3, #0]
 8004332:	b29b      	uxth	r3, r3
 8004334:	f423 43e0 	bic.w	r3, r3, #28672	; 0x7000
 8004338:	f023 0370 	bic.w	r3, r3, #112	; 0x70
 800433c:	86fb      	strh	r3, [r7, #54]	; 0x36
 800433e:	687a      	ldr	r2, [r7, #4]
 8004340:	683b      	ldr	r3, [r7, #0]
 8004342:	781b      	ldrb	r3, [r3, #0]
 8004344:	009b      	lsls	r3, r3, #2
 8004346:	441a      	add	r2, r3
 8004348:	8efb      	ldrh	r3, [r7, #54]	; 0x36
 800434a:	f043 437f 	orr.w	r3, r3, #4278190080	; 0xff000000
 800434e:	f443 037f 	orr.w	r3, r3, #16711680	; 0xff0000
 8004352:	f443 4300 	orr.w	r3, r3, #32768	; 0x8000
 8004356:	f043 03c0 	orr.w	r3, r3, #192	; 0xc0
 800435a:	b29b      	uxth	r3, r3
 800435c:	8013      	strh	r3, [r2, #0]
 800435e:	687a      	ldr	r2, [r7, #4]
 8004360:	683b      	ldr	r3, [r7, #0]
 8004362:	781b      	ldrb	r3, [r3, #0]
 8004364:	009b      	lsls	r3, r3, #2
 8004366:	4413      	add	r3, r2
 8004368:	881b      	ldrh	r3, [r3, #0]
 800436a:	b29b      	uxth	r3, r3
 800436c:	f423 4380 	bic.w	r3, r3, #16384	; 0x4000
 8004370:	f023 0370 	bic.w	r3, r3, #112	; 0x70
 8004374:	86bb      	strh	r3, [r7, #52]	; 0x34
 8004376:	8ebb      	ldrh	r3, [r7, #52]	; 0x34
 8004378:	f483 5380 	eor.w	r3, r3, #4096	; 0x1000
 800437c:	86bb      	strh	r3, [r7, #52]	; 0x34
 800437e:	8ebb      	ldrh	r3, [r7, #52]	; 0x34
 8004380:	f483 5300 	eor.w	r3, r3, #8192	; 0x2000
 8004384:	86bb      	strh	r3, [r7, #52]	; 0x34
 8004386:	687a      	ldr	r2, [r7, #4]
 8004388:	683b      	ldr	r3, [r7, #0]
 800438a:	781b      	ldrb	r3, [r3, #0]
 800438c:	009b      	lsls	r3, r3, #2
 800438e:	441a      	add	r2, r3
 8004390:	8ebb      	ldrh	r3, [r7, #52]	; 0x34
 8004392:	f043 437f 	orr.w	r3, r3, #4278190080	; 0xff000000
 8004396:	f443 037f 	orr.w	r3, r3, #16711680	; 0xff0000
 800439a:	f443 4300 	orr.w	r3, r3, #32768	; 0x8000
 800439e:	f043 0380 	orr.w	r3, r3, #128	; 0x80
 80043a2:	b29b      	uxth	r3, r3
 80043a4:	8013      	strh	r3, [r2, #0]
 80043a6:	687a      	ldr	r2, [r7, #4]
 80043a8:	683b      	ldr	r3, [r7, #0]
 80043aa:	781b      	ldrb	r3, [r3, #0]
 80043ac:	009b      	lsls	r3, r3, #2
 80043ae:	4413      	add	r3, r2
 80043b0:	881b      	ldrh	r3, [r3, #0]
 80043b2:	b29b      	uxth	r3, r3
 80043b4:	f423 43e0 	bic.w	r3, r3, #28672	; 0x7000
 80043b8:	f023 0340 	bic.w	r3, r3, #64	; 0x40
 80043bc:	867b      	strh	r3, [r7, #50]	; 0x32
 80043be:	687a      	ldr	r2, [r7, #4]
 80043c0:	683b      	ldr	r3, [r7, #0]
 80043c2:	781b      	ldrb	r3, [r3, #0]
 80043c4:	009b      	lsls	r3, r3, #2
 80043c6:	441a      	add	r2, r3
 80043c8:	8e7b      	ldrh	r3, [r7, #50]	; 0x32
 80043ca:	f043 437f 	orr.w	r3, r3, #4278190080	; 0xff000000
 80043ce:	f443 037f 	orr.w	r3, r3, #16711680	; 0xff0000
 80043d2:	f443 4300 	orr.w	r3, r3, #32768	; 0x8000
 80043d6:	f043 0380 	orr.w	r3, r3, #128	; 0x80
 80043da:	b29b      	uxth	r3, r3
 80043dc:	8013      	strh	r3, [r2, #0]
 80043de:	e0ba      	b.n	8004556 <USB_ActivateEndpoint+0x6c6>
 80043e0:	687a      	ldr	r2, [r7, #4]
 80043e2:	683b      	ldr	r3, [r7, #0]
 80043e4:	781b      	ldrb	r3, [r3, #0]
 80043e6:	009b      	lsls	r3, r3, #2
 80043e8:	4413      	add	r3, r2
 80043ea:	881b      	ldrh	r3, [r3, #0]
 80043ec:	f8a7 304a 	strh.w	r3, [r7, #74]	; 0x4a
 80043f0:	f8b7 304a 	ldrh.w	r3, [r7, #74]	; 0x4a
 80043f4:	f403 4380 	and.w	r3, r3, #16384	; 0x4000
 80043f8:	2b00      	cmp	r3, #0
 80043fa:	d01d      	beq.n	8004438 <USB_ActivateEndpoint+0x5a8>
 80043fc:	687a      	ldr	r2, [r7, #4]
 80043fe:	683b      	ldr	r3, [r7, #0]
 8004400:	781b      	ldrb	r3, [r3, #0]
 8004402:	009b      	lsls	r3, r3, #2
 8004404:	4413      	add	r3, r2
 8004406:	881b      	ldrh	r3, [r3, #0]
 8004408:	b29b      	uxth	r3, r3
 800440a:	f423 43e0 	bic.w	r3, r3, #28672	; 0x7000
 800440e:	f023 0370 	bic.w	r3, r3, #112	; 0x70
 8004412:	f8a7 3048 	strh.w	r3, [r7, #72]	; 0x48
 8004416:	687a      	ldr	r2, [r7, #4]
 8004418:	683b      	ldr	r3, [r7, #0]
 800441a:	781b      	ldrb	r3, [r3, #0]
 800441c:	009b      	lsls	r3, r3, #2
 800441e:	441a      	add	r2, r3
 8004420:	f8b7 3048 	ldrh.w	r3, [r7, #72]	; 0x48
 8004424:	f043 437f 	orr.w	r3, r3, #4278190080	; 0xff000000
 8004428:	f443 037f 	orr.w	r3, r3, #16711680	; 0xff0000
 800442c:	f443 4340 	orr.w	r3, r3, #49152	; 0xc000
 8004430:	f043 0380 	orr.w	r3, r3, #128	; 0x80
 8004434:	b29b      	uxth	r3, r3
 8004436:	8013      	strh	r3, [r2, #0]
 8004438:	687a      	ldr	r2, [r7, #4]
 800443a:	683b      	ldr	r3, [r7, #0]
 800443c:	781b      	ldrb	r3, [r3, #0]
 800443e:	009b      	lsls	r3, r3, #2
 8004440:	4413      	add	r3, r2
 8004442:	881b      	ldrh	r3, [r3, #0]
 8004444:	f8a7 3046 	strh.w	r3, [r7, #70]	; 0x46
 8004448:	f8b7 3046 	ldrh.w	r3, [r7, #70]	; 0x46
 800444c:	f003 0340 	and.w	r3, r3, #64	; 0x40
 8004450:	2b00      	cmp	r3, #0
 8004452:	d01d      	beq.n	8004490 <USB_ActivateEndpoint+0x600>
 8004454:	687a      	ldr	r2, [r7, #4]
 8004456:	683b      	ldr	r3, [r7, #0]
 8004458:	781b      	ldrb	r3, [r3, #0]
 800445a:	009b      	lsls	r3, r3, #2
 800445c:	4413      	add	r3, r2
 800445e:	881b      	ldrh	r3, [r3, #0]
 8004460:	b29b      	uxth	r3, r3
 8004462:	f423 43e0 	bic.w	r3, r3, #28672	; 0x7000
 8004466:	f023 0370 	bic.w	r3, r3, #112	; 0x70
 800446a:	f8a7 3044 	strh.w	r3, [r7, #68]	; 0x44
 800446e:	687a      	ldr	r2, [r7, #4]
 8004470:	683b      	ldr	r3, [r7, #0]
 8004472:	781b      	ldrb	r3, [r3, #0]
 8004474:	009b      	lsls	r3, r3, #2
 8004476:	441a      	add	r2, r3
 8004478:	f8b7 3044 	ldrh.w	r3, [r7, #68]	; 0x44
 800447c:	f043 437f 	orr.w	r3, r3, #4278190080	; 0xff000000
 8004480:	f443 037f 	orr.w	r3, r3, #16711680	; 0xff0000
 8004484:	f443 4300 	orr.w	r3, r3, #32768	; 0x8000
 8004488:	f043 03c0 	orr.w	r3, r3, #192	; 0xc0
 800448c:	b29b      	uxth	r3, r3
 800448e:	8013      	strh	r3, [r2, #0]
 8004490:	683b      	ldr	r3, [r7, #0]
 8004492:	78db      	ldrb	r3, [r3, #3]
 8004494:	2b01      	cmp	r3, #1
 8004496:	d024      	beq.n	80044e2 <USB_ActivateEndpoint+0x652>
 8004498:	687a      	ldr	r2, [r7, #4]
 800449a:	683b      	ldr	r3, [r7, #0]
 800449c:	781b      	ldrb	r3, [r3, #0]
 800449e:	009b      	lsls	r3, r3, #2
 80044a0:	4413      	add	r3, r2
 80044a2:	881b      	ldrh	r3, [r3, #0]
 80044a4:	b29b      	uxth	r3, r3
 80044a6:	f423 43e0 	bic.w	r3, r3, #28672	; 0x7000
 80044aa:	f023 0340 	bic.w	r3, r3, #64	; 0x40
 80044ae:	f8a7 3040 	strh.w	r3, [r7, #64]	; 0x40
 80044b2:	f8b7 3040 	ldrh.w	r3, [r7, #64]	; 0x40
 80044b6:	f083 0320 	eor.w	r3, r3, #32
 80044ba:	f8a7 3040 	strh.w	r3, [r7, #64]	; 0x40
 80044be:	687a      	ldr	r2, [r7, #4]
 80044c0:	683b      	ldr	r3, [r7, #0]
 80044c2:	781b      	ldrb	r3, [r3, #0]
 80044c4:	009b      	lsls	r3, r3, #2
 80044c6:	441a      	add	r2, r3
 80044c8:	f8b7 3040 	ldrh.w	r3, [r7, #64]	; 0x40
 80044cc:	f043 437f 	orr.w	r3, r3, #4278190080	; 0xff000000
 80044d0:	f443 037f 	orr.w	r3, r3, #16711680	; 0xff0000
 80044d4:	f443 4300 	orr.w	r3, r3, #32768	; 0x8000
 80044d8:	f043 0380 	orr.w	r3, r3, #128	; 0x80
 80044dc:	b29b      	uxth	r3, r3
 80044de:	8013      	strh	r3, [r2, #0]
 80044e0:	e01d      	b.n	800451e <USB_ActivateEndpoint+0x68e>
 80044e2:	687a      	ldr	r2, [r7, #4]
 80044e4:	683b      	ldr	r3, [r7, #0]
 80044e6:	781b      	ldrb	r3, [r3, #0]
 80044e8:	009b      	lsls	r3, r3, #2
 80044ea:	4413      	add	r3, r2
 80044ec:	881b      	ldrh	r3, [r3, #0]
 80044ee:	b29b      	uxth	r3, r3
 80044f0:	f423 43e0 	bic.w	r3, r3, #28672	; 0x7000
 80044f4:	f023 0340 	bic.w	r3, r3, #64	; 0x40
 80044f8:	f8a7 3042 	strh.w	r3, [r7, #66]	; 0x42
 80044fc:	687a      	ldr	r2, [r7, #4]
 80044fe:	683b      	ldr	r3, [r7, #0]
 8004500:	781b      	ldrb	r3, [r3, #0]
 8004502:	009b      	lsls	r3, r3, #2
 8004504:	441a      	add	r2, r3
 8004506:	f8b7 3042 	ldrh.w	r3, [r7, #66]	; 0x42
 800450a:	f043 437f 	orr.w	r3, r3, #4278190080	; 0xff000000
 800450e:	f443 037f 	orr.w	r3, r3, #16711680	; 0xff0000
 8004512:	f443 4300 	orr.w	r3, r3, #32768	; 0x8000
 8004516:	f043 0380 	orr.w	r3, r3, #128	; 0x80
 800451a:	b29b      	uxth	r3, r3
 800451c:	8013      	strh	r3, [r2, #0]
 800451e:	687a      	ldr	r2, [r7, #4]
 8004520:	683b      	ldr	r3, [r7, #0]
 8004522:	781b      	ldrb	r3, [r3, #0]
 8004524:	009b      	lsls	r3, r3, #2
 8004526:	4413      	add	r3, r2
 8004528:	881b      	ldrh	r3, [r3, #0]
 800452a:	b29b      	uxth	r3, r3
 800452c:	f423 4380 	bic.w	r3, r3, #16384	; 0x4000
 8004530:	f023 0370 	bic.w	r3, r3, #112	; 0x70
 8004534:	87fb      	strh	r3, [r7, #62]	; 0x3e
 8004536:	687a      	ldr	r2, [r7, #4]
 8004538:	683b      	ldr	r3, [r7, #0]
 800453a:	781b      	ldrb	r3, [r3, #0]
 800453c:	009b      	lsls	r3, r3, #2
 800453e:	441a      	add	r2, r3
 8004540:	8ffb      	ldrh	r3, [r7, #62]	; 0x3e
 8004542:	f043 437f 	orr.w	r3, r3, #4278190080	; 0xff000000
 8004546:	f443 037f 	orr.w	r3, r3, #16711680	; 0xff0000
 800454a:	f443 4300 	orr.w	r3, r3, #32768	; 0x8000
 800454e:	f043 0380 	orr.w	r3, r3, #128	; 0x80
 8004552:	b29b      	uxth	r3, r3
 8004554:	8013      	strh	r3, [r2, #0]
 8004556:	f897 3067 	ldrb.w	r3, [r7, #103]	; 0x67
 800455a:	4618      	mov	r0, r3
 800455c:	376c      	adds	r7, #108	; 0x6c
 800455e:	46bd      	mov	sp, r7
 8004560:	bc80      	pop	{r7}
 8004562:	4770      	bx	lr

08004564 <USB_DeactivateEndpoint>:
 8004564:	b480      	push	{r7}
 8004566:	b08d      	sub	sp, #52	; 0x34
 8004568:	af00      	add	r7, sp, #0
 800456a:	6078      	str	r0, [r7, #4]
 800456c:	6039      	str	r1, [r7, #0]
 800456e:	683b      	ldr	r3, [r7, #0]
 8004570:	7b1b      	ldrb	r3, [r3, #12]
 8004572:	2b00      	cmp	r3, #0
 8004574:	f040 808e 	bne.w	8004694 <USB_DeactivateEndpoint+0x130>
 8004578:	683b      	ldr	r3, [r7, #0]
 800457a:	785b      	ldrb	r3, [r3, #1]
 800457c:	2b00      	cmp	r3, #0
 800457e:	d044      	beq.n	800460a <USB_DeactivateEndpoint+0xa6>
 8004580:	687a      	ldr	r2, [r7, #4]
 8004582:	683b      	ldr	r3, [r7, #0]
 8004584:	781b      	ldrb	r3, [r3, #0]
 8004586:	009b      	lsls	r3, r3, #2
 8004588:	4413      	add	r3, r2
 800458a:	881b      	ldrh	r3, [r3, #0]
 800458c:	81bb      	strh	r3, [r7, #12]
 800458e:	89bb      	ldrh	r3, [r7, #12]
 8004590:	f003 0340 	and.w	r3, r3, #64	; 0x40
 8004594:	2b00      	cmp	r3, #0
 8004596:	d01b      	beq.n	80045d0 <USB_DeactivateEndpoint+0x6c>
 8004598:	687a      	ldr	r2, [r7, #4]
 800459a:	683b      	ldr	r3, [r7, #0]
 800459c:	781b      	ldrb	r3, [r3, #0]
 800459e:	009b      	lsls	r3, r3, #2
 80045a0:	4413      	add	r3, r2
 80045a2:	881b      	ldrh	r3, [r3, #0]
 80045a4:	b29b      	uxth	r3, r3
 80045a6:	f423 43e0 	bic.w	r3, r3, #28672	; 0x7000
 80045aa:	f023 0370 	bic.w	r3, r3, #112	; 0x70
 80045ae:	817b      	strh	r3, [r7, #10]
 80045b0:	687a      	ldr	r2, [r7, #4]
 80045b2:	683b      	ldr	r3, [r7, #0]
 80045b4:	781b      	ldrb	r3, [r3, #0]
 80045b6:	009b      	lsls	r3, r3, #2
 80045b8:	441a      	add	r2, r3
 80045ba:	897b      	ldrh	r3, [r7, #10]
 80045bc:	f043 437f 	orr.w	r3, r3, #4278190080	; 0xff000000
 80045c0:	f443 037f 	orr.w	r3, r3, #16711680	; 0xff0000
 80045c4:	f443 4300 	orr.w	r3, r3, #32768	; 0x8000
 80045c8:	f043 03c0 	orr.w	r3, r3, #192	; 0xc0
 80045cc:	b29b      	uxth	r3, r3
 80045ce:	8013      	strh	r3, [r2, #0]
 80045d0:	687a      	ldr	r2, [r7, #4]
 80045d2:	683b      	ldr	r3, [r7, #0]
 80045d4:	781b      	ldrb	r3, [r3, #0]
 80045d6:	009b      	lsls	r3, r3, #2
 80045d8:	4413      	add	r3, r2
 80045da:	881b      	ldrh	r3, [r3, #0]
 80045dc:	b29b      	uxth	r3, r3
 80045de:	f423 43e0 	bic.w	r3, r3, #28672	; 0x7000
 80045e2:	f023 0340 	bic.w	r3, r3, #64	; 0x40
 80045e6:	813b      	strh	r3, [r7, #8]
 80045e8:	687a      	ldr	r2, [r7, #4]
 80045ea:	683b      	ldr	r3, [r7, #0]
 80045ec:	781b      	ldrb	r3, [r3, #0]
 80045ee:	009b      	lsls	r3, r3, #2
 80045f0:	441a      	add	r2, r3
 80045f2:	893b      	ldrh	r3, [r7, #8]
 80045f4:	f043 437f 	orr.w	r3, r3, #4278190080	; 0xff000000
 80045f8:	f443 037f 	orr.w	r3, r3, #16711680	; 0xff0000
 80045fc:	f443 4300 	orr.w	r3, r3, #32768	; 0x8000
 8004600:	f043 0380 	orr.w	r3, r3, #128	; 0x80
 8004604:	b29b      	uxth	r3, r3
 8004606:	8013      	strh	r3, [r2, #0]
 8004608:	e192      	b.n	8004930 <USB_DeactivateEndpoint+0x3cc>
 800460a:	687a      	ldr	r2, [r7, #4]
 800460c:	683b      	ldr	r3, [r7, #0]
 800460e:	781b      	ldrb	r3, [r3, #0]
 8004610:	009b      	lsls	r3, r3, #2
 8004612:	4413      	add	r3, r2
 8004614:	881b      	ldrh	r3, [r3, #0]
 8004616:	827b      	strh	r3, [r7, #18]
 8004618:	8a7b      	ldrh	r3, [r7, #18]
 800461a:	f403 4380 	and.w	r3, r3, #16384	; 0x4000
 800461e:	2b00      	cmp	r3, #0
 8004620:	d01b      	beq.n	800465a <USB_DeactivateEndpoint+0xf6>
 8004622:	687a      	ldr	r2, [r7, #4]
 8004624:	683b      	ldr	r3, [r7, #0]
 8004626:	781b      	ldrb	r3, [r3, #0]
 8004628:	009b      	lsls	r3, r3, #2
 800462a:	4413      	add	r3, r2
 800462c:	881b      	ldrh	r3, [r3, #0]
 800462e:	b29b      	uxth	r3, r3
 8004630:	f423 43e0 	bic.w	r3, r3, #28672	; 0x7000
 8004634:	f023 0370 	bic.w	r3, r3, #112	; 0x70
 8004638:	823b      	strh	r3, [r7, #16]
 800463a:	687a      	ldr	r2, [r7, #4]
 800463c:	683b      	ldr	r3, [r7, #0]
 800463e:	781b      	ldrb	r3, [r3, #0]
 8004640:	009b      	lsls	r3, r3, #2
 8004642:	441a      	add	r2, r3
 8004644:	8a3b      	ldrh	r3, [r7, #16]
 8004646:	f043 437f 	orr.w	r3, r3, #4278190080	; 0xff000000
 800464a:	f443 037f 	orr.w	r3, r3, #16711680	; 0xff0000
 800464e:	f443 4340 	orr.w	r3, r3, #49152	; 0xc000
 8004652:	f043 0380 	orr.w	r3, r3, #128	; 0x80
 8004656:	b29b      	uxth	r3, r3
 8004658:	8013      	strh	r3, [r2, #0]
 800465a:	687a      	ldr	r2, [r7, #4]
 800465c:	683b      	ldr	r3, [r7, #0]
 800465e:	781b      	ldrb	r3, [r3, #0]
 8004660:	009b      	lsls	r3, r3, #2
 8004662:	4413      	add	r3, r2
 8004664:	881b      	ldrh	r3, [r3, #0]
 8004666:	b29b      	uxth	r3, r3
 8004668:	f423 4380 	bic.w	r3, r3, #16384	; 0x4000
 800466c:	f023 0370 	bic.w	r3, r3, #112	; 0x70
 8004670:	81fb      	strh	r3, [r7, #14]
 8004672:	687a      	ldr	r2, [r7, #4]
 8004674:	683b      	ldr	r3, [r7, #0]
 8004676:	781b      	ldrb	r3, [r3, #0]
 8004678:	009b      	lsls	r3, r3, #2
 800467a:	441a      	add	r2, r3
 800467c:	89fb      	ldrh	r3, [r7, #14]
 800467e:	f043 437f 	orr.w	r3, r3, #4278190080	; 0xff000000
 8004682:	f443 037f 	orr.w	r3, r3, #16711680	; 0xff0000
 8004686:	f443 4300 	orr.w	r3, r3, #32768	; 0x8000
 800468a:	f043 0380 	orr.w	r3, r3, #128	; 0x80
 800468e:	b29b      	uxth	r3, r3
 8004690:	8013      	strh	r3, [r2, #0]
 8004692:	e14d      	b.n	8004930 <USB_DeactivateEndpoint+0x3cc>
 8004694:	683b      	ldr	r3, [r7, #0]
 8004696:	785b      	ldrb	r3, [r3, #1]
 8004698:	2b00      	cmp	r3, #0
 800469a:	f040 80a5 	bne.w	80047e8 <USB_DeactivateEndpoint+0x284>
 800469e:	687a      	ldr	r2, [r7, #4]
 80046a0:	683b      	ldr	r3, [r7, #0]
 80046a2:	781b      	ldrb	r3, [r3, #0]
 80046a4:	009b      	lsls	r3, r3, #2
 80046a6:	4413      	add	r3, r2
 80046a8:	881b      	ldrh	r3, [r3, #0]
 80046aa:	843b      	strh	r3, [r7, #32]
 80046ac:	8c3b      	ldrh	r3, [r7, #32]
 80046ae:	f403 4380 	and.w	r3, r3, #16384	; 0x4000
 80046b2:	2b00      	cmp	r3, #0
 80046b4:	d01b      	beq.n	80046ee <USB_DeactivateEndpoint+0x18a>
 80046b6:	687a      	ldr	r2, [r7, #4]
 80046b8:	683b      	ldr	r3, [r7, #0]
 80046ba:	781b      	ldrb	r3, [r3, #0]
 80046bc:	009b      	lsls	r3, r3, #2
 80046be:	4413      	add	r3, r2
 80046c0:	881b      	ldrh	r3, [r3, #0]
 80046c2:	b29b      	uxth	r3, r3
 80046c4:	f423 43e0 	bic.w	r3, r3, #28672	; 0x7000
 80046c8:	f023 0370 	bic.w	r3, r3, #112	; 0x70
 80046cc:	83fb      	strh	r3, [r7, #30]
 80046ce:	687a      	ldr	r2, [r7, #4]
 80046d0:	683b      	ldr	r3, [r7, #0]
 80046d2:	781b      	ldrb	r3, [r3, #0]
 80046d4:	009b      	lsls	r3, r3, #2
 80046d6:	441a      	add	r2, r3
 80046d8:	8bfb      	ldrh	r3, [r7, #30]
 80046da:	f043 437f 	orr.w	r3, r3, #4278190080	; 0xff000000
 80046de:	f443 037f 	orr.w	r3, r3, #16711680	; 0xff0000
 80046e2:	f443 4340 	orr.w	r3, r3, #49152	; 0xc000
 80046e6:	f043 0380 	orr.w	r3, r3, #128	; 0x80
 80046ea:	b29b      	uxth	r3, r3
 80046ec:	8013      	strh	r3, [r2, #0]
 80046ee:	687a      	ldr	r2, [r7, #4]
 80046f0:	683b      	ldr	r3, [r7, #0]
 80046f2:	781b      	ldrb	r3, [r3, #0]
 80046f4:	009b      	lsls	r3, r3, #2
 80046f6:	4413      	add	r3, r2
 80046f8:	881b      	ldrh	r3, [r3, #0]
 80046fa:	83bb      	strh	r3, [r7, #28]
 80046fc:	8bbb      	ldrh	r3, [r7, #28]
 80046fe:	f003 0340 	and.w	r3, r3, #64	; 0x40
 8004702:	2b00      	cmp	r3, #0
 8004704:	d01b      	beq.n	800473e <USB_DeactivateEndpoint+0x1da>
 8004706:	687a      	ldr	r2, [r7, #4]
 8004708:	683b      	ldr	r3, [r7, #0]
 800470a:	781b      	ldrb	r3, [r3, #0]
 800470c:	009b      	lsls	r3, r3, #2
 800470e:	4413      	add	r3, r2
 8004710:	881b      	ldrh	r3, [r3, #0]
 8004712:	b29b      	uxth	r3, r3
 8004714:	f423 43e0 	bic.w	r3, r3, #28672	; 0x7000
 8004718:	f023 0370 	bic.w	r3, r3, #112	; 0x70
 800471c:	837b      	strh	r3, [r7, #26]
 800471e:	687a      	ldr	r2, [r7, #4]
 8004720:	683b      	ldr	r3, [r7, #0]
 8004722:	781b      	ldrb	r3, [r3, #0]
 8004724:	009b      	lsls	r3, r3, #2
 8004726:	441a      	add	r2, r3
 8004728:	8b7b      	ldrh	r3, [r7, #26]
 800472a:	f043 437f 	orr.w	r3, r3, #4278190080	; 0xff000000
 800472e:	f443 037f 	orr.w	r3, r3, #16711680	; 0xff0000
 8004732:	f443 4300 	orr.w	r3, r3, #32768	; 0x8000
 8004736:	f043 03c0 	orr.w	r3, r3, #192	; 0xc0
 800473a:	b29b      	uxth	r3, r3
 800473c:	8013      	strh	r3, [r2, #0]
 800473e:	687a      	ldr	r2, [r7, #4]
 8004740:	683b      	ldr	r3, [r7, #0]
 8004742:	781b      	ldrb	r3, [r3, #0]
 8004744:	009b      	lsls	r3, r3, #2
 8004746:	4413      	add	r3, r2
 8004748:	881b      	ldrh	r3, [r3, #0]
 800474a:	b29b      	uxth	r3, r3
 800474c:	f423 43e0 	bic.w	r3, r3, #28672	; 0x7000
 8004750:	f023 0370 	bic.w	r3, r3, #112	; 0x70
 8004754:	833b      	strh	r3, [r7, #24]
 8004756:	687a      	ldr	r2, [r7, #4]
 8004758:	683b      	ldr	r3, [r7, #0]
 800475a:	781b      	ldrb	r3, [r3, #0]
 800475c:	009b      	lsls	r3, r3, #2
 800475e:	441a      	add	r2, r3
 8004760:	8b3b      	ldrh	r3, [r7, #24]
 8004762:	f043 437f 	orr.w	r3, r3, #4278190080	; 0xff000000
 8004766:	f443 037f 	orr.w	r3, r3, #16711680	; 0xff0000
 800476a:	f443 4300 	orr.w	r3, r3, #32768	; 0x8000
 800476e:	f043 03c0 	orr.w	r3, r3, #192	; 0xc0
 8004772:	b29b      	uxth	r3, r3
 8004774:	8013      	strh	r3, [r2, #0]
 8004776:	687a      	ldr	r2, [r7, #4]
 8004778:	683b      	ldr	r3, [r7, #0]
 800477a:	781b      	ldrb	r3, [r3, #0]
 800477c:	009b      	lsls	r3, r3, #2
 800477e:	4413      	add	r3, r2
 8004780:	881b      	ldrh	r3, [r3, #0]
 8004782:	b29b      	uxth	r3, r3
 8004784:	f423 4380 	bic.w	r3, r3, #16384	; 0x4000
 8004788:	f023 0370 	bic.w	r3, r3, #112	; 0x70
 800478c:	82fb      	strh	r3, [r7, #22]
 800478e:	687a      	ldr	r2, [r7, #4]
 8004790:	683b      	ldr	r3, [r7, #0]
 8004792:	781b      	ldrb	r3, [r3, #0]
 8004794:	009b      	lsls	r3, r3, #2
 8004796:	441a      	add	r2, r3
 8004798:	8afb      	ldrh	r3, [r7, #22]
 800479a:	f043 437f 	orr.w	r3, r3, #4278190080	; 0xff000000
 800479e:	f443 037f 	orr.w	r3, r3, #16711680	; 0xff0000
 80047a2:	f443 4300 	orr.w	r3, r3, #32768	; 0x8000
 80047a6:	f043 0380 	orr.w	r3, r3, #128	; 0x80
 80047aa:	b29b      	uxth	r3, r3
 80047ac:	8013      	strh	r3, [r2, #0]
 80047ae:	687a      	ldr	r2, [r7, #4]
 80047b0:	683b      	ldr	r3, [r7, #0]
 80047b2:	781b      	ldrb	r3, [r3, #0]
 80047b4:	009b      	lsls	r3, r3, #2
 80047b6:	4413      	add	r3, r2
 80047b8:	881b      	ldrh	r3, [r3, #0]
 80047ba:	b29b      	uxth	r3, r3
 80047bc:	f423 43e0 	bic.w	r3, r3, #28672	; 0x7000
 80047c0:	f023 0340 	bic.w	r3, r3, #64	; 0x40
 80047c4:	82bb      	strh	r3, [r7, #20]
 80047c6:	687a      	ldr	r2, [r7, #4]
 80047c8:	683b      	ldr	r3, [r7, #0]
 80047ca:	781b      	ldrb	r3, [r3, #0]
 80047cc:	009b      	lsls	r3, r3, #2
 80047ce:	441a      	add	r2, r3
 80047d0:	8abb      	ldrh	r3, [r7, #20]
 80047d2:	f043 437f 	orr.w	r3, r3, #4278190080	; 0xff000000
 80047d6:	f443 037f 	orr.w	r3, r3, #16711680	; 0xff0000
 80047da:	f443 4300 	orr.w	r3, r3, #32768	; 0x8000
 80047de:	f043 0380 	orr.w	r3, r3, #128	; 0x80
 80047e2:	b29b      	uxth	r3, r3
 80047e4:	8013      	strh	r3, [r2, #0]
 80047e6:	e0a3      	b.n	8004930 <USB_DeactivateEndpoint+0x3cc>
 80047e8:	687a      	ldr	r2, [r7, #4]
 80047ea:	683b      	ldr	r3, [r7, #0]
 80047ec:	781b      	ldrb	r3, [r3, #0]
 80047ee:	009b      	lsls	r3, r3, #2
 80047f0:	4413      	add	r3, r2
 80047f2:	881b      	ldrh	r3, [r3, #0]
 80047f4:	85fb      	strh	r3, [r7, #46]	; 0x2e
 80047f6:	8dfb      	ldrh	r3, [r7, #46]	; 0x2e
 80047f8:	f403 4380 	and.w	r3, r3, #16384	; 0x4000
 80047fc:	2b00      	cmp	r3, #0
 80047fe:	d01b      	beq.n	8004838 <USB_DeactivateEndpoint+0x2d4>
 8004800:	687a      	ldr	r2, [r7, #4]
 8004802:	683b      	ldr	r3, [r7, #0]
 8004804:	781b      	ldrb	r3, [r3, #0]
 8004806:	009b      	lsls	r3, r3, #2
 8004808:	4413      	add	r3, r2
 800480a:	881b      	ldrh	r3, [r3, #0]
 800480c:	b29b      	uxth	r3, r3
 800480e:	f423 43e0 	bic.w	r3, r3, #28672	; 0x7000
 8004812:	f023 0370 	bic.w	r3, r3, #112	; 0x70
 8004816:	85bb      	strh	r3, [r7, #44]	; 0x2c
 8004818:	687a      	ldr	r2, [r7, #4]
 800481a:	683b      	ldr	r3, [r7, #0]
 800481c:	781b      	ldrb	r3, [r3, #0]
 800481e:	009b      	lsls	r3, r3, #2
 8004820:	441a      	add	r2, r3
 8004822:	8dbb      	ldrh	r3, [r7, #44]	; 0x2c
 8004824:	f043 437f 	orr.w	r3, r3, #4278190080	; 0xff000000
 8004828:	f443 037f 	orr.w	r3, r3, #16711680	; 0xff0000
 800482c:	f443 4340 	orr.w	r3, r3, #49152	; 0xc000
 8004830:	f043 0380 	orr.w	r3, r3, #128	; 0x80
 8004834:	b29b      	uxth	r3, r3
 8004836:	8013      	strh	r3, [r2, #0]
 8004838:	687a      	ldr	r2, [r7, #4]
 800483a:	683b      	ldr	r3, [r7, #0]
 800483c:	781b      	ldrb	r3, [r3, #0]
 800483e:	009b      	lsls	r3, r3, #2
 8004840:	4413      	add	r3, r2
 8004842:	881b      	ldrh	r3, [r3, #0]
 8004844:	857b      	strh	r3, [r7, #42]	; 0x2a
 8004846:	8d7b      	ldrh	r3, [r7, #42]	; 0x2a
 8004848:	f003 0340 	and.w	r3, r3, #64	; 0x40
 800484c:	2b00      	cmp	r3, #0
 800484e:	d01b      	beq.n	8004888 <USB_DeactivateEndpoint+0x324>
 8004850:	687a      	ldr	r2, [r7, #4]
 8004852:	683b      	ldr	r3, [r7, #0]
 8004854:	781b      	ldrb	r3, [r3, #0]
 8004856:	009b      	lsls	r3, r3, #2
 8004858:	4413      	add	r3, r2
 800485a:	881b      	ldrh	r3, [r3, #0]
 800485c:	b29b      	uxth	r3, r3
 800485e:	f423 43e0 	bic.w	r3, r3, #28672	; 0x7000
 8004862:	f023 0370 	bic.w	r3, r3, #112	; 0x70
 8004866:	853b      	strh	r3, [r7, #40]	; 0x28
 8004868:	687a      	ldr	r2, [r7, #4]
 800486a:	683b      	ldr	r3, [r7, #0]
 800486c:	781b      	ldrb	r3, [r3, #0]
 800486e:	009b      	lsls	r3, r3, #2
 8004870:	441a      	add	r2, r3
 8004872:	8d3b      	ldrh	r3, [r7, #40]	; 0x28
 8004874:	f043 437f 	orr.w	r3, r3, #4278190080	; 0xff000000
 8004878:	f443 037f 	orr.w	r3, r3, #16711680	; 0xff0000
 800487c:	f443 4300 	orr.w	r3, r3, #32768	; 0x8000
 8004880:	f043 03c0 	orr.w	r3, r3, #192	; 0xc0
 8004884:	b29b      	uxth	r3, r3
 8004886:	8013      	strh	r3, [r2, #0]
 8004888:	687a      	ldr	r2, [r7, #4]
 800488a:	683b      	ldr	r3, [r7, #0]
 800488c:	781b      	ldrb	r3, [r3, #0]
 800488e:	009b      	lsls	r3, r3, #2
 8004890:	4413      	add	r3, r2
 8004892:	881b      	ldrh	r3, [r3, #0]
 8004894:	b29b      	uxth	r3, r3
 8004896:	f423 43e0 	bic.w	r3, r3, #28672	; 0x7000
 800489a:	f023 0370 	bic.w	r3, r3, #112	; 0x70
 800489e:	84fb      	strh	r3, [r7, #38]	; 0x26
 80048a0:	687a      	ldr	r2, [r7, #4]
 80048a2:	683b      	ldr	r3, [r7, #0]
 80048a4:	781b      	ldrb	r3, [r3, #0]
 80048a6:	009b      	lsls	r3, r3, #2
 80048a8:	441a      	add	r2, r3
 80048aa:	8cfb      	ldrh	r3, [r7, #38]	; 0x26
 80048ac:	f043 437f 	orr.w	r3, r3, #4278190080	; 0xff000000
 80048b0:	f443 037f 	orr.w	r3, r3, #16711680	; 0xff0000
 80048b4:	f443 4340 	orr.w	r3, r3, #49152	; 0xc000
 80048b8:	f043 0380 	orr.w	r3, r3, #128	; 0x80
 80048bc:	b29b      	uxth	r3, r3
 80048be:	8013      	strh	r3, [r2, #0]
 80048c0:	687a      	ldr	r2, [r7, #4]
 80048c2:	683b      	ldr	r3, [r7, #0]
 80048c4:	781b      	ldrb	r3, [r3, #0]
 80048c6:	009b      	lsls	r3, r3, #2
 80048c8:	4413      	add	r3, r2
 80048ca:	881b      	ldrh	r3, [r3, #0]
 80048cc:	b29b      	uxth	r3, r3
 80048ce:	f423 43e0 	bic.w	r3, r3, #28672	; 0x7000
 80048d2:	f023 0340 	bic.w	r3, r3, #64	; 0x40
 80048d6:	84bb      	strh	r3, [r7, #36]	; 0x24
 80048d8:	687a      	ldr	r2, [r7, #4]
 80048da:	683b      	ldr	r3, [r7, #0]
 80048dc:	781b      	ldrb	r3, [r3, #0]
 80048de:	009b      	lsls	r3, r3, #2
 80048e0:	441a      	add	r2, r3
 80048e2:	8cbb      	ldrh	r3, [r7, #36]	; 0x24
 80048e4:	f043 437f 	orr.w	r3, r3, #4278190080	; 0xff000000
 80048e8:	f443 037f 	orr.w	r3, r3, #16711680	; 0xff0000
 80048ec:	f443 4300 	orr.w	r3, r3, #32768	; 0x8000
 80048f0:	f043 0380 	orr.w	r3, r3, #128	; 0x80
 80048f4:	b29b      	uxth	r3, r3
 80048f6:	8013      	strh	r3, [r2, #0]
 80048f8:	687a      	ldr	r2, [r7, #4]
 80048fa:	683b      	ldr	r3, [r7, #0]
 80048fc:	781b      	ldrb	r3, [r3, #0]
 80048fe:	009b      	lsls	r3, r3, #2
 8004900:	4413      	add	r3, r2
 8004902:	881b      	ldrh	r3, [r3, #0]
 8004904:	b29b      	uxth	r3, r3
 8004906:	f423 4380 	bic.w	r3, r3, #16384	; 0x4000
 800490a:	f023 0370 	bic.w	r3, r3, #112	; 0x70
 800490e:	847b      	strh	r3, [r7, #34]	; 0x22
 8004910:	687a      	ldr	r2, [r7, #4]
 8004912:	683b      	ldr	r3, [r7, #0]
 8004914:	781b      	ldrb	r3, [r3, #0]
 8004916:	009b      	lsls	r3, r3, #2
 8004918:	441a      	add	r2, r3
 800491a:	8c7b      	ldrh	r3, [r7, #34]	; 0x22
 800491c:	f043 437f 	orr.w	r3, r3, #4278190080	; 0xff000000
 8004920:	f443 037f 	orr.w	r3, r3, #16711680	; 0xff0000
 8004924:	f443 4300 	orr.w	r3, r3, #32768	; 0x8000
 8004928:	f043 0380 	orr.w	r3, r3, #128	; 0x80
 800492c:	b29b      	uxth	r3, r3
 800492e:	8013      	strh	r3, [r2, #0]
 8004930:	2300      	movs	r3, #0
 8004932:	4618      	mov	r0, r3
 8004934:	3734      	adds	r7, #52	; 0x34
 8004936:	46bd      	mov	sp, r7
 8004938:	bc80      	pop	{r7}
 800493a:	4770      	bx	lr

0800493c <USB_EPStartXfer>:
 800493c:	b580      	push	{r7, lr}
 800493e:	b0cc      	sub	sp, #304	; 0x130
 8004940:	af00      	add	r7, sp, #0
 8004942:	1d3b      	adds	r3, r7, #4
 8004944:	6018      	str	r0, [r3, #0]
 8004946:	463b      	mov	r3, r7
 8004948:	6019      	str	r1, [r3, #0]
 800494a:	463b      	mov	r3, r7
 800494c:	681b      	ldr	r3, [r3, #0]
 800494e:	785b      	ldrb	r3, [r3, #1]
 8004950:	2b01      	cmp	r3, #1
 8004952:	f040 872e 	bne.w	80057b2 <USB_EPStartXfer+0xe76>
 8004956:	463b      	mov	r3, r7
 8004958:	681b      	ldr	r3, [r3, #0]
 800495a:	699a      	ldr	r2, [r3, #24]
 800495c:	463b      	mov	r3, r7
 800495e:	681b      	ldr	r3, [r3, #0]
 8004960:	691b      	ldr	r3, [r3, #16]
 8004962:	429a      	cmp	r2, r3
 8004964:	d905      	bls.n	8004972 <USB_EPStartXfer+0x36>
 8004966:	463b      	mov	r3, r7
 8004968:	681b      	ldr	r3, [r3, #0]
 800496a:	691b      	ldr	r3, [r3, #16]
 800496c:	f8c7 312c 	str.w	r3, [r7, #300]	; 0x12c
 8004970:	e004      	b.n	800497c <USB_EPStartXfer+0x40>
 8004972:	463b      	mov	r3, r7
 8004974:	681b      	ldr	r3, [r3, #0]
 8004976:	699b      	ldr	r3, [r3, #24]
 8004978:	f8c7 312c 	str.w	r3, [r7, #300]	; 0x12c
 800497c:	463b      	mov	r3, r7
 800497e:	681b      	ldr	r3, [r3, #0]
 8004980:	7b1b      	ldrb	r3, [r3, #12]
 8004982:	2b00      	cmp	r3, #0
 8004984:	d134      	bne.n	80049f0 <USB_EPStartXfer+0xb4>
 8004986:	463b      	mov	r3, r7
 8004988:	681b      	ldr	r3, [r3, #0]
 800498a:	6959      	ldr	r1, [r3, #20]
 800498c:	463b      	mov	r3, r7
 800498e:	681b      	ldr	r3, [r3, #0]
 8004990:	88da      	ldrh	r2, [r3, #6]
 8004992:	f8d7 312c 	ldr.w	r3, [r7, #300]	; 0x12c
 8004996:	b29b      	uxth	r3, r3
 8004998:	1d38      	adds	r0, r7, #4
 800499a:	6800      	ldr	r0, [r0, #0]
 800499c:	f001 fc03 	bl	80061a6 <USB_WritePMA>
 80049a0:	f107 0310 	add.w	r3, r7, #16
 80049a4:	1d3a      	adds	r2, r7, #4
 80049a6:	6812      	ldr	r2, [r2, #0]
 80049a8:	601a      	str	r2, [r3, #0]
 80049aa:	1d3b      	adds	r3, r7, #4
 80049ac:	681b      	ldr	r3, [r3, #0]
 80049ae:	f8b3 3050 	ldrh.w	r3, [r3, #80]	; 0x50
 80049b2:	b29b      	uxth	r3, r3
 80049b4:	4619      	mov	r1, r3
 80049b6:	f107 0310 	add.w	r3, r7, #16
 80049ba:	f107 0210 	add.w	r2, r7, #16
 80049be:	6812      	ldr	r2, [r2, #0]
 80049c0:	440a      	add	r2, r1
 80049c2:	601a      	str	r2, [r3, #0]
 80049c4:	463b      	mov	r3, r7
 80049c6:	681b      	ldr	r3, [r3, #0]
 80049c8:	781b      	ldrb	r3, [r3, #0]
 80049ca:	011a      	lsls	r2, r3, #4
 80049cc:	f107 0310 	add.w	r3, r7, #16
 80049d0:	681b      	ldr	r3, [r3, #0]
 80049d2:	4413      	add	r3, r2
 80049d4:	f203 4204 	addw	r2, r3, #1028	; 0x404
 80049d8:	f107 030c 	add.w	r3, r7, #12
 80049dc:	601a      	str	r2, [r3, #0]
 80049de:	f8d7 312c 	ldr.w	r3, [r7, #300]	; 0x12c
 80049e2:	b29a      	uxth	r2, r3
 80049e4:	f107 030c 	add.w	r3, r7, #12
 80049e8:	681b      	ldr	r3, [r3, #0]
 80049ea:	801a      	strh	r2, [r3, #0]
 80049ec:	f000 beac 	b.w	8005748 <USB_EPStartXfer+0xe0c>
 80049f0:	463b      	mov	r3, r7
 80049f2:	681b      	ldr	r3, [r3, #0]
 80049f4:	78db      	ldrb	r3, [r3, #3]
 80049f6:	2b02      	cmp	r3, #2
 80049f8:	f040 838c 	bne.w	8005114 <USB_EPStartXfer+0x7d8>
 80049fc:	463b      	mov	r3, r7
 80049fe:	681b      	ldr	r3, [r3, #0]
 8004a00:	6a1a      	ldr	r2, [r3, #32]
 8004a02:	463b      	mov	r3, r7
 8004a04:	681b      	ldr	r3, [r3, #0]
 8004a06:	691b      	ldr	r3, [r3, #16]
 8004a08:	429a      	cmp	r2, r3
 8004a0a:	f240 8330 	bls.w	800506e <USB_EPStartXfer+0x732>
 8004a0e:	1d3b      	adds	r3, r7, #4
 8004a10:	681a      	ldr	r2, [r3, #0]
 8004a12:	463b      	mov	r3, r7
 8004a14:	681b      	ldr	r3, [r3, #0]
 8004a16:	781b      	ldrb	r3, [r3, #0]
 8004a18:	009b      	lsls	r3, r3, #2
 8004a1a:	4413      	add	r3, r2
 8004a1c:	881b      	ldrh	r3, [r3, #0]
 8004a1e:	b29b      	uxth	r3, r3
 8004a20:	f423 43e0 	bic.w	r3, r3, #28672	; 0x7000
 8004a24:	f023 0370 	bic.w	r3, r3, #112	; 0x70
 8004a28:	f8a7 3056 	strh.w	r3, [r7, #86]	; 0x56
 8004a2c:	1d3b      	adds	r3, r7, #4
 8004a2e:	681a      	ldr	r2, [r3, #0]
 8004a30:	463b      	mov	r3, r7
 8004a32:	681b      	ldr	r3, [r3, #0]
 8004a34:	781b      	ldrb	r3, [r3, #0]
 8004a36:	009b      	lsls	r3, r3, #2
 8004a38:	441a      	add	r2, r3
 8004a3a:	f8b7 3056 	ldrh.w	r3, [r7, #86]	; 0x56
 8004a3e:	f043 437f 	orr.w	r3, r3, #4278190080	; 0xff000000
 8004a42:	f443 037f 	orr.w	r3, r3, #16711680	; 0xff0000
 8004a46:	f443 4301 	orr.w	r3, r3, #33024	; 0x8100
 8004a4a:	f043 0380 	orr.w	r3, r3, #128	; 0x80
 8004a4e:	b29b      	uxth	r3, r3
 8004a50:	8013      	strh	r3, [r2, #0]
 8004a52:	463b      	mov	r3, r7
 8004a54:	681b      	ldr	r3, [r3, #0]
 8004a56:	6a1a      	ldr	r2, [r3, #32]
 8004a58:	f8d7 312c 	ldr.w	r3, [r7, #300]	; 0x12c
 8004a5c:	1ad2      	subs	r2, r2, r3
 8004a5e:	463b      	mov	r3, r7
 8004a60:	681b      	ldr	r3, [r3, #0]
 8004a62:	621a      	str	r2, [r3, #32]
 8004a64:	1d3b      	adds	r3, r7, #4
 8004a66:	681a      	ldr	r2, [r3, #0]
 8004a68:	463b      	mov	r3, r7
 8004a6a:	681b      	ldr	r3, [r3, #0]
 8004a6c:	781b      	ldrb	r3, [r3, #0]
 8004a6e:	009b      	lsls	r3, r3, #2
 8004a70:	4413      	add	r3, r2
 8004a72:	881b      	ldrh	r3, [r3, #0]
 8004a74:	b29b      	uxth	r3, r3
 8004a76:	f003 0340 	and.w	r3, r3, #64	; 0x40
 8004a7a:	2b00      	cmp	r3, #0
 8004a7c:	f000 819e 	beq.w	8004dbc <USB_EPStartXfer+0x480>
 8004a80:	f107 0330 	add.w	r3, r7, #48	; 0x30
 8004a84:	1d3a      	adds	r2, r7, #4
 8004a86:	6812      	ldr	r2, [r2, #0]
 8004a88:	601a      	str	r2, [r3, #0]
 8004a8a:	463b      	mov	r3, r7
 8004a8c:	681b      	ldr	r3, [r3, #0]
 8004a8e:	785b      	ldrb	r3, [r3, #1]
 8004a90:	2b00      	cmp	r3, #0
 8004a92:	d17a      	bne.n	8004b8a <USB_EPStartXfer+0x24e>
 8004a94:	f107 0328 	add.w	r3, r7, #40	; 0x28
 8004a98:	1d3a      	adds	r2, r7, #4
 8004a9a:	6812      	ldr	r2, [r2, #0]
 8004a9c:	601a      	str	r2, [r3, #0]
 8004a9e:	1d3b      	adds	r3, r7, #4
 8004aa0:	681b      	ldr	r3, [r3, #0]
 8004aa2:	f8b3 3050 	ldrh.w	r3, [r3, #80]	; 0x50
 8004aa6:	b29b      	uxth	r3, r3
 8004aa8:	4619      	mov	r1, r3
 8004aaa:	f107 0328 	add.w	r3, r7, #40	; 0x28
 8004aae:	f107 0228 	add.w	r2, r7, #40	; 0x28
 8004ab2:	6812      	ldr	r2, [r2, #0]
 8004ab4:	440a      	add	r2, r1
 8004ab6:	601a      	str	r2, [r3, #0]
 8004ab8:	463b      	mov	r3, r7
 8004aba:	681b      	ldr	r3, [r3, #0]
 8004abc:	781b      	ldrb	r3, [r3, #0]
 8004abe:	011a      	lsls	r2, r3, #4
 8004ac0:	f107 0328 	add.w	r3, r7, #40	; 0x28
 8004ac4:	681b      	ldr	r3, [r3, #0]
 8004ac6:	4413      	add	r3, r2
 8004ac8:	f203 420c 	addw	r2, r3, #1036	; 0x40c
 8004acc:	f107 0324 	add.w	r3, r7, #36	; 0x24
 8004ad0:	601a      	str	r2, [r3, #0]
 8004ad2:	f8d7 312c 	ldr.w	r3, [r7, #300]	; 0x12c
 8004ad6:	2b00      	cmp	r3, #0
 8004ad8:	d11a      	bne.n	8004b10 <USB_EPStartXfer+0x1d4>
 8004ada:	f107 0324 	add.w	r3, r7, #36	; 0x24
 8004ade:	681b      	ldr	r3, [r3, #0]
 8004ae0:	881b      	ldrh	r3, [r3, #0]
 8004ae2:	b29b      	uxth	r3, r3
 8004ae4:	f423 43f8 	bic.w	r3, r3, #31744	; 0x7c00
 8004ae8:	b29a      	uxth	r2, r3
 8004aea:	f107 0324 	add.w	r3, r7, #36	; 0x24
 8004aee:	681b      	ldr	r3, [r3, #0]
 8004af0:	801a      	strh	r2, [r3, #0]
 8004af2:	f107 0324 	add.w	r3, r7, #36	; 0x24
 8004af6:	681b      	ldr	r3, [r3, #0]
 8004af8:	881b      	ldrh	r3, [r3, #0]
 8004afa:	b29b      	uxth	r3, r3
 8004afc:	ea6f 4343 	mvn.w	r3, r3, lsl #17
 8004b00:	ea6f 4353 	mvn.w	r3, r3, lsr #17
 8004b04:	b29a      	uxth	r2, r3
 8004b06:	f107 0324 	add.w	r3, r7, #36	; 0x24
 8004b0a:	681b      	ldr	r3, [r3, #0]
 8004b0c:	801a      	strh	r2, [r3, #0]
 8004b0e:	e062      	b.n	8004bd6 <USB_EPStartXfer+0x29a>
 8004b10:	f8d7 312c 	ldr.w	r3, [r7, #300]	; 0x12c
 8004b14:	2b3e      	cmp	r3, #62	; 0x3e
 8004b16:	d819      	bhi.n	8004b4c <USB_EPStartXfer+0x210>
 8004b18:	f8d7 312c 	ldr.w	r3, [r7, #300]	; 0x12c
 8004b1c:	085b      	lsrs	r3, r3, #1
 8004b1e:	f8c7 3128 	str.w	r3, [r7, #296]	; 0x128
 8004b22:	f8d7 312c 	ldr.w	r3, [r7, #300]	; 0x12c
 8004b26:	f003 0301 	and.w	r3, r3, #1
 8004b2a:	2b00      	cmp	r3, #0
 8004b2c:	d004      	beq.n	8004b38 <USB_EPStartXfer+0x1fc>
 8004b2e:	f8d7 3128 	ldr.w	r3, [r7, #296]	; 0x128
 8004b32:	3301      	adds	r3, #1
 8004b34:	f8c7 3128 	str.w	r3, [r7, #296]	; 0x128
 8004b38:	f8d7 3128 	ldr.w	r3, [r7, #296]	; 0x128
 8004b3c:	b29b      	uxth	r3, r3
 8004b3e:	029b      	lsls	r3, r3, #10
 8004b40:	b29a      	uxth	r2, r3
 8004b42:	f107 0324 	add.w	r3, r7, #36	; 0x24
 8004b46:	681b      	ldr	r3, [r3, #0]
 8004b48:	801a      	strh	r2, [r3, #0]
 8004b4a:	e044      	b.n	8004bd6 <USB_EPStartXfer+0x29a>
 8004b4c:	f8d7 312c 	ldr.w	r3, [r7, #300]	; 0x12c
 8004b50:	095b      	lsrs	r3, r3, #5
 8004b52:	f8c7 3128 	str.w	r3, [r7, #296]	; 0x128
 8004b56:	f8d7 312c 	ldr.w	r3, [r7, #300]	; 0x12c
 8004b5a:	f003 031f 	and.w	r3, r3, #31
 8004b5e:	2b00      	cmp	r3, #0
 8004b60:	d104      	bne.n	8004b6c <USB_EPStartXfer+0x230>
 8004b62:	f8d7 3128 	ldr.w	r3, [r7, #296]	; 0x128
 8004b66:	3b01      	subs	r3, #1
 8004b68:	f8c7 3128 	str.w	r3, [r7, #296]	; 0x128
 8004b6c:	f8d7 3128 	ldr.w	r3, [r7, #296]	; 0x128
 8004b70:	b29b      	uxth	r3, r3
 8004b72:	029b      	lsls	r3, r3, #10
 8004b74:	b29b      	uxth	r3, r3
 8004b76:	ea6f 4343 	mvn.w	r3, r3, lsl #17
 8004b7a:	ea6f 4353 	mvn.w	r3, r3, lsr #17
 8004b7e:	b29a      	uxth	r2, r3
 8004b80:	f107 0324 	add.w	r3, r7, #36	; 0x24
 8004b84:	681b      	ldr	r3, [r3, #0]
 8004b86:	801a      	strh	r2, [r3, #0]
 8004b88:	e025      	b.n	8004bd6 <USB_EPStartXfer+0x29a>
 8004b8a:	463b      	mov	r3, r7
 8004b8c:	681b      	ldr	r3, [r3, #0]
 8004b8e:	785b      	ldrb	r3, [r3, #1]
 8004b90:	2b01      	cmp	r3, #1
 8004b92:	d120      	bne.n	8004bd6 <USB_EPStartXfer+0x29a>
 8004b94:	1d3b      	adds	r3, r7, #4
 8004b96:	681b      	ldr	r3, [r3, #0]
 8004b98:	f8b3 3050 	ldrh.w	r3, [r3, #80]	; 0x50
 8004b9c:	b29b      	uxth	r3, r3
 8004b9e:	4619      	mov	r1, r3
 8004ba0:	f107 0330 	add.w	r3, r7, #48	; 0x30
 8004ba4:	f107 0230 	add.w	r2, r7, #48	; 0x30
 8004ba8:	6812      	ldr	r2, [r2, #0]
 8004baa:	440a      	add	r2, r1
 8004bac:	601a      	str	r2, [r3, #0]
 8004bae:	463b      	mov	r3, r7
 8004bb0:	681b      	ldr	r3, [r3, #0]
 8004bb2:	781b      	ldrb	r3, [r3, #0]
 8004bb4:	011a      	lsls	r2, r3, #4
 8004bb6:	f107 0330 	add.w	r3, r7, #48	; 0x30
 8004bba:	681b      	ldr	r3, [r3, #0]
 8004bbc:	4413      	add	r3, r2
 8004bbe:	f203 420c 	addw	r2, r3, #1036	; 0x40c
 8004bc2:	f107 032c 	add.w	r3, r7, #44	; 0x2c
 8004bc6:	601a      	str	r2, [r3, #0]
 8004bc8:	f8d7 312c 	ldr.w	r3, [r7, #300]	; 0x12c
 8004bcc:	b29a      	uxth	r2, r3
 8004bce:	f107 032c 	add.w	r3, r7, #44	; 0x2c
 8004bd2:	681b      	ldr	r3, [r3, #0]
 8004bd4:	801a      	strh	r2, [r3, #0]
 8004bd6:	463b      	mov	r3, r7
 8004bd8:	681b      	ldr	r3, [r3, #0]
 8004bda:	895b      	ldrh	r3, [r3, #10]
 8004bdc:	f8a7 3096 	strh.w	r3, [r7, #150]	; 0x96
 8004be0:	463b      	mov	r3, r7
 8004be2:	681b      	ldr	r3, [r3, #0]
 8004be4:	6959      	ldr	r1, [r3, #20]
 8004be6:	f8d7 312c 	ldr.w	r3, [r7, #300]	; 0x12c
 8004bea:	b29b      	uxth	r3, r3
 8004bec:	f8b7 2096 	ldrh.w	r2, [r7, #150]	; 0x96
 8004bf0:	1d38      	adds	r0, r7, #4
 8004bf2:	6800      	ldr	r0, [r0, #0]
 8004bf4:	f001 fad7 	bl	80061a6 <USB_WritePMA>
 8004bf8:	463b      	mov	r3, r7
 8004bfa:	681b      	ldr	r3, [r3, #0]
 8004bfc:	695a      	ldr	r2, [r3, #20]
 8004bfe:	f8d7 312c 	ldr.w	r3, [r7, #300]	; 0x12c
 8004c02:	441a      	add	r2, r3
 8004c04:	463b      	mov	r3, r7
 8004c06:	681b      	ldr	r3, [r3, #0]
 8004c08:	615a      	str	r2, [r3, #20]
 8004c0a:	463b      	mov	r3, r7
 8004c0c:	681b      	ldr	r3, [r3, #0]
 8004c0e:	6a1a      	ldr	r2, [r3, #32]
 8004c10:	463b      	mov	r3, r7
 8004c12:	681b      	ldr	r3, [r3, #0]
 8004c14:	691b      	ldr	r3, [r3, #16]
 8004c16:	429a      	cmp	r2, r3
 8004c18:	d909      	bls.n	8004c2e <USB_EPStartXfer+0x2f2>
 8004c1a:	463b      	mov	r3, r7
 8004c1c:	681b      	ldr	r3, [r3, #0]
 8004c1e:	6a1a      	ldr	r2, [r3, #32]
 8004c20:	f8d7 312c 	ldr.w	r3, [r7, #300]	; 0x12c
 8004c24:	1ad2      	subs	r2, r2, r3
 8004c26:	463b      	mov	r3, r7
 8004c28:	681b      	ldr	r3, [r3, #0]
 8004c2a:	621a      	str	r2, [r3, #32]
 8004c2c:	e008      	b.n	8004c40 <USB_EPStartXfer+0x304>
 8004c2e:	463b      	mov	r3, r7
 8004c30:	681b      	ldr	r3, [r3, #0]
 8004c32:	6a1b      	ldr	r3, [r3, #32]
 8004c34:	f8c7 312c 	str.w	r3, [r7, #300]	; 0x12c
 8004c38:	463b      	mov	r3, r7
 8004c3a:	681b      	ldr	r3, [r3, #0]
 8004c3c:	2200      	movs	r2, #0
 8004c3e:	621a      	str	r2, [r3, #32]
 8004c40:	463b      	mov	r3, r7
 8004c42:	681b      	ldr	r3, [r3, #0]
 8004c44:	785b      	ldrb	r3, [r3, #1]
 8004c46:	2b00      	cmp	r3, #0
 8004c48:	d17a      	bne.n	8004d40 <USB_EPStartXfer+0x404>
 8004c4a:	f107 0318 	add.w	r3, r7, #24
 8004c4e:	1d3a      	adds	r2, r7, #4
 8004c50:	6812      	ldr	r2, [r2, #0]
 8004c52:	601a      	str	r2, [r3, #0]
 8004c54:	1d3b      	adds	r3, r7, #4
 8004c56:	681b      	ldr	r3, [r3, #0]
 8004c58:	f8b3 3050 	ldrh.w	r3, [r3, #80]	; 0x50
 8004c5c:	b29b      	uxth	r3, r3
 8004c5e:	4619      	mov	r1, r3
 8004c60:	f107 0318 	add.w	r3, r7, #24
 8004c64:	f107 0218 	add.w	r2, r7, #24
 8004c68:	6812      	ldr	r2, [r2, #0]
 8004c6a:	440a      	add	r2, r1
 8004c6c:	601a      	str	r2, [r3, #0]
 8004c6e:	463b      	mov	r3, r7
 8004c70:	681b      	ldr	r3, [r3, #0]
 8004c72:	781b      	ldrb	r3, [r3, #0]
 8004c74:	011a      	lsls	r2, r3, #4
 8004c76:	f107 0318 	add.w	r3, r7, #24
 8004c7a:	681b      	ldr	r3, [r3, #0]
 8004c7c:	4413      	add	r3, r2
 8004c7e:	f203 4204 	addw	r2, r3, #1028	; 0x404
 8004c82:	f107 0314 	add.w	r3, r7, #20
 8004c86:	601a      	str	r2, [r3, #0]
 8004c88:	f8d7 312c 	ldr.w	r3, [r7, #300]	; 0x12c
 8004c8c:	2b00      	cmp	r3, #0
 8004c8e:	d11a      	bne.n	8004cc6 <USB_EPStartXfer+0x38a>
 8004c90:	f107 0314 	add.w	r3, r7, #20
 8004c94:	681b      	ldr	r3, [r3, #0]
 8004c96:	881b      	ldrh	r3, [r3, #0]
 8004c98:	b29b      	uxth	r3, r3
 8004c9a:	f423 43f8 	bic.w	r3, r3, #31744	; 0x7c00
 8004c9e:	b29a      	uxth	r2, r3
 8004ca0:	f107 0314 	add.w	r3, r7, #20
 8004ca4:	681b      	ldr	r3, [r3, #0]
 8004ca6:	801a      	strh	r2, [r3, #0]
 8004ca8:	f107 0314 	add.w	r3, r7, #20
 8004cac:	681b      	ldr	r3, [r3, #0]
 8004cae:	881b      	ldrh	r3, [r3, #0]
 8004cb0:	b29b      	uxth	r3, r3
 8004cb2:	ea6f 4343 	mvn.w	r3, r3, lsl #17
 8004cb6:	ea6f 4353 	mvn.w	r3, r3, lsr #17
 8004cba:	b29a      	uxth	r2, r3
 8004cbc:	f107 0314 	add.w	r3, r7, #20
 8004cc0:	681b      	ldr	r3, [r3, #0]
 8004cc2:	801a      	strh	r2, [r3, #0]
 8004cc4:	e067      	b.n	8004d96 <USB_EPStartXfer+0x45a>
 8004cc6:	f8d7 312c 	ldr.w	r3, [r7, #300]	; 0x12c
 8004cca:	2b3e      	cmp	r3, #62	; 0x3e
 8004ccc:	d819      	bhi.n	8004d02 <USB_EPStartXfer+0x3c6>
 8004cce:	f8d7 312c 	ldr.w	r3, [r7, #300]	; 0x12c
 8004cd2:	085b      	lsrs	r3, r3, #1
 8004cd4:	f8c7 3124 	str.w	r3, [r7, #292]	; 0x124
 8004cd8:	f8d7 312c 	ldr.w	r3, [r7, #300]	; 0x12c
 8004cdc:	f003 0301 	and.w	r3, r3, #1
 8004ce0:	2b00      	cmp	r3, #0
 8004ce2:	d004      	beq.n	8004cee <USB_EPStartXfer+0x3b2>
 8004ce4:	f8d7 3124 	ldr.w	r3, [r7, #292]	; 0x124
 8004ce8:	3301      	adds	r3, #1
 8004cea:	f8c7 3124 	str.w	r3, [r7, #292]	; 0x124
 8004cee:	f8d7 3124 	ldr.w	r3, [r7, #292]	; 0x124
 8004cf2:	b29b      	uxth	r3, r3
 8004cf4:	029b      	lsls	r3, r3, #10
 8004cf6:	b29a      	uxth	r2, r3
 8004cf8:	f107 0314 	add.w	r3, r7, #20
 8004cfc:	681b      	ldr	r3, [r3, #0]
 8004cfe:	801a      	strh	r2, [r3, #0]
 8004d00:	e049      	b.n	8004d96 <USB_EPStartXfer+0x45a>
 8004d02:	f8d7 312c 	ldr.w	r3, [r7, #300]	; 0x12c
 8004d06:	095b      	lsrs	r3, r3, #5
 8004d08:	f8c7 3124 	str.w	r3, [r7, #292]	; 0x124
 8004d0c:	f8d7 312c 	ldr.w	r3, [r7, #300]	; 0x12c
 8004d10:	f003 031f 	and.w	r3, r3, #31
 8004d14:	2b00      	cmp	r3, #0
 8004d16:	d104      	bne.n	8004d22 <USB_EPStartXfer+0x3e6>
 8004d18:	f8d7 3124 	ldr.w	r3, [r7, #292]	; 0x124
 8004d1c:	3b01      	subs	r3, #1
 8004d1e:	f8c7 3124 	str.w	r3, [r7, #292]	; 0x124
 8004d22:	f8d7 3124 	ldr.w	r3, [r7, #292]	; 0x124
 8004d26:	b29b      	uxth	r3, r3
 8004d28:	029b      	lsls	r3, r3, #10
 8004d2a:	b29b      	uxth	r3, r3
 8004d2c:	ea6f 4343 	mvn.w	r3, r3, lsl #17
 8004d30:	ea6f 4353 	mvn.w	r3, r3, lsr #17
 8004d34:	b29a      	uxth	r2, r3
 8004d36:	f107 0314 	add.w	r3, r7, #20
 8004d3a:	681b      	ldr	r3, [r3, #0]
 8004d3c:	801a      	strh	r2, [r3, #0]
 8004d3e:	e02a      	b.n	8004d96 <USB_EPStartXfer+0x45a>
 8004d40:	463b      	mov	r3, r7
 8004d42:	681b      	ldr	r3, [r3, #0]
 8004d44:	785b      	ldrb	r3, [r3, #1]
 8004d46:	2b01      	cmp	r3, #1
 8004d48:	d125      	bne.n	8004d96 <USB_EPStartXfer+0x45a>
 8004d4a:	f107 0320 	add.w	r3, r7, #32
 8004d4e:	1d3a      	adds	r2, r7, #4
 8004d50:	6812      	ldr	r2, [r2, #0]
 8004d52:	601a      	str	r2, [r3, #0]
 8004d54:	1d3b      	adds	r3, r7, #4
 8004d56:	681b      	ldr	r3, [r3, #0]
 8004d58:	f8b3 3050 	ldrh.w	r3, [r3, #80]	; 0x50
 8004d5c:	b29b      	uxth	r3, r3
 8004d5e:	4619      	mov	r1, r3
 8004d60:	f107 0320 	add.w	r3, r7, #32
 8004d64:	f107 0220 	add.w	r2, r7, #32
 8004d68:	6812      	ldr	r2, [r2, #0]
 8004d6a:	440a      	add	r2, r1
 8004d6c:	601a      	str	r2, [r3, #0]
 8004d6e:	463b      	mov	r3, r7
 8004d70:	681b      	ldr	r3, [r3, #0]
 8004d72:	781b      	ldrb	r3, [r3, #0]
 8004d74:	011a      	lsls	r2, r3, #4
 8004d76:	f107 0320 	add.w	r3, r7, #32
 8004d7a:	681b      	ldr	r3, [r3, #0]
 8004d7c:	4413      	add	r3, r2
 8004d7e:	f203 4204 	addw	r2, r3, #1028	; 0x404
 8004d82:	f107 031c 	add.w	r3, r7, #28
 8004d86:	601a      	str	r2, [r3, #0]
 8004d88:	f8d7 312c 	ldr.w	r3, [r7, #300]	; 0x12c
 8004d8c:	b29a      	uxth	r2, r3
 8004d8e:	f107 031c 	add.w	r3, r7, #28
 8004d92:	681b      	ldr	r3, [r3, #0]
 8004d94:	801a      	strh	r2, [r3, #0]
 8004d96:	463b      	mov	r3, r7
 8004d98:	681b      	ldr	r3, [r3, #0]
 8004d9a:	891b      	ldrh	r3, [r3, #8]
 8004d9c:	f8a7 3096 	strh.w	r3, [r7, #150]	; 0x96
 8004da0:	463b      	mov	r3, r7
 8004da2:	681b      	ldr	r3, [r3, #0]
 8004da4:	6959      	ldr	r1, [r3, #20]
 8004da6:	f8d7 312c 	ldr.w	r3, [r7, #300]	; 0x12c
 8004daa:	b29b      	uxth	r3, r3
 8004dac:	f8b7 2096 	ldrh.w	r2, [r7, #150]	; 0x96
 8004db0:	1d38      	adds	r0, r7, #4
 8004db2:	6800      	ldr	r0, [r0, #0]
 8004db4:	f001 f9f7 	bl	80061a6 <USB_WritePMA>
 8004db8:	f000 bcc6 	b.w	8005748 <USB_EPStartXfer+0xe0c>
 8004dbc:	463b      	mov	r3, r7
 8004dbe:	681b      	ldr	r3, [r3, #0]
 8004dc0:	785b      	ldrb	r3, [r3, #1]
 8004dc2:	2b00      	cmp	r3, #0
 8004dc4:	d164      	bne.n	8004e90 <USB_EPStartXfer+0x554>
 8004dc6:	1d3b      	adds	r3, r7, #4
 8004dc8:	681b      	ldr	r3, [r3, #0]
 8004dca:	64bb      	str	r3, [r7, #72]	; 0x48
 8004dcc:	1d3b      	adds	r3, r7, #4
 8004dce:	681b      	ldr	r3, [r3, #0]
 8004dd0:	f8b3 3050 	ldrh.w	r3, [r3, #80]	; 0x50
 8004dd4:	b29b      	uxth	r3, r3
 8004dd6:	461a      	mov	r2, r3
 8004dd8:	6cbb      	ldr	r3, [r7, #72]	; 0x48
 8004dda:	4413      	add	r3, r2
 8004ddc:	64bb      	str	r3, [r7, #72]	; 0x48
 8004dde:	463b      	mov	r3, r7
 8004de0:	681b      	ldr	r3, [r3, #0]
 8004de2:	781b      	ldrb	r3, [r3, #0]
 8004de4:	011a      	lsls	r2, r3, #4
 8004de6:	6cbb      	ldr	r3, [r7, #72]	; 0x48
 8004de8:	4413      	add	r3, r2
 8004dea:	f203 4304 	addw	r3, r3, #1028	; 0x404
 8004dee:	647b      	str	r3, [r7, #68]	; 0x44
 8004df0:	f8d7 312c 	ldr.w	r3, [r7, #300]	; 0x12c
 8004df4:	2b00      	cmp	r3, #0
 8004df6:	d112      	bne.n	8004e1e <USB_EPStartXfer+0x4e2>
 8004df8:	6c7b      	ldr	r3, [r7, #68]	; 0x44
 8004dfa:	881b      	ldrh	r3, [r3, #0]
 8004dfc:	b29b      	uxth	r3, r3
 8004dfe:	f423 43f8 	bic.w	r3, r3, #31744	; 0x7c00
 8004e02:	b29a      	uxth	r2, r3
 8004e04:	6c7b      	ldr	r3, [r7, #68]	; 0x44
 8004e06:	801a      	strh	r2, [r3, #0]
 8004e08:	6c7b      	ldr	r3, [r7, #68]	; 0x44
 8004e0a:	881b      	ldrh	r3, [r3, #0]
 8004e0c:	b29b      	uxth	r3, r3
 8004e0e:	ea6f 4343 	mvn.w	r3, r3, lsl #17
 8004e12:	ea6f 4353 	mvn.w	r3, r3, lsr #17
 8004e16:	b29a      	uxth	r2, r3
 8004e18:	6c7b      	ldr	r3, [r7, #68]	; 0x44
 8004e1a:	801a      	strh	r2, [r3, #0]
 8004e1c:	e057      	b.n	8004ece <USB_EPStartXfer+0x592>
 8004e1e:	f8d7 312c 	ldr.w	r3, [r7, #300]	; 0x12c
 8004e22:	2b3e      	cmp	r3, #62	; 0x3e
 8004e24:	d817      	bhi.n	8004e56 <USB_EPStartXfer+0x51a>
 8004e26:	f8d7 312c 	ldr.w	r3, [r7, #300]	; 0x12c
 8004e2a:	085b      	lsrs	r3, r3, #1
 8004e2c:	f8c7 3120 	str.w	r3, [r7, #288]	; 0x120
 8004e30:	f8d7 312c 	ldr.w	r3, [r7, #300]	; 0x12c
 8004e34:	f003 0301 	and.w	r3, r3, #1
 8004e38:	2b00      	cmp	r3, #0
 8004e3a:	d004      	beq.n	8004e46 <USB_EPStartXfer+0x50a>
 8004e3c:	f8d7 3120 	ldr.w	r3, [r7, #288]	; 0x120
 8004e40:	3301      	adds	r3, #1
 8004e42:	f8c7 3120 	str.w	r3, [r7, #288]	; 0x120
 8004e46:	f8d7 3120 	ldr.w	r3, [r7, #288]	; 0x120
 8004e4a:	b29b      	uxth	r3, r3
 8004e4c:	029b      	lsls	r3, r3, #10
 8004e4e:	b29a      	uxth	r2, r3
 8004e50:	6c7b      	ldr	r3, [r7, #68]	; 0x44
 8004e52:	801a      	strh	r2, [r3, #0]
 8004e54:	e03b      	b.n	8004ece <USB_EPStartXfer+0x592>
 8004e56:	f8d7 312c 	ldr.w	r3, [r7, #300]	; 0x12c
 8004e5a:	095b      	lsrs	r3, r3, #5
 8004e5c:	f8c7 3120 	str.w	r3, [r7, #288]	; 0x120
 8004e60:	f8d7 312c 	ldr.w	r3, [r7, #300]	; 0x12c
 8004e64:	f003 031f 	and.w	r3, r3, #31
 8004e68:	2b00      	cmp	r3, #0
 8004e6a:	d104      	bne.n	8004e76 <USB_EPStartXfer+0x53a>
 8004e6c:	f8d7 3120 	ldr.w	r3, [r7, #288]	; 0x120
 8004e70:	3b01      	subs	r3, #1
 8004e72:	f8c7 3120 	str.w	r3, [r7, #288]	; 0x120
 8004e76:	f8d7 3120 	ldr.w	r3, [r7, #288]	; 0x120
 8004e7a:	b29b      	uxth	r3, r3
 8004e7c:	029b      	lsls	r3, r3, #10
 8004e7e:	b29b      	uxth	r3, r3
 8004e80:	ea6f 4343 	mvn.w	r3, r3, lsl #17
 8004e84:	ea6f 4353 	mvn.w	r3, r3, lsr #17
 8004e88:	b29a      	uxth	r2, r3
 8004e8a:	6c7b      	ldr	r3, [r7, #68]	; 0x44
 8004e8c:	801a      	strh	r2, [r3, #0]
 8004e8e:	e01e      	b.n	8004ece <USB_EPStartXfer+0x592>
 8004e90:	463b      	mov	r3, r7
 8004e92:	681b      	ldr	r3, [r3, #0]
 8004e94:	785b      	ldrb	r3, [r3, #1]
 8004e96:	2b01      	cmp	r3, #1
 8004e98:	d119      	bne.n	8004ece <USB_EPStartXfer+0x592>
 8004e9a:	1d3b      	adds	r3, r7, #4
 8004e9c:	681b      	ldr	r3, [r3, #0]
 8004e9e:	653b      	str	r3, [r7, #80]	; 0x50
 8004ea0:	1d3b      	adds	r3, r7, #4
 8004ea2:	681b      	ldr	r3, [r3, #0]
 8004ea4:	f8b3 3050 	ldrh.w	r3, [r3, #80]	; 0x50
 8004ea8:	b29b      	uxth	r3, r3
 8004eaa:	461a      	mov	r2, r3
 8004eac:	6d3b      	ldr	r3, [r7, #80]	; 0x50
 8004eae:	4413      	add	r3, r2
 8004eb0:	653b      	str	r3, [r7, #80]	; 0x50
 8004eb2:	463b      	mov	r3, r7
 8004eb4:	681b      	ldr	r3, [r3, #0]
 8004eb6:	781b      	ldrb	r3, [r3, #0]
 8004eb8:	011a      	lsls	r2, r3, #4
 8004eba:	6d3b      	ldr	r3, [r7, #80]	; 0x50
 8004ebc:	4413      	add	r3, r2
 8004ebe:	f203 4304 	addw	r3, r3, #1028	; 0x404
 8004ec2:	64fb      	str	r3, [r7, #76]	; 0x4c
 8004ec4:	f8d7 312c 	ldr.w	r3, [r7, #300]	; 0x12c
 8004ec8:	b29a      	uxth	r2, r3
 8004eca:	6cfb      	ldr	r3, [r7, #76]	; 0x4c
 8004ecc:	801a      	strh	r2, [r3, #0]
 8004ece:	463b      	mov	r3, r7
 8004ed0:	681b      	ldr	r3, [r3, #0]
 8004ed2:	891b      	ldrh	r3, [r3, #8]
 8004ed4:	f8a7 3096 	strh.w	r3, [r7, #150]	; 0x96
 8004ed8:	463b      	mov	r3, r7
 8004eda:	681b      	ldr	r3, [r3, #0]
 8004edc:	6959      	ldr	r1, [r3, #20]
 8004ede:	f8d7 312c 	ldr.w	r3, [r7, #300]	; 0x12c
 8004ee2:	b29b      	uxth	r3, r3
 8004ee4:	f8b7 2096 	ldrh.w	r2, [r7, #150]	; 0x96
 8004ee8:	1d38      	adds	r0, r7, #4
 8004eea:	6800      	ldr	r0, [r0, #0]
 8004eec:	f001 f95b 	bl	80061a6 <USB_WritePMA>
 8004ef0:	463b      	mov	r3, r7
 8004ef2:	681b      	ldr	r3, [r3, #0]
 8004ef4:	695a      	ldr	r2, [r3, #20]
 8004ef6:	f8d7 312c 	ldr.w	r3, [r7, #300]	; 0x12c
 8004efa:	441a      	add	r2, r3
 8004efc:	463b      	mov	r3, r7
 8004efe:	681b      	ldr	r3, [r3, #0]
 8004f00:	615a      	str	r2, [r3, #20]
 8004f02:	463b      	mov	r3, r7
 8004f04:	681b      	ldr	r3, [r3, #0]
 8004f06:	6a1a      	ldr	r2, [r3, #32]
 8004f08:	463b      	mov	r3, r7
 8004f0a:	681b      	ldr	r3, [r3, #0]
 8004f0c:	691b      	ldr	r3, [r3, #16]
 8004f0e:	429a      	cmp	r2, r3
 8004f10:	d909      	bls.n	8004f26 <USB_EPStartXfer+0x5ea>
 8004f12:	463b      	mov	r3, r7
 8004f14:	681b      	ldr	r3, [r3, #0]
 8004f16:	6a1a      	ldr	r2, [r3, #32]
 8004f18:	f8d7 312c 	ldr.w	r3, [r7, #300]	; 0x12c
 8004f1c:	1ad2      	subs	r2, r2, r3
 8004f1e:	463b      	mov	r3, r7
 8004f20:	681b      	ldr	r3, [r3, #0]
 8004f22:	621a      	str	r2, [r3, #32]
 8004f24:	e008      	b.n	8004f38 <USB_EPStartXfer+0x5fc>
 8004f26:	463b      	mov	r3, r7
 8004f28:	681b      	ldr	r3, [r3, #0]
 8004f2a:	6a1b      	ldr	r3, [r3, #32]
 8004f2c:	f8c7 312c 	str.w	r3, [r7, #300]	; 0x12c
 8004f30:	463b      	mov	r3, r7
 8004f32:	681b      	ldr	r3, [r3, #0]
 8004f34:	2200      	movs	r2, #0
 8004f36:	621a      	str	r2, [r3, #32]
 8004f38:	1d3b      	adds	r3, r7, #4
 8004f3a:	681b      	ldr	r3, [r3, #0]
 8004f3c:	643b      	str	r3, [r7, #64]	; 0x40
 8004f3e:	463b      	mov	r3, r7
 8004f40:	681b      	ldr	r3, [r3, #0]
 8004f42:	785b      	ldrb	r3, [r3, #1]
 8004f44:	2b00      	cmp	r3, #0
 8004f46:	d164      	bne.n	8005012 <USB_EPStartXfer+0x6d6>
 8004f48:	1d3b      	adds	r3, r7, #4
 8004f4a:	681b      	ldr	r3, [r3, #0]
 8004f4c:	63bb      	str	r3, [r7, #56]	; 0x38
 8004f4e:	1d3b      	adds	r3, r7, #4
 8004f50:	681b      	ldr	r3, [r3, #0]
 8004f52:	f8b3 3050 	ldrh.w	r3, [r3, #80]	; 0x50
 8004f56:	b29b      	uxth	r3, r3
 8004f58:	461a      	mov	r2, r3
 8004f5a:	6bbb      	ldr	r3, [r7, #56]	; 0x38
 8004f5c:	4413      	add	r3, r2
 8004f5e:	63bb      	str	r3, [r7, #56]	; 0x38
 8004f60:	463b      	mov	r3, r7
 8004f62:	681b      	ldr	r3, [r3, #0]
 8004f64:	781b      	ldrb	r3, [r3, #0]
 8004f66:	011a      	lsls	r2, r3, #4
 8004f68:	6bbb      	ldr	r3, [r7, #56]	; 0x38
 8004f6a:	4413      	add	r3, r2
 8004f6c:	f203 430c 	addw	r3, r3, #1036	; 0x40c
 8004f70:	637b      	str	r3, [r7, #52]	; 0x34
 8004f72:	f8d7 312c 	ldr.w	r3, [r7, #300]	; 0x12c
 8004f76:	2b00      	cmp	r3, #0
 8004f78:	d112      	bne.n	8004fa0 <USB_EPStartXfer+0x664>
 8004f7a:	6b7b      	ldr	r3, [r7, #52]	; 0x34
 8004f7c:	881b      	ldrh	r3, [r3, #0]
 8004f7e:	b29b      	uxth	r3, r3
 8004f80:	f423 43f8 	bic.w	r3, r3, #31744	; 0x7c00
 8004f84:	b29a      	uxth	r2, r3
 8004f86:	6b7b      	ldr	r3, [r7, #52]	; 0x34
 8004f88:	801a      	strh	r2, [r3, #0]
 8004f8a:	6b7b      	ldr	r3, [r7, #52]	; 0x34
 8004f8c:	881b      	ldrh	r3, [r3, #0]
 8004f8e:	b29b      	uxth	r3, r3
 8004f90:	ea6f 4343 	mvn.w	r3, r3, lsl #17
 8004f94:	ea6f 4353 	mvn.w	r3, r3, lsr #17
 8004f98:	b29a      	uxth	r2, r3
 8004f9a:	6b7b      	ldr	r3, [r7, #52]	; 0x34
 8004f9c:	801a      	strh	r2, [r3, #0]
 8004f9e:	e054      	b.n	800504a <USB_EPStartXfer+0x70e>
 8004fa0:	f8d7 312c 	ldr.w	r3, [r7, #300]	; 0x12c
 8004fa4:	2b3e      	cmp	r3, #62	; 0x3e
 8004fa6:	d817      	bhi.n	8004fd8 <USB_EPStartXfer+0x69c>
 8004fa8:	f8d7 312c 	ldr.w	r3, [r7, #300]	; 0x12c
 8004fac:	085b      	lsrs	r3, r3, #1
 8004fae:	f8c7 311c 	str.w	r3, [r7, #284]	; 0x11c
 8004fb2:	f8d7 312c 	ldr.w	r3, [r7, #300]	; 0x12c
 8004fb6:	f003 0301 	and.w	r3, r3, #1
 8004fba:	2b00      	cmp	r3, #0
 8004fbc:	d004      	beq.n	8004fc8 <USB_EPStartXfer+0x68c>
 8004fbe:	f8d7 311c 	ldr.w	r3, [r7, #284]	; 0x11c
 8004fc2:	3301      	adds	r3, #1
 8004fc4:	f8c7 311c 	str.w	r3, [r7, #284]	; 0x11c
 8004fc8:	f8d7 311c 	ldr.w	r3, [r7, #284]	; 0x11c
 8004fcc:	b29b      	uxth	r3, r3
 8004fce:	029b      	lsls	r3, r3, #10
 8004fd0:	b29a      	uxth	r2, r3
 8004fd2:	6b7b      	ldr	r3, [r7, #52]	; 0x34
 8004fd4:	801a      	strh	r2, [r3, #0]
 8004fd6:	e038      	b.n	800504a <USB_EPStartXfer+0x70e>
 8004fd8:	f8d7 312c 	ldr.w	r3, [r7, #300]	; 0x12c
 8004fdc:	095b      	lsrs	r3, r3, #5
 8004fde:	f8c7 311c 	str.w	r3, [r7, #284]	; 0x11c
 8004fe2:	f8d7 312c 	ldr.w	r3, [r7, #300]	; 0x12c
 8004fe6:	f003 031f 	and.w	r3, r3, #31
 8004fea:	2b00      	cmp	r3, #0
 8004fec:	d104      	bne.n	8004ff8 <USB_EPStartXfer+0x6bc>
 8004fee:	f8d7 311c 	ldr.w	r3, [r7, #284]	; 0x11c
 8004ff2:	3b01      	subs	r3, #1
 8004ff4:	f8c7 311c 	str.w	r3, [r7, #284]	; 0x11c
 8004ff8:	f8d7 311c 	ldr.w	r3, [r7, #284]	; 0x11c
 8004ffc:	b29b      	uxth	r3, r3
 8004ffe:	029b      	lsls	r3, r3, #10
 8005000:	b29b      	uxth	r3, r3
 8005002:	ea6f 4343 	mvn.w	r3, r3, lsl #17
 8005006:	ea6f 4353 	mvn.w	r3, r3, lsr #17
 800500a:	b29a      	uxth	r2, r3
 800500c:	6b7b      	ldr	r3, [r7, #52]	; 0x34
 800500e:	801a      	strh	r2, [r3, #0]
 8005010:	e01b      	b.n	800504a <USB_EPStartXfer+0x70e>
 8005012:	463b      	mov	r3, r7
 8005014:	681b      	ldr	r3, [r3, #0]
 8005016:	785b      	ldrb	r3, [r3, #1]
 8005018:	2b01      	cmp	r3, #1
 800501a:	d116      	bne.n	800504a <USB_EPStartXfer+0x70e>
 800501c:	1d3b      	adds	r3, r7, #4
 800501e:	681b      	ldr	r3, [r3, #0]
 8005020:	f8b3 3050 	ldrh.w	r3, [r3, #80]	; 0x50
 8005024:	b29b      	uxth	r3, r3
 8005026:	461a      	mov	r2, r3
 8005028:	6c3b      	ldr	r3, [r7, #64]	; 0x40
 800502a:	4413      	add	r3, r2
 800502c:	643b      	str	r3, [r7, #64]	; 0x40
 800502e:	463b      	mov	r3, r7
 8005030:	681b      	ldr	r3, [r3, #0]
 8005032:	781b      	ldrb	r3, [r3, #0]
 8005034:	011a      	lsls	r2, r3, #4
 8005036:	6c3b      	ldr	r3, [r7, #64]	; 0x40
 8005038:	4413      	add	r3, r2
 800503a:	f203 430c 	addw	r3, r3, #1036	; 0x40c
 800503e:	63fb      	str	r3, [r7, #60]	; 0x3c
 8005040:	f8d7 312c 	ldr.w	r3, [r7, #300]	; 0x12c
 8005044:	b29a      	uxth	r2, r3
 8005046:	6bfb      	ldr	r3, [r7, #60]	; 0x3c
 8005048:	801a      	strh	r2, [r3, #0]
 800504a:	463b      	mov	r3, r7
 800504c:	681b      	ldr	r3, [r3, #0]
 800504e:	895b      	ldrh	r3, [r3, #10]
 8005050:	f8a7 3096 	strh.w	r3, [r7, #150]	; 0x96
 8005054:	463b      	mov	r3, r7
 8005056:	681b      	ldr	r3, [r3, #0]
 8005058:	6959      	ldr	r1, [r3, #20]
 800505a:	f8d7 312c 	ldr.w	r3, [r7, #300]	; 0x12c
 800505e:	b29b      	uxth	r3, r3
 8005060:	f8b7 2096 	ldrh.w	r2, [r7, #150]	; 0x96
 8005064:	1d38      	adds	r0, r7, #4
 8005066:	6800      	ldr	r0, [r0, #0]
 8005068:	f001 f89d 	bl	80061a6 <USB_WritePMA>
 800506c:	e36c      	b.n	8005748 <USB_EPStartXfer+0xe0c>
 800506e:	463b      	mov	r3, r7
 8005070:	681b      	ldr	r3, [r3, #0]
 8005072:	6a1b      	ldr	r3, [r3, #32]
 8005074:	f8c7 312c 	str.w	r3, [r7, #300]	; 0x12c
 8005078:	1d3b      	adds	r3, r7, #4
 800507a:	681a      	ldr	r2, [r3, #0]
 800507c:	463b      	mov	r3, r7
 800507e:	681b      	ldr	r3, [r3, #0]
 8005080:	781b      	ldrb	r3, [r3, #0]
 8005082:	009b      	lsls	r3, r3, #2
 8005084:	4413      	add	r3, r2
 8005086:	881b      	ldrh	r3, [r3, #0]
 8005088:	b29b      	uxth	r3, r3
 800508a:	f423 43e2 	bic.w	r3, r3, #28928	; 0x7100
 800508e:	f023 0370 	bic.w	r3, r3, #112	; 0x70
 8005092:	f8a7 3062 	strh.w	r3, [r7, #98]	; 0x62
 8005096:	1d3b      	adds	r3, r7, #4
 8005098:	681a      	ldr	r2, [r3, #0]
 800509a:	463b      	mov	r3, r7
 800509c:	681b      	ldr	r3, [r3, #0]
 800509e:	781b      	ldrb	r3, [r3, #0]
 80050a0:	009b      	lsls	r3, r3, #2
 80050a2:	441a      	add	r2, r3
 80050a4:	f8b7 3062 	ldrh.w	r3, [r7, #98]	; 0x62
 80050a8:	f043 437f 	orr.w	r3, r3, #4278190080	; 0xff000000
 80050ac:	f443 037f 	orr.w	r3, r3, #16711680	; 0xff0000
 80050b0:	f443 4300 	orr.w	r3, r3, #32768	; 0x8000
 80050b4:	f043 0380 	orr.w	r3, r3, #128	; 0x80
 80050b8:	b29b      	uxth	r3, r3
 80050ba:	8013      	strh	r3, [r2, #0]
 80050bc:	1d3b      	adds	r3, r7, #4
 80050be:	681b      	ldr	r3, [r3, #0]
 80050c0:	65fb      	str	r3, [r7, #92]	; 0x5c
 80050c2:	1d3b      	adds	r3, r7, #4
 80050c4:	681b      	ldr	r3, [r3, #0]
 80050c6:	f8b3 3050 	ldrh.w	r3, [r3, #80]	; 0x50
 80050ca:	b29b      	uxth	r3, r3
 80050cc:	461a      	mov	r2, r3
 80050ce:	6dfb      	ldr	r3, [r7, #92]	; 0x5c
 80050d0:	4413      	add	r3, r2
 80050d2:	65fb      	str	r3, [r7, #92]	; 0x5c
 80050d4:	463b      	mov	r3, r7
 80050d6:	681b      	ldr	r3, [r3, #0]
 80050d8:	781b      	ldrb	r3, [r3, #0]
 80050da:	011a      	lsls	r2, r3, #4
 80050dc:	6dfb      	ldr	r3, [r7, #92]	; 0x5c
 80050de:	4413      	add	r3, r2
 80050e0:	f203 4304 	addw	r3, r3, #1028	; 0x404
 80050e4:	65bb      	str	r3, [r7, #88]	; 0x58
 80050e6:	f8d7 312c 	ldr.w	r3, [r7, #300]	; 0x12c
 80050ea:	b29a      	uxth	r2, r3
 80050ec:	6dbb      	ldr	r3, [r7, #88]	; 0x58
 80050ee:	801a      	strh	r2, [r3, #0]
 80050f0:	463b      	mov	r3, r7
 80050f2:	681b      	ldr	r3, [r3, #0]
 80050f4:	891b      	ldrh	r3, [r3, #8]
 80050f6:	f8a7 3096 	strh.w	r3, [r7, #150]	; 0x96
 80050fa:	463b      	mov	r3, r7
 80050fc:	681b      	ldr	r3, [r3, #0]
 80050fe:	6959      	ldr	r1, [r3, #20]
 8005100:	f8d7 312c 	ldr.w	r3, [r7, #300]	; 0x12c
 8005104:	b29b      	uxth	r3, r3
 8005106:	f8b7 2096 	ldrh.w	r2, [r7, #150]	; 0x96
 800510a:	1d38      	adds	r0, r7, #4
 800510c:	6800      	ldr	r0, [r0, #0]
 800510e:	f001 f84a 	bl	80061a6 <USB_WritePMA>
 8005112:	e319      	b.n	8005748 <USB_EPStartXfer+0xe0c>
 8005114:	1d3b      	adds	r3, r7, #4
 8005116:	681a      	ldr	r2, [r3, #0]
 8005118:	463b      	mov	r3, r7
 800511a:	681b      	ldr	r3, [r3, #0]
 800511c:	781b      	ldrb	r3, [r3, #0]
 800511e:	009b      	lsls	r3, r3, #2
 8005120:	4413      	add	r3, r2
 8005122:	881b      	ldrh	r3, [r3, #0]
 8005124:	b29b      	uxth	r3, r3
 8005126:	f423 43e0 	bic.w	r3, r3, #28672	; 0x7000
 800512a:	f023 0370 	bic.w	r3, r3, #112	; 0x70
 800512e:	f8a7 30a8 	strh.w	r3, [r7, #168]	; 0xa8
 8005132:	1d3b      	adds	r3, r7, #4
 8005134:	681a      	ldr	r2, [r3, #0]
 8005136:	463b      	mov	r3, r7
 8005138:	681b      	ldr	r3, [r3, #0]
 800513a:	781b      	ldrb	r3, [r3, #0]
 800513c:	009b      	lsls	r3, r3, #2
 800513e:	441a      	add	r2, r3
 8005140:	f8b7 30a8 	ldrh.w	r3, [r7, #168]	; 0xa8
 8005144:	f043 437f 	orr.w	r3, r3, #4278190080	; 0xff000000
 8005148:	f443 037f 	orr.w	r3, r3, #16711680	; 0xff0000
 800514c:	f443 4301 	orr.w	r3, r3, #33024	; 0x8100
 8005150:	f043 0380 	orr.w	r3, r3, #128	; 0x80
 8005154:	b29b      	uxth	r3, r3
 8005156:	8013      	strh	r3, [r2, #0]
 8005158:	463b      	mov	r3, r7
 800515a:	681b      	ldr	r3, [r3, #0]
 800515c:	6a1a      	ldr	r2, [r3, #32]
 800515e:	f8d7 312c 	ldr.w	r3, [r7, #300]	; 0x12c
 8005162:	1ad2      	subs	r2, r2, r3
 8005164:	463b      	mov	r3, r7
 8005166:	681b      	ldr	r3, [r3, #0]
 8005168:	621a      	str	r2, [r3, #32]
 800516a:	1d3b      	adds	r3, r7, #4
 800516c:	681a      	ldr	r2, [r3, #0]
 800516e:	463b      	mov	r3, r7
 8005170:	681b      	ldr	r3, [r3, #0]
 8005172:	781b      	ldrb	r3, [r3, #0]
 8005174:	009b      	lsls	r3, r3, #2
 8005176:	4413      	add	r3, r2
 8005178:	881b      	ldrh	r3, [r3, #0]
 800517a:	b29b      	uxth	r3, r3
 800517c:	f003 0340 	and.w	r3, r3, #64	; 0x40
 8005180:	2b00      	cmp	r3, #0
 8005182:	f000 8162 	beq.w	800544a <USB_EPStartXfer+0xb0e>
 8005186:	1d3b      	adds	r3, r7, #4
 8005188:	681b      	ldr	r3, [r3, #0]
 800518a:	f8c7 3080 	str.w	r3, [r7, #128]	; 0x80
 800518e:	463b      	mov	r3, r7
 8005190:	681b      	ldr	r3, [r3, #0]
 8005192:	785b      	ldrb	r3, [r3, #1]
 8005194:	2b00      	cmp	r3, #0
 8005196:	d164      	bne.n	8005262 <USB_EPStartXfer+0x926>
 8005198:	1d3b      	adds	r3, r7, #4
 800519a:	681b      	ldr	r3, [r3, #0]
 800519c:	67bb      	str	r3, [r7, #120]	; 0x78
 800519e:	1d3b      	adds	r3, r7, #4
 80051a0:	681b      	ldr	r3, [r3, #0]
 80051a2:	f8b3 3050 	ldrh.w	r3, [r3, #80]	; 0x50
 80051a6:	b29b      	uxth	r3, r3
 80051a8:	461a      	mov	r2, r3
 80051aa:	6fbb      	ldr	r3, [r7, #120]	; 0x78
 80051ac:	4413      	add	r3, r2
 80051ae:	67bb      	str	r3, [r7, #120]	; 0x78
 80051b0:	463b      	mov	r3, r7
 80051b2:	681b      	ldr	r3, [r3, #0]
 80051b4:	781b      	ldrb	r3, [r3, #0]
 80051b6:	011a      	lsls	r2, r3, #4
 80051b8:	6fbb      	ldr	r3, [r7, #120]	; 0x78
 80051ba:	4413      	add	r3, r2
 80051bc:	f203 430c 	addw	r3, r3, #1036	; 0x40c
 80051c0:	677b      	str	r3, [r7, #116]	; 0x74
 80051c2:	f8d7 312c 	ldr.w	r3, [r7, #300]	; 0x12c
 80051c6:	2b00      	cmp	r3, #0
 80051c8:	d112      	bne.n	80051f0 <USB_EPStartXfer+0x8b4>
 80051ca:	6f7b      	ldr	r3, [r7, #116]	; 0x74
 80051cc:	881b      	ldrh	r3, [r3, #0]
 80051ce:	b29b      	uxth	r3, r3
 80051d0:	f423 43f8 	bic.w	r3, r3, #31744	; 0x7c00
 80051d4:	b29a      	uxth	r2, r3
 80051d6:	6f7b      	ldr	r3, [r7, #116]	; 0x74
 80051d8:	801a      	strh	r2, [r3, #0]
 80051da:	6f7b      	ldr	r3, [r7, #116]	; 0x74
 80051dc:	881b      	ldrh	r3, [r3, #0]
 80051de:	b29b      	uxth	r3, r3
 80051e0:	ea6f 4343 	mvn.w	r3, r3, lsl #17
 80051e4:	ea6f 4353 	mvn.w	r3, r3, lsr #17
 80051e8:	b29a      	uxth	r2, r3
 80051ea:	6f7b      	ldr	r3, [r7, #116]	; 0x74
 80051ec:	801a      	strh	r2, [r3, #0]
 80051ee:	e057      	b.n	80052a0 <USB_EPStartXfer+0x964>
 80051f0:	f8d7 312c 	ldr.w	r3, [r7, #300]	; 0x12c
 80051f4:	2b3e      	cmp	r3, #62	; 0x3e
 80051f6:	d817      	bhi.n	8005228 <USB_EPStartXfer+0x8ec>
 80051f8:	f8d7 312c 	ldr.w	r3, [r7, #300]	; 0x12c
 80051fc:	085b      	lsrs	r3, r3, #1
 80051fe:	f8c7 3118 	str.w	r3, [r7, #280]	; 0x118
 8005202:	f8d7 312c 	ldr.w	r3, [r7, #300]	; 0x12c
 8005206:	f003 0301 	and.w	r3, r3, #1
 800520a:	2b00      	cmp	r3, #0
 800520c:	d004      	beq.n	8005218 <USB_EPStartXfer+0x8dc>
 800520e:	f8d7 3118 	ldr.w	r3, [r7, #280]	; 0x118
 8005212:	3301      	adds	r3, #1
 8005214:	f8c7 3118 	str.w	r3, [r7, #280]	; 0x118
 8005218:	f8d7 3118 	ldr.w	r3, [r7, #280]	; 0x118
 800521c:	b29b      	uxth	r3, r3
 800521e:	029b      	lsls	r3, r3, #10
 8005220:	b29a      	uxth	r2, r3
 8005222:	6f7b      	ldr	r3, [r7, #116]	; 0x74
 8005224:	801a      	strh	r2, [r3, #0]
 8005226:	e03b      	b.n	80052a0 <USB_EPStartXfer+0x964>
 8005228:	f8d7 312c 	ldr.w	r3, [r7, #300]	; 0x12c
 800522c:	095b      	lsrs	r3, r3, #5
 800522e:	f8c7 3118 	str.w	r3, [r7, #280]	; 0x118
 8005232:	f8d7 312c 	ldr.w	r3, [r7, #300]	; 0x12c
 8005236:	f003 031f 	and.w	r3, r3, #31
 800523a:	2b00      	cmp	r3, #0
 800523c:	d104      	bne.n	8005248 <USB_EPStartXfer+0x90c>
 800523e:	f8d7 3118 	ldr.w	r3, [r7, #280]	; 0x118
 8005242:	3b01      	subs	r3, #1
 8005244:	f8c7 3118 	str.w	r3, [r7, #280]	; 0x118
 8005248:	f8d7 3118 	ldr.w	r3, [r7, #280]	; 0x118
 800524c:	b29b      	uxth	r3, r3
 800524e:	029b      	lsls	r3, r3, #10
 8005250:	b29b      	uxth	r3, r3
 8005252:	ea6f 4343 	mvn.w	r3, r3, lsl #17
 8005256:	ea6f 4353 	mvn.w	r3, r3, lsr #17
 800525a:	b29a      	uxth	r2, r3
 800525c:	6f7b      	ldr	r3, [r7, #116]	; 0x74
 800525e:	801a      	strh	r2, [r3, #0]
 8005260:	e01e      	b.n	80052a0 <USB_EPStartXfer+0x964>
 8005262:	463b      	mov	r3, r7
 8005264:	681b      	ldr	r3, [r3, #0]
 8005266:	785b      	ldrb	r3, [r3, #1]
 8005268:	2b01      	cmp	r3, #1
 800526a:	d119      	bne.n	80052a0 <USB_EPStartXfer+0x964>
 800526c:	1d3b      	adds	r3, r7, #4
 800526e:	681b      	ldr	r3, [r3, #0]
 8005270:	f8b3 3050 	ldrh.w	r3, [r3, #80]	; 0x50
 8005274:	b29b      	uxth	r3, r3
 8005276:	461a      	mov	r2, r3
 8005278:	f8d7 3080 	ldr.w	r3, [r7, #128]	; 0x80
 800527c:	4413      	add	r3, r2
 800527e:	f8c7 3080 	str.w	r3, [r7, #128]	; 0x80
 8005282:	463b      	mov	r3, r7
 8005284:	681b      	ldr	r3, [r3, #0]
 8005286:	781b      	ldrb	r3, [r3, #0]
 8005288:	011a      	lsls	r2, r3, #4
 800528a:	f8d7 3080 	ldr.w	r3, [r7, #128]	; 0x80
 800528e:	4413      	add	r3, r2
 8005290:	f203 430c 	addw	r3, r3, #1036	; 0x40c
 8005294:	67fb      	str	r3, [r7, #124]	; 0x7c
 8005296:	f8d7 312c 	ldr.w	r3, [r7, #300]	; 0x12c
 800529a:	b29a      	uxth	r2, r3
 800529c:	6ffb      	ldr	r3, [r7, #124]	; 0x7c
 800529e:	801a      	strh	r2, [r3, #0]
 80052a0:	463b      	mov	r3, r7
 80052a2:	681b      	ldr	r3, [r3, #0]
 80052a4:	895b      	ldrh	r3, [r3, #10]
 80052a6:	f8a7 3096 	strh.w	r3, [r7, #150]	; 0x96
 80052aa:	463b      	mov	r3, r7
 80052ac:	681b      	ldr	r3, [r3, #0]
 80052ae:	6959      	ldr	r1, [r3, #20]
 80052b0:	f8d7 312c 	ldr.w	r3, [r7, #300]	; 0x12c
 80052b4:	b29b      	uxth	r3, r3
 80052b6:	f8b7 2096 	ldrh.w	r2, [r7, #150]	; 0x96
 80052ba:	1d38      	adds	r0, r7, #4
 80052bc:	6800      	ldr	r0, [r0, #0]
 80052be:	f000 ff72 	bl	80061a6 <USB_WritePMA>
 80052c2:	463b      	mov	r3, r7
 80052c4:	681b      	ldr	r3, [r3, #0]
 80052c6:	695a      	ldr	r2, [r3, #20]
 80052c8:	f8d7 312c 	ldr.w	r3, [r7, #300]	; 0x12c
 80052cc:	441a      	add	r2, r3
 80052ce:	463b      	mov	r3, r7
 80052d0:	681b      	ldr	r3, [r3, #0]
 80052d2:	615a      	str	r2, [r3, #20]
 80052d4:	463b      	mov	r3, r7
 80052d6:	681b      	ldr	r3, [r3, #0]
 80052d8:	6a1a      	ldr	r2, [r3, #32]
 80052da:	463b      	mov	r3, r7
 80052dc:	681b      	ldr	r3, [r3, #0]
 80052de:	691b      	ldr	r3, [r3, #16]
 80052e0:	429a      	cmp	r2, r3
 80052e2:	d909      	bls.n	80052f8 <USB_EPStartXfer+0x9bc>
 80052e4:	463b      	mov	r3, r7
 80052e6:	681b      	ldr	r3, [r3, #0]
 80052e8:	6a1a      	ldr	r2, [r3, #32]
 80052ea:	f8d7 312c 	ldr.w	r3, [r7, #300]	; 0x12c
 80052ee:	1ad2      	subs	r2, r2, r3
 80052f0:	463b      	mov	r3, r7
 80052f2:	681b      	ldr	r3, [r3, #0]
 80052f4:	621a      	str	r2, [r3, #32]
 80052f6:	e008      	b.n	800530a <USB_EPStartXfer+0x9ce>
 80052f8:	463b      	mov	r3, r7
 80052fa:	681b      	ldr	r3, [r3, #0]
 80052fc:	6a1b      	ldr	r3, [r3, #32]
 80052fe:	f8c7 312c 	str.w	r3, [r7, #300]	; 0x12c
 8005302:	463b      	mov	r3, r7
 8005304:	681b      	ldr	r3, [r3, #0]
 8005306:	2200      	movs	r2, #0
 8005308:	621a      	str	r2, [r3, #32]
 800530a:	f8d7 312c 	ldr.w	r3, [r7, #300]	; 0x12c
 800530e:	2b00      	cmp	r3, #0
 8005310:	f000 821a 	beq.w	8005748 <USB_EPStartXfer+0xe0c>
 8005314:	463b      	mov	r3, r7
 8005316:	681b      	ldr	r3, [r3, #0]
 8005318:	785b      	ldrb	r3, [r3, #1]
 800531a:	2b00      	cmp	r3, #0
 800531c:	d164      	bne.n	80053e8 <USB_EPStartXfer+0xaac>
 800531e:	1d3b      	adds	r3, r7, #4
 8005320:	681b      	ldr	r3, [r3, #0]
 8005322:	66bb      	str	r3, [r7, #104]	; 0x68
 8005324:	1d3b      	adds	r3, r7, #4
 8005326:	681b      	ldr	r3, [r3, #0]
 8005328:	f8b3 3050 	ldrh.w	r3, [r3, #80]	; 0x50
 800532c:	b29b      	uxth	r3, r3
 800532e:	461a      	mov	r2, r3
 8005330:	6ebb      	ldr	r3, [r7, #104]	; 0x68
 8005332:	4413      	add	r3, r2
 8005334:	66bb      	str	r3, [r7, #104]	; 0x68
 8005336:	463b      	mov	r3, r7
 8005338:	681b      	ldr	r3, [r3, #0]
 800533a:	781b      	ldrb	r3, [r3, #0]
 800533c:	011a      	lsls	r2, r3, #4
 800533e:	6ebb      	ldr	r3, [r7, #104]	; 0x68
 8005340:	4413      	add	r3, r2
 8005342:	f203 4304 	addw	r3, r3, #1028	; 0x404
 8005346:	667b      	str	r3, [r7, #100]	; 0x64
 8005348:	f8d7 312c 	ldr.w	r3, [r7, #300]	; 0x12c
 800534c:	2b00      	cmp	r3, #0
 800534e:	d112      	bne.n	8005376 <USB_EPStartXfer+0xa3a>
 8005350:	6e7b      	ldr	r3, [r7, #100]	; 0x64
 8005352:	881b      	ldrh	r3, [r3, #0]
 8005354:	b29b      	uxth	r3, r3
 8005356:	f423 43f8 	bic.w	r3, r3, #31744	; 0x7c00
 800535a:	b29a      	uxth	r2, r3
 800535c:	6e7b      	ldr	r3, [r7, #100]	; 0x64
 800535e:	801a      	strh	r2, [r3, #0]
 8005360:	6e7b      	ldr	r3, [r7, #100]	; 0x64
 8005362:	881b      	ldrh	r3, [r3, #0]
 8005364:	b29b      	uxth	r3, r3
 8005366:	ea6f 4343 	mvn.w	r3, r3, lsl #17
 800536a:	ea6f 4353 	mvn.w	r3, r3, lsr #17
 800536e:	b29a      	uxth	r2, r3
 8005370:	6e7b      	ldr	r3, [r7, #100]	; 0x64
 8005372:	801a      	strh	r2, [r3, #0]
 8005374:	e057      	b.n	8005426 <USB_EPStartXfer+0xaea>
 8005376:	f8d7 312c 	ldr.w	r3, [r7, #300]	; 0x12c
 800537a:	2b3e      	cmp	r3, #62	; 0x3e
 800537c:	d817      	bhi.n	80053ae <USB_EPStartXfer+0xa72>
 800537e:	f8d7 312c 	ldr.w	r3, [r7, #300]	; 0x12c
 8005382:	085b      	lsrs	r3, r3, #1
 8005384:	f8c7 3114 	str.w	r3, [r7, #276]	; 0x114
 8005388:	f8d7 312c 	ldr.w	r3, [r7, #300]	; 0x12c
 800538c:	f003 0301 	and.w	r3, r3, #1
 8005390:	2b00      	cmp	r3, #0
 8005392:	d004      	beq.n	800539e <USB_EPStartXfer+0xa62>
 8005394:	f8d7 3114 	ldr.w	r3, [r7, #276]	; 0x114
 8005398:	3301      	adds	r3, #1
 800539a:	f8c7 3114 	str.w	r3, [r7, #276]	; 0x114
 800539e:	f8d7 3114 	ldr.w	r3, [r7, #276]	; 0x114
 80053a2:	b29b      	uxth	r3, r3
 80053a4:	029b      	lsls	r3, r3, #10
 80053a6:	b29a      	uxth	r2, r3
 80053a8:	6e7b      	ldr	r3, [r7, #100]	; 0x64
 80053aa:	801a      	strh	r2, [r3, #0]
 80053ac:	e03b      	b.n	8005426 <USB_EPStartXfer+0xaea>
 80053ae:	f8d7 312c 	ldr.w	r3, [r7, #300]	; 0x12c
 80053b2:	095b      	lsrs	r3, r3, #5
 80053b4:	f8c7 3114 	str.w	r3, [r7, #276]	; 0x114
 80053b8:	f8d7 312c 	ldr.w	r3, [r7, #300]	; 0x12c
 80053bc:	f003 031f 	and.w	r3, r3, #31
 80053c0:	2b00      	cmp	r3, #0
 80053c2:	d104      	bne.n	80053ce <USB_EPStartXfer+0xa92>
 80053c4:	f8d7 3114 	ldr.w	r3, [r7, #276]	; 0x114
 80053c8:	3b01      	subs	r3, #1
 80053ca:	f8c7 3114 	str.w	r3, [r7, #276]	; 0x114
 80053ce:	f8d7 3114 	ldr.w	r3, [r7, #276]	; 0x114
 80053d2:	b29b      	uxth	r3, r3
 80053d4:	029b      	lsls	r3, r3, #10
 80053d6:	b29b      	uxth	r3, r3
 80053d8:	ea6f 4343 	mvn.w	r3, r3, lsl #17
 80053dc:	ea6f 4353 	mvn.w	r3, r3, lsr #17
 80053e0:	b29a      	uxth	r2, r3
 80053e2:	6e7b      	ldr	r3, [r7, #100]	; 0x64
 80053e4:	801a      	strh	r2, [r3, #0]
 80053e6:	e01e      	b.n	8005426 <USB_EPStartXfer+0xaea>
 80053e8:	463b      	mov	r3, r7
 80053ea:	681b      	ldr	r3, [r3, #0]
 80053ec:	785b      	ldrb	r3, [r3, #1]
 80053ee:	2b01      	cmp	r3, #1
 80053f0:	d119      	bne.n	8005426 <USB_EPStartXfer+0xaea>
 80053f2:	1d3b      	adds	r3, r7, #4
 80053f4:	681b      	ldr	r3, [r3, #0]
 80053f6:	673b      	str	r3, [r7, #112]	; 0x70
 80053f8:	1d3b      	adds	r3, r7, #4
 80053fa:	681b      	ldr	r3, [r3, #0]
 80053fc:	f8b3 3050 	ldrh.w	r3, [r3, #80]	; 0x50
 8005400:	b29b      	uxth	r3, r3
 8005402:	461a      	mov	r2, r3
 8005404:	6f3b      	ldr	r3, [r7, #112]	; 0x70
 8005406:	4413      	add	r3, r2
 8005408:	673b      	str	r3, [r7, #112]	; 0x70
 800540a:	463b      	mov	r3, r7
 800540c:	681b      	ldr	r3, [r3, #0]
 800540e:	781b      	ldrb	r3, [r3, #0]
 8005410:	011a      	lsls	r2, r3, #4
 8005412:	6f3b      	ldr	r3, [r7, #112]	; 0x70
 8005414:	4413      	add	r3, r2
 8005416:	f203 4304 	addw	r3, r3, #1028	; 0x404
 800541a:	66fb      	str	r3, [r7, #108]	; 0x6c
 800541c:	f8d7 312c 	ldr.w	r3, [r7, #300]	; 0x12c
 8005420:	b29a      	uxth	r2, r3
 8005422:	6efb      	ldr	r3, [r7, #108]	; 0x6c
 8005424:	801a      	strh	r2, [r3, #0]
 8005426:	463b      	mov	r3, r7
 8005428:	681b      	ldr	r3, [r3, #0]
 800542a:	891b      	ldrh	r3, [r3, #8]
 800542c:	f8a7 3096 	strh.w	r3, [r7, #150]	; 0x96
 8005430:	463b      	mov	r3, r7
 8005432:	681b      	ldr	r3, [r3, #0]
 8005434:	6959      	ldr	r1, [r3, #20]
 8005436:	f8d7 312c 	ldr.w	r3, [r7, #300]	; 0x12c
 800543a:	b29b      	uxth	r3, r3
 800543c:	f8b7 2096 	ldrh.w	r2, [r7, #150]	; 0x96
 8005440:	1d38      	adds	r0, r7, #4
 8005442:	6800      	ldr	r0, [r0, #0]
 8005444:	f000 feaf 	bl	80061a6 <USB_WritePMA>
 8005448:	e17e      	b.n	8005748 <USB_EPStartXfer+0xe0c>
 800544a:	463b      	mov	r3, r7
 800544c:	681b      	ldr	r3, [r3, #0]
 800544e:	785b      	ldrb	r3, [r3, #1]
 8005450:	2b00      	cmp	r3, #0
 8005452:	d16f      	bne.n	8005534 <USB_EPStartXfer+0xbf8>
 8005454:	1d3b      	adds	r3, r7, #4
 8005456:	681b      	ldr	r3, [r3, #0]
 8005458:	f8c7 309c 	str.w	r3, [r7, #156]	; 0x9c
 800545c:	1d3b      	adds	r3, r7, #4
 800545e:	681b      	ldr	r3, [r3, #0]
 8005460:	f8b3 3050 	ldrh.w	r3, [r3, #80]	; 0x50
 8005464:	b29b      	uxth	r3, r3
 8005466:	461a      	mov	r2, r3
 8005468:	f8d7 309c 	ldr.w	r3, [r7, #156]	; 0x9c
 800546c:	4413      	add	r3, r2
 800546e:	f8c7 309c 	str.w	r3, [r7, #156]	; 0x9c
 8005472:	463b      	mov	r3, r7
 8005474:	681b      	ldr	r3, [r3, #0]
 8005476:	781b      	ldrb	r3, [r3, #0]
 8005478:	011a      	lsls	r2, r3, #4
 800547a:	f8d7 309c 	ldr.w	r3, [r7, #156]	; 0x9c
 800547e:	4413      	add	r3, r2
 8005480:	f203 4304 	addw	r3, r3, #1028	; 0x404
 8005484:	f8c7 3098 	str.w	r3, [r7, #152]	; 0x98
 8005488:	f8d7 312c 	ldr.w	r3, [r7, #300]	; 0x12c
 800548c:	2b00      	cmp	r3, #0
 800548e:	d116      	bne.n	80054be <USB_EPStartXfer+0xb82>
 8005490:	f8d7 3098 	ldr.w	r3, [r7, #152]	; 0x98
 8005494:	881b      	ldrh	r3, [r3, #0]
 8005496:	b29b      	uxth	r3, r3
 8005498:	f423 43f8 	bic.w	r3, r3, #31744	; 0x7c00
 800549c:	b29a      	uxth	r2, r3
 800549e:	f8d7 3098 	ldr.w	r3, [r7, #152]	; 0x98
 80054a2:	801a      	strh	r2, [r3, #0]
 80054a4:	f8d7 3098 	ldr.w	r3, [r7, #152]	; 0x98
 80054a8:	881b      	ldrh	r3, [r3, #0]
 80054aa:	b29b      	uxth	r3, r3
 80054ac:	ea6f 4343 	mvn.w	r3, r3, lsl #17
 80054b0:	ea6f 4353 	mvn.w	r3, r3, lsr #17
 80054b4:	b29a      	uxth	r2, r3
 80054b6:	f8d7 3098 	ldr.w	r3, [r7, #152]	; 0x98
 80054ba:	801a      	strh	r2, [r3, #0]
 80054bc:	e05f      	b.n	800557e <USB_EPStartXfer+0xc42>
 80054be:	f8d7 312c 	ldr.w	r3, [r7, #300]	; 0x12c
 80054c2:	2b3e      	cmp	r3, #62	; 0x3e
 80054c4:	d818      	bhi.n	80054f8 <USB_EPStartXfer+0xbbc>
 80054c6:	f8d7 312c 	ldr.w	r3, [r7, #300]	; 0x12c
 80054ca:	085b      	lsrs	r3, r3, #1
 80054cc:	f8c7 3110 	str.w	r3, [r7, #272]	; 0x110
 80054d0:	f8d7 312c 	ldr.w	r3, [r7, #300]	; 0x12c
 80054d4:	f003 0301 	and.w	r3, r3, #1
 80054d8:	2b00      	cmp	r3, #0
 80054da:	d004      	beq.n	80054e6 <USB_EPStartXfer+0xbaa>
 80054dc:	f8d7 3110 	ldr.w	r3, [r7, #272]	; 0x110
 80054e0:	3301      	adds	r3, #1
 80054e2:	f8c7 3110 	str.w	r3, [r7, #272]	; 0x110
 80054e6:	f8d7 3110 	ldr.w	r3, [r7, #272]	; 0x110
 80054ea:	b29b      	uxth	r3, r3
 80054ec:	029b      	lsls	r3, r3, #10
 80054ee:	b29a      	uxth	r2, r3
 80054f0:	f8d7 3098 	ldr.w	r3, [r7, #152]	; 0x98
 80054f4:	801a      	strh	r2, [r3, #0]
 80054f6:	e042      	b.n	800557e <USB_EPStartXfer+0xc42>
 80054f8:	f8d7 312c 	ldr.w	r3, [r7, #300]	; 0x12c
 80054fc:	095b      	lsrs	r3, r3, #5
 80054fe:	f8c7 3110 	str.w	r3, [r7, #272]	; 0x110
 8005502:	f8d7 312c 	ldr.w	r3, [r7, #300]	; 0x12c
 8005506:	f003 031f 	and.w	r3, r3, #31
 800550a:	2b00      	cmp	r3, #0
 800550c:	d104      	bne.n	8005518 <USB_EPStartXfer+0xbdc>
 800550e:	f8d7 3110 	ldr.w	r3, [r7, #272]	; 0x110
 8005512:	3b01      	subs	r3, #1
 8005514:	f8c7 3110 	str.w	r3, [r7, #272]	; 0x110
 8005518:	f8d7 3110 	ldr.w	r3, [r7, #272]	; 0x110
 800551c:	b29b      	uxth	r3, r3
 800551e:	029b      	lsls	r3, r3, #10
 8005520:	b29b      	uxth	r3, r3
 8005522:	ea6f 4343 	mvn.w	r3, r3, lsl #17
 8005526:	ea6f 4353 	mvn.w	r3, r3, lsr #17
 800552a:	b29a      	uxth	r2, r3
 800552c:	f8d7 3098 	ldr.w	r3, [r7, #152]	; 0x98
 8005530:	801a      	strh	r2, [r3, #0]
 8005532:	e024      	b.n	800557e <USB_EPStartXfer+0xc42>
 8005534:	463b      	mov	r3, r7
 8005536:	681b      	ldr	r3, [r3, #0]
 8005538:	785b      	ldrb	r3, [r3, #1]
 800553a:	2b01      	cmp	r3, #1
 800553c:	d11f      	bne.n	800557e <USB_EPStartXfer+0xc42>
 800553e:	1d3b      	adds	r3, r7, #4
 8005540:	681b      	ldr	r3, [r3, #0]
 8005542:	f8c7 30a4 	str.w	r3, [r7, #164]	; 0xa4
 8005546:	1d3b      	adds	r3, r7, #4
 8005548:	681b      	ldr	r3, [r3, #0]
 800554a:	f8b3 3050 	ldrh.w	r3, [r3, #80]	; 0x50
 800554e:	b29b      	uxth	r3, r3
 8005550:	461a      	mov	r2, r3
 8005552:	f8d7 30a4 	ldr.w	r3, [r7, #164]	; 0xa4
 8005556:	4413      	add	r3, r2
 8005558:	f8c7 30a4 	str.w	r3, [r7, #164]	; 0xa4
 800555c:	463b      	mov	r3, r7
 800555e:	681b      	ldr	r3, [r3, #0]
 8005560:	781b      	ldrb	r3, [r3, #0]
 8005562:	011a      	lsls	r2, r3, #4
 8005564:	f8d7 30a4 	ldr.w	r3, [r7, #164]	; 0xa4
 8005568:	4413      	add	r3, r2
 800556a:	f203 4304 	addw	r3, r3, #1028	; 0x404
 800556e:	f8c7 30a0 	str.w	r3, [r7, #160]	; 0xa0
 8005572:	f8d7 312c 	ldr.w	r3, [r7, #300]	; 0x12c
 8005576:	b29a      	uxth	r2, r3
 8005578:	f8d7 30a0 	ldr.w	r3, [r7, #160]	; 0xa0
 800557c:	801a      	strh	r2, [r3, #0]
 800557e:	463b      	mov	r3, r7
 8005580:	681b      	ldr	r3, [r3, #0]
 8005582:	891b      	ldrh	r3, [r3, #8]
 8005584:	f8a7 3096 	strh.w	r3, [r7, #150]	; 0x96
 8005588:	463b      	mov	r3, r7
 800558a:	681b      	ldr	r3, [r3, #0]
 800558c:	6959      	ldr	r1, [r3, #20]
 800558e:	f8d7 312c 	ldr.w	r3, [r7, #300]	; 0x12c
 8005592:	b29b      	uxth	r3, r3
 8005594:	f8b7 2096 	ldrh.w	r2, [r7, #150]	; 0x96
 8005598:	1d38      	adds	r0, r7, #4
 800559a:	6800      	ldr	r0, [r0, #0]
 800559c:	f000 fe03 	bl	80061a6 <USB_WritePMA>
 80055a0:	463b      	mov	r3, r7
 80055a2:	681b      	ldr	r3, [r3, #0]
 80055a4:	695a      	ldr	r2, [r3, #20]
 80055a6:	f8d7 312c 	ldr.w	r3, [r7, #300]	; 0x12c
 80055aa:	441a      	add	r2, r3
 80055ac:	463b      	mov	r3, r7
 80055ae:	681b      	ldr	r3, [r3, #0]
 80055b0:	615a      	str	r2, [r3, #20]
 80055b2:	463b      	mov	r3, r7
 80055b4:	681b      	ldr	r3, [r3, #0]
 80055b6:	6a1a      	ldr	r2, [r3, #32]
 80055b8:	463b      	mov	r3, r7
 80055ba:	681b      	ldr	r3, [r3, #0]
 80055bc:	691b      	ldr	r3, [r3, #16]
 80055be:	429a      	cmp	r2, r3
 80055c0:	d909      	bls.n	80055d6 <USB_EPStartXfer+0xc9a>
 80055c2:	463b      	mov	r3, r7
 80055c4:	681b      	ldr	r3, [r3, #0]
 80055c6:	6a1a      	ldr	r2, [r3, #32]
 80055c8:	f8d7 312c 	ldr.w	r3, [r7, #300]	; 0x12c
 80055cc:	1ad2      	subs	r2, r2, r3
 80055ce:	463b      	mov	r3, r7
 80055d0:	681b      	ldr	r3, [r3, #0]
 80055d2:	621a      	str	r2, [r3, #32]
 80055d4:	e008      	b.n	80055e8 <USB_EPStartXfer+0xcac>
 80055d6:	463b      	mov	r3, r7
 80055d8:	681b      	ldr	r3, [r3, #0]
 80055da:	6a1b      	ldr	r3, [r3, #32]
 80055dc:	f8c7 312c 	str.w	r3, [r7, #300]	; 0x12c
 80055e0:	463b      	mov	r3, r7
 80055e2:	681b      	ldr	r3, [r3, #0]
 80055e4:	2200      	movs	r2, #0
 80055e6:	621a      	str	r2, [r3, #32]
 80055e8:	f8d7 312c 	ldr.w	r3, [r7, #300]	; 0x12c
 80055ec:	2b00      	cmp	r3, #0
 80055ee:	f000 80ab 	beq.w	8005748 <USB_EPStartXfer+0xe0c>
 80055f2:	1d3b      	adds	r3, r7, #4
 80055f4:	681b      	ldr	r3, [r3, #0]
 80055f6:	f8c7 3090 	str.w	r3, [r7, #144]	; 0x90
 80055fa:	463b      	mov	r3, r7
 80055fc:	681b      	ldr	r3, [r3, #0]
 80055fe:	785b      	ldrb	r3, [r3, #1]
 8005600:	2b00      	cmp	r3, #0
 8005602:	d16f      	bne.n	80056e4 <USB_EPStartXfer+0xda8>
 8005604:	1d3b      	adds	r3, r7, #4
 8005606:	681b      	ldr	r3, [r3, #0]
 8005608:	f8c7 3088 	str.w	r3, [r7, #136]	; 0x88
 800560c:	1d3b      	adds	r3, r7, #4
 800560e:	681b      	ldr	r3, [r3, #0]
 8005610:	f8b3 3050 	ldrh.w	r3, [r3, #80]	; 0x50
 8005614:	b29b      	uxth	r3, r3
 8005616:	461a      	mov	r2, r3
 8005618:	f8d7 3088 	ldr.w	r3, [r7, #136]	; 0x88
 800561c:	4413      	add	r3, r2
 800561e:	f8c7 3088 	str.w	r3, [r7, #136]	; 0x88
 8005622:	463b      	mov	r3, r7
 8005624:	681b      	ldr	r3, [r3, #0]
 8005626:	781b      	ldrb	r3, [r3, #0]
 8005628:	011a      	lsls	r2, r3, #4
 800562a:	f8d7 3088 	ldr.w	r3, [r7, #136]	; 0x88
 800562e:	4413      	add	r3, r2
 8005630:	f203 430c 	addw	r3, r3, #1036	; 0x40c
 8005634:	f8c7 3084 	str.w	r3, [r7, #132]	; 0x84
 8005638:	f8d7 312c 	ldr.w	r3, [r7, #300]	; 0x12c
 800563c:	2b00      	cmp	r3, #0
 800563e:	d116      	bne.n	800566e <USB_EPStartXfer+0xd32>
 8005640:	f8d7 3084 	ldr.w	r3, [r7, #132]	; 0x84
 8005644:	881b      	ldrh	r3, [r3, #0]
 8005646:	b29b      	uxth	r3, r3
 8005648:	f423 43f8 	bic.w	r3, r3, #31744	; 0x7c00
 800564c:	b29a      	uxth	r2, r3
 800564e:	f8d7 3084 	ldr.w	r3, [r7, #132]	; 0x84
 8005652:	801a      	strh	r2, [r3, #0]
 8005654:	f8d7 3084 	ldr.w	r3, [r7, #132]	; 0x84
 8005658:	881b      	ldrh	r3, [r3, #0]
 800565a:	b29b      	uxth	r3, r3
 800565c:	ea6f 4343 	mvn.w	r3, r3, lsl #17
 8005660:	ea6f 4353 	mvn.w	r3, r3, lsr #17
 8005664:	b29a      	uxth	r2, r3
 8005666:	f8d7 3084 	ldr.w	r3, [r7, #132]	; 0x84
 800566a:	801a      	strh	r2, [r3, #0]
 800566c:	e05b      	b.n	8005726 <USB_EPStartXfer+0xdea>
 800566e:	f8d7 312c 	ldr.w	r3, [r7, #300]	; 0x12c
 8005672:	2b3e      	cmp	r3, #62	; 0x3e
 8005674:	d818      	bhi.n	80056a8 <USB_EPStartXfer+0xd6c>
 8005676:	f8d7 312c 	ldr.w	r3, [r7, #300]	; 0x12c
 800567a:	085b      	lsrs	r3, r3, #1
 800567c:	f8c7 310c 	str.w	r3, [r7, #268]	; 0x10c
 8005680:	f8d7 312c 	ldr.w	r3, [r7, #300]	; 0x12c
 8005684:	f003 0301 	and.w	r3, r3, #1
 8005688:	2b00      	cmp	r3, #0
 800568a:	d004      	beq.n	8005696 <USB_EPStartXfer+0xd5a>
 800568c:	f8d7 310c 	ldr.w	r3, [r7, #268]	; 0x10c
 8005690:	3301      	adds	r3, #1
 8005692:	f8c7 310c 	str.w	r3, [r7, #268]	; 0x10c
 8005696:	f8d7 310c 	ldr.w	r3, [r7, #268]	; 0x10c
 800569a:	b29b      	uxth	r3, r3
 800569c:	029b      	lsls	r3, r3, #10
 800569e:	b29a      	uxth	r2, r3
 80056a0:	f8d7 3084 	ldr.w	r3, [r7, #132]	; 0x84
 80056a4:	801a      	strh	r2, [r3, #0]
 80056a6:	e03e      	b.n	8005726 <USB_EPStartXfer+0xdea>
 80056a8:	f8d7 312c 	ldr.w	r3, [r7, #300]	; 0x12c
 80056ac:	095b      	lsrs	r3, r3, #5
 80056ae:	f8c7 310c 	str.w	r3, [r7, #268]	; 0x10c
 80056b2:	f8d7 312c 	ldr.w	r3, [r7, #300]	; 0x12c
 80056b6:	f003 031f 	and.w	r3, r3, #31
 80056ba:	2b00      	cmp	r3, #0
 80056bc:	d104      	bne.n	80056c8 <USB_EPStartXfer+0xd8c>
 80056be:	f8d7 310c 	ldr.w	r3, [r7, #268]	; 0x10c
 80056c2:	3b01      	subs	r3, #1
 80056c4:	f8c7 310c 	str.w	r3, [r7, #268]	; 0x10c
 80056c8:	f8d7 310c 	ldr.w	r3, [r7, #268]	; 0x10c
 80056cc:	b29b      	uxth	r3, r3
 80056ce:	029b      	lsls	r3, r3, #10
 80056d0:	b29b      	uxth	r3, r3
 80056d2:	ea6f 4343 	mvn.w	r3, r3, lsl #17
 80056d6:	ea6f 4353 	mvn.w	r3, r3, lsr #17
 80056da:	b29a      	uxth	r2, r3
 80056dc:	f8d7 3084 	ldr.w	r3, [r7, #132]	; 0x84
 80056e0:	801a      	strh	r2, [r3, #0]
 80056e2:	e020      	b.n	8005726 <USB_EPStartXfer+0xdea>
 80056e4:	463b      	mov	r3, r7
 80056e6:	681b      	ldr	r3, [r3, #0]
 80056e8:	785b      	ldrb	r3, [r3, #1]
 80056ea:	2b01      	cmp	r3, #1
 80056ec:	d11b      	bne.n	8005726 <USB_EPStartXfer+0xdea>
 80056ee:	1d3b      	adds	r3, r7, #4
 80056f0:	681b      	ldr	r3, [r3, #0]
 80056f2:	f8b3 3050 	ldrh.w	r3, [r3, #80]	; 0x50
 80056f6:	b29b      	uxth	r3, r3
 80056f8:	461a      	mov	r2, r3
 80056fa:	f8d7 3090 	ldr.w	r3, [r7, #144]	; 0x90
 80056fe:	4413      	add	r3, r2
 8005700:	f8c7 3090 	str.w	r3, [r7, #144]	; 0x90
 8005704:	463b      	mov	r3, r7
 8005706:	681b      	ldr	r3, [r3, #0]
 8005708:	781b      	ldrb	r3, [r3, #0]
 800570a:	011a      	lsls	r2, r3, #4
 800570c:	f8d7 3090 	ldr.w	r3, [r7, #144]	; 0x90
 8005710:	4413      	add	r3, r2
 8005712:	f203 430c 	addw	r3, r3, #1036	; 0x40c
 8005716:	f8c7 308c 	str.w	r3, [r7, #140]	; 0x8c
 800571a:	f8d7 312c 	ldr.w	r3, [r7, #300]	; 0x12c
 800571e:	b29a      	uxth	r2, r3
 8005720:	f8d7 308c 	ldr.w	r3, [r7, #140]	; 0x8c
 8005724:	801a      	strh	r2, [r3, #0]
 8005726:	463b      	mov	r3, r7
 8005728:	681b      	ldr	r3, [r3, #0]
 800572a:	895b      	ldrh	r3, [r3, #10]
 800572c:	f8a7 3096 	strh.w	r3, [r7, #150]	; 0x96
 8005730:	463b      	mov	r3, r7
 8005732:	681b      	ldr	r3, [r3, #0]
 8005734:	6959      	ldr	r1, [r3, #20]
 8005736:	f8d7 312c 	ldr.w	r3, [r7, #300]	; 0x12c
 800573a:	b29b      	uxth	r3, r3
 800573c:	f8b7 2096 	ldrh.w	r2, [r7, #150]	; 0x96
 8005740:	1d38      	adds	r0, r7, #4
 8005742:	6800      	ldr	r0, [r0, #0]
 8005744:	f000 fd2f 	bl	80061a6 <USB_WritePMA>
 8005748:	1d3b      	adds	r3, r7, #4
 800574a:	681a      	ldr	r2, [r3, #0]
 800574c:	463b      	mov	r3, r7
 800574e:	681b      	ldr	r3, [r3, #0]
 8005750:	781b      	ldrb	r3, [r3, #0]
 8005752:	009b      	lsls	r3, r3, #2
 8005754:	4413      	add	r3, r2
 8005756:	881b      	ldrh	r3, [r3, #0]
 8005758:	b29b      	uxth	r3, r3
 800575a:	f107 020a 	add.w	r2, r7, #10
 800575e:	f423 43e0 	bic.w	r3, r3, #28672	; 0x7000
 8005762:	f023 0340 	bic.w	r3, r3, #64	; 0x40
 8005766:	8013      	strh	r3, [r2, #0]
 8005768:	f107 030a 	add.w	r3, r7, #10
 800576c:	f107 020a 	add.w	r2, r7, #10
 8005770:	8812      	ldrh	r2, [r2, #0]
 8005772:	f082 0210 	eor.w	r2, r2, #16
 8005776:	801a      	strh	r2, [r3, #0]
 8005778:	f107 030a 	add.w	r3, r7, #10
 800577c:	f107 020a 	add.w	r2, r7, #10
 8005780:	8812      	ldrh	r2, [r2, #0]
 8005782:	f082 0220 	eor.w	r2, r2, #32
 8005786:	801a      	strh	r2, [r3, #0]
 8005788:	1d3b      	adds	r3, r7, #4
 800578a:	681a      	ldr	r2, [r3, #0]
 800578c:	463b      	mov	r3, r7
 800578e:	681b      	ldr	r3, [r3, #0]
 8005790:	781b      	ldrb	r3, [r3, #0]
 8005792:	009b      	lsls	r3, r3, #2
 8005794:	441a      	add	r2, r3
 8005796:	f107 030a 	add.w	r3, r7, #10
 800579a:	881b      	ldrh	r3, [r3, #0]
 800579c:	f043 437f 	orr.w	r3, r3, #4278190080	; 0xff000000
 80057a0:	f443 037f 	orr.w	r3, r3, #16711680	; 0xff0000
 80057a4:	f443 4300 	orr.w	r3, r3, #32768	; 0x8000
 80057a8:	f043 0380 	orr.w	r3, r3, #128	; 0x80
 80057ac:	b29b      	uxth	r3, r3
 80057ae:	8013      	strh	r3, [r2, #0]
 80057b0:	e3b5      	b.n	8005f1e <USB_EPStartXfer+0x15e2>
 80057b2:	463b      	mov	r3, r7
 80057b4:	681b      	ldr	r3, [r3, #0]
 80057b6:	7b1b      	ldrb	r3, [r3, #12]
 80057b8:	2b00      	cmp	r3, #0
 80057ba:	f040 8090 	bne.w	80058de <USB_EPStartXfer+0xfa2>
 80057be:	463b      	mov	r3, r7
 80057c0:	681b      	ldr	r3, [r3, #0]
 80057c2:	699a      	ldr	r2, [r3, #24]
 80057c4:	463b      	mov	r3, r7
 80057c6:	681b      	ldr	r3, [r3, #0]
 80057c8:	691b      	ldr	r3, [r3, #16]
 80057ca:	429a      	cmp	r2, r3
 80057cc:	d90e      	bls.n	80057ec <USB_EPStartXfer+0xeb0>
 80057ce:	463b      	mov	r3, r7
 80057d0:	681b      	ldr	r3, [r3, #0]
 80057d2:	691b      	ldr	r3, [r3, #16]
 80057d4:	f8c7 312c 	str.w	r3, [r7, #300]	; 0x12c
 80057d8:	463b      	mov	r3, r7
 80057da:	681b      	ldr	r3, [r3, #0]
 80057dc:	699a      	ldr	r2, [r3, #24]
 80057de:	f8d7 312c 	ldr.w	r3, [r7, #300]	; 0x12c
 80057e2:	1ad2      	subs	r2, r2, r3
 80057e4:	463b      	mov	r3, r7
 80057e6:	681b      	ldr	r3, [r3, #0]
 80057e8:	619a      	str	r2, [r3, #24]
 80057ea:	e008      	b.n	80057fe <USB_EPStartXfer+0xec2>
 80057ec:	463b      	mov	r3, r7
 80057ee:	681b      	ldr	r3, [r3, #0]
 80057f0:	699b      	ldr	r3, [r3, #24]
 80057f2:	f8c7 312c 	str.w	r3, [r7, #300]	; 0x12c
 80057f6:	463b      	mov	r3, r7
 80057f8:	681b      	ldr	r3, [r3, #0]
 80057fa:	2200      	movs	r2, #0
 80057fc:	619a      	str	r2, [r3, #24]
 80057fe:	1d3b      	adds	r3, r7, #4
 8005800:	681b      	ldr	r3, [r3, #0]
 8005802:	f8c7 30b0 	str.w	r3, [r7, #176]	; 0xb0
 8005806:	1d3b      	adds	r3, r7, #4
 8005808:	681b      	ldr	r3, [r3, #0]
 800580a:	f8b3 3050 	ldrh.w	r3, [r3, #80]	; 0x50
 800580e:	b29b      	uxth	r3, r3
 8005810:	461a      	mov	r2, r3
 8005812:	f8d7 30b0 	ldr.w	r3, [r7, #176]	; 0xb0
 8005816:	4413      	add	r3, r2
 8005818:	f8c7 30b0 	str.w	r3, [r7, #176]	; 0xb0
 800581c:	463b      	mov	r3, r7
 800581e:	681b      	ldr	r3, [r3, #0]
 8005820:	781b      	ldrb	r3, [r3, #0]
 8005822:	011a      	lsls	r2, r3, #4
 8005824:	f8d7 30b0 	ldr.w	r3, [r7, #176]	; 0xb0
 8005828:	4413      	add	r3, r2
 800582a:	f203 430c 	addw	r3, r3, #1036	; 0x40c
 800582e:	f8c7 30ac 	str.w	r3, [r7, #172]	; 0xac
 8005832:	f8d7 312c 	ldr.w	r3, [r7, #300]	; 0x12c
 8005836:	2b00      	cmp	r3, #0
 8005838:	d116      	bne.n	8005868 <USB_EPStartXfer+0xf2c>
 800583a:	f8d7 30ac 	ldr.w	r3, [r7, #172]	; 0xac
 800583e:	881b      	ldrh	r3, [r3, #0]
 8005840:	b29b      	uxth	r3, r3
 8005842:	f423 43f8 	bic.w	r3, r3, #31744	; 0x7c00
 8005846:	b29a      	uxth	r2, r3
 8005848:	f8d7 30ac 	ldr.w	r3, [r7, #172]	; 0xac
 800584c:	801a      	strh	r2, [r3, #0]
 800584e:	f8d7 30ac 	ldr.w	r3, [r7, #172]	; 0xac
 8005852:	881b      	ldrh	r3, [r3, #0]
 8005854:	b29b      	uxth	r3, r3
 8005856:	ea6f 4343 	mvn.w	r3, r3, lsl #17
 800585a:	ea6f 4353 	mvn.w	r3, r3, lsr #17
 800585e:	b29a      	uxth	r2, r3
 8005860:	f8d7 30ac 	ldr.w	r3, [r7, #172]	; 0xac
 8005864:	801a      	strh	r2, [r3, #0]
 8005866:	e32c      	b.n	8005ec2 <USB_EPStartXfer+0x1586>
 8005868:	f8d7 312c 	ldr.w	r3, [r7, #300]	; 0x12c
 800586c:	2b3e      	cmp	r3, #62	; 0x3e
 800586e:	d818      	bhi.n	80058a2 <USB_EPStartXfer+0xf66>
 8005870:	f8d7 312c 	ldr.w	r3, [r7, #300]	; 0x12c
 8005874:	085b      	lsrs	r3, r3, #1
 8005876:	f8c7 3108 	str.w	r3, [r7, #264]	; 0x108
 800587a:	f8d7 312c 	ldr.w	r3, [r7, #300]	; 0x12c
 800587e:	f003 0301 	and.w	r3, r3, #1
 8005882:	2b00      	cmp	r3, #0
 8005884:	d004      	beq.n	8005890 <USB_EPStartXfer+0xf54>
 8005886:	f8d7 3108 	ldr.w	r3, [r7, #264]	; 0x108
 800588a:	3301      	adds	r3, #1
 800588c:	f8c7 3108 	str.w	r3, [r7, #264]	; 0x108
 8005890:	f8d7 3108 	ldr.w	r3, [r7, #264]	; 0x108
 8005894:	b29b      	uxth	r3, r3
 8005896:	029b      	lsls	r3, r3, #10
 8005898:	b29a      	uxth	r2, r3
 800589a:	f8d7 30ac 	ldr.w	r3, [r7, #172]	; 0xac
 800589e:	801a      	strh	r2, [r3, #0]
 80058a0:	e30f      	b.n	8005ec2 <USB_EPStartXfer+0x1586>
 80058a2:	f8d7 312c 	ldr.w	r3, [r7, #300]	; 0x12c
 80058a6:	095b      	lsrs	r3, r3, #5
 80058a8:	f8c7 3108 	str.w	r3, [r7, #264]	; 0x108
 80058ac:	f8d7 312c 	ldr.w	r3, [r7, #300]	; 0x12c
 80058b0:	f003 031f 	and.w	r3, r3, #31
 80058b4:	2b00      	cmp	r3, #0
 80058b6:	d104      	bne.n	80058c2 <USB_EPStartXfer+0xf86>
 80058b8:	f8d7 3108 	ldr.w	r3, [r7, #264]	; 0x108
 80058bc:	3b01      	subs	r3, #1
 80058be:	f8c7 3108 	str.w	r3, [r7, #264]	; 0x108
 80058c2:	f8d7 3108 	ldr.w	r3, [r7, #264]	; 0x108
 80058c6:	b29b      	uxth	r3, r3
 80058c8:	029b      	lsls	r3, r3, #10
 80058ca:	b29b      	uxth	r3, r3
 80058cc:	ea6f 4343 	mvn.w	r3, r3, lsl #17
 80058d0:	ea6f 4353 	mvn.w	r3, r3, lsr #17
 80058d4:	b29a      	uxth	r2, r3
 80058d6:	f8d7 30ac 	ldr.w	r3, [r7, #172]	; 0xac
 80058da:	801a      	strh	r2, [r3, #0]
 80058dc:	e2f1      	b.n	8005ec2 <USB_EPStartXfer+0x1586>
 80058de:	463b      	mov	r3, r7
 80058e0:	681b      	ldr	r3, [r3, #0]
 80058e2:	78db      	ldrb	r3, [r3, #3]
 80058e4:	2b02      	cmp	r3, #2
 80058e6:	f040 818f 	bne.w	8005c08 <USB_EPStartXfer+0x12cc>
 80058ea:	463b      	mov	r3, r7
 80058ec:	681b      	ldr	r3, [r3, #0]
 80058ee:	785b      	ldrb	r3, [r3, #1]
 80058f0:	2b00      	cmp	r3, #0
 80058f2:	d175      	bne.n	80059e0 <USB_EPStartXfer+0x10a4>
 80058f4:	1d3b      	adds	r3, r7, #4
 80058f6:	681b      	ldr	r3, [r3, #0]
 80058f8:	f8c7 30cc 	str.w	r3, [r7, #204]	; 0xcc
 80058fc:	1d3b      	adds	r3, r7, #4
 80058fe:	681b      	ldr	r3, [r3, #0]
 8005900:	f8b3 3050 	ldrh.w	r3, [r3, #80]	; 0x50
 8005904:	b29b      	uxth	r3, r3
 8005906:	461a      	mov	r2, r3
 8005908:	f8d7 30cc 	ldr.w	r3, [r7, #204]	; 0xcc
 800590c:	4413      	add	r3, r2
 800590e:	f8c7 30cc 	str.w	r3, [r7, #204]	; 0xcc
 8005912:	463b      	mov	r3, r7
 8005914:	681b      	ldr	r3, [r3, #0]
 8005916:	781b      	ldrb	r3, [r3, #0]
 8005918:	011a      	lsls	r2, r3, #4
 800591a:	f8d7 30cc 	ldr.w	r3, [r7, #204]	; 0xcc
 800591e:	4413      	add	r3, r2
 8005920:	f203 4304 	addw	r3, r3, #1028	; 0x404
 8005924:	f8c7 30c8 	str.w	r3, [r7, #200]	; 0xc8
 8005928:	463b      	mov	r3, r7
 800592a:	681b      	ldr	r3, [r3, #0]
 800592c:	691b      	ldr	r3, [r3, #16]
 800592e:	2b00      	cmp	r3, #0
 8005930:	d116      	bne.n	8005960 <USB_EPStartXfer+0x1024>
 8005932:	f8d7 30c8 	ldr.w	r3, [r7, #200]	; 0xc8
 8005936:	881b      	ldrh	r3, [r3, #0]
 8005938:	b29b      	uxth	r3, r3
 800593a:	f423 43f8 	bic.w	r3, r3, #31744	; 0x7c00
 800593e:	b29a      	uxth	r2, r3
 8005940:	f8d7 30c8 	ldr.w	r3, [r7, #200]	; 0xc8
 8005944:	801a      	strh	r2, [r3, #0]
 8005946:	f8d7 30c8 	ldr.w	r3, [r7, #200]	; 0xc8
 800594a:	881b      	ldrh	r3, [r3, #0]
 800594c:	b29b      	uxth	r3, r3
 800594e:	ea6f 4343 	mvn.w	r3, r3, lsl #17
 8005952:	ea6f 4353 	mvn.w	r3, r3, lsr #17
 8005956:	b29a      	uxth	r2, r3
 8005958:	f8d7 30c8 	ldr.w	r3, [r7, #200]	; 0xc8
 800595c:	801a      	strh	r2, [r3, #0]
 800595e:	e065      	b.n	8005a2c <USB_EPStartXfer+0x10f0>
 8005960:	463b      	mov	r3, r7
 8005962:	681b      	ldr	r3, [r3, #0]
 8005964:	691b      	ldr	r3, [r3, #16]
 8005966:	2b3e      	cmp	r3, #62	; 0x3e
 8005968:	d81a      	bhi.n	80059a0 <USB_EPStartXfer+0x1064>
 800596a:	463b      	mov	r3, r7
 800596c:	681b      	ldr	r3, [r3, #0]
 800596e:	691b      	ldr	r3, [r3, #16]
 8005970:	085b      	lsrs	r3, r3, #1
 8005972:	f8c7 3104 	str.w	r3, [r7, #260]	; 0x104
 8005976:	463b      	mov	r3, r7
 8005978:	681b      	ldr	r3, [r3, #0]
 800597a:	691b      	ldr	r3, [r3, #16]
 800597c:	f003 0301 	and.w	r3, r3, #1
 8005980:	2b00      	cmp	r3, #0
 8005982:	d004      	beq.n	800598e <USB_EPStartXfer+0x1052>
 8005984:	f8d7 3104 	ldr.w	r3, [r7, #260]	; 0x104
 8005988:	3301      	adds	r3, #1
 800598a:	f8c7 3104 	str.w	r3, [r7, #260]	; 0x104
 800598e:	f8d7 3104 	ldr.w	r3, [r7, #260]	; 0x104
 8005992:	b29b      	uxth	r3, r3
 8005994:	029b      	lsls	r3, r3, #10
 8005996:	b29a      	uxth	r2, r3
 8005998:	f8d7 30c8 	ldr.w	r3, [r7, #200]	; 0xc8
 800599c:	801a      	strh	r2, [r3, #0]
 800599e:	e045      	b.n	8005a2c <USB_EPStartXfer+0x10f0>
 80059a0:	463b      	mov	r3, r7
 80059a2:	681b      	ldr	r3, [r3, #0]
 80059a4:	691b      	ldr	r3, [r3, #16]
 80059a6:	095b      	lsrs	r3, r3, #5
 80059a8:	f8c7 3104 	str.w	r3, [r7, #260]	; 0x104
 80059ac:	463b      	mov	r3, r7
 80059ae:	681b      	ldr	r3, [r3, #0]
 80059b0:	691b      	ldr	r3, [r3, #16]
 80059b2:	f003 031f 	and.w	r3, r3, #31
 80059b6:	2b00      	cmp	r3, #0
 80059b8:	d104      	bne.n	80059c4 <USB_EPStartXfer+0x1088>
 80059ba:	f8d7 3104 	ldr.w	r3, [r7, #260]	; 0x104
 80059be:	3b01      	subs	r3, #1
 80059c0:	f8c7 3104 	str.w	r3, [r7, #260]	; 0x104
 80059c4:	f8d7 3104 	ldr.w	r3, [r7, #260]	; 0x104
 80059c8:	b29b      	uxth	r3, r3
 80059ca:	029b      	lsls	r3, r3, #10
 80059cc:	b29b      	uxth	r3, r3
 80059ce:	ea6f 4343 	mvn.w	r3, r3, lsl #17
 80059d2:	ea6f 4353 	mvn.w	r3, r3, lsr #17
 80059d6:	b29a      	uxth	r2, r3
 80059d8:	f8d7 30c8 	ldr.w	r3, [r7, #200]	; 0xc8
 80059dc:	801a      	strh	r2, [r3, #0]
 80059de:	e025      	b.n	8005a2c <USB_EPStartXfer+0x10f0>
 80059e0:	463b      	mov	r3, r7
 80059e2:	681b      	ldr	r3, [r3, #0]
 80059e4:	785b      	ldrb	r3, [r3, #1]
 80059e6:	2b01      	cmp	r3, #1
 80059e8:	d120      	bne.n	8005a2c <USB_EPStartXfer+0x10f0>
 80059ea:	1d3b      	adds	r3, r7, #4
 80059ec:	681b      	ldr	r3, [r3, #0]
 80059ee:	f8c7 30d4 	str.w	r3, [r7, #212]	; 0xd4
 80059f2:	1d3b      	adds	r3, r7, #4
 80059f4:	681b      	ldr	r3, [r3, #0]
 80059f6:	f8b3 3050 	ldrh.w	r3, [r3, #80]	; 0x50
 80059fa:	b29b      	uxth	r3, r3
 80059fc:	461a      	mov	r2, r3
 80059fe:	f8d7 30d4 	ldr.w	r3, [r7, #212]	; 0xd4
 8005a02:	4413      	add	r3, r2
 8005a04:	f8c7 30d4 	str.w	r3, [r7, #212]	; 0xd4
 8005a08:	463b      	mov	r3, r7
 8005a0a:	681b      	ldr	r3, [r3, #0]
 8005a0c:	781b      	ldrb	r3, [r3, #0]
 8005a0e:	011a      	lsls	r2, r3, #4
 8005a10:	f8d7 30d4 	ldr.w	r3, [r7, #212]	; 0xd4
 8005a14:	4413      	add	r3, r2
 8005a16:	f203 4304 	addw	r3, r3, #1028	; 0x404
 8005a1a:	f8c7 30d0 	str.w	r3, [r7, #208]	; 0xd0
 8005a1e:	463b      	mov	r3, r7
 8005a20:	681b      	ldr	r3, [r3, #0]
 8005a22:	691b      	ldr	r3, [r3, #16]
 8005a24:	b29a      	uxth	r2, r3
 8005a26:	f8d7 30d0 	ldr.w	r3, [r7, #208]	; 0xd0
 8005a2a:	801a      	strh	r2, [r3, #0]
 8005a2c:	1d3b      	adds	r3, r7, #4
 8005a2e:	681b      	ldr	r3, [r3, #0]
 8005a30:	f8c7 30c4 	str.w	r3, [r7, #196]	; 0xc4
 8005a34:	463b      	mov	r3, r7
 8005a36:	681b      	ldr	r3, [r3, #0]
 8005a38:	785b      	ldrb	r3, [r3, #1]
 8005a3a:	2b00      	cmp	r3, #0
 8005a3c:	d175      	bne.n	8005b2a <USB_EPStartXfer+0x11ee>
 8005a3e:	1d3b      	adds	r3, r7, #4
 8005a40:	681b      	ldr	r3, [r3, #0]
 8005a42:	f8c7 30bc 	str.w	r3, [r7, #188]	; 0xbc
 8005a46:	1d3b      	adds	r3, r7, #4
 8005a48:	681b      	ldr	r3, [r3, #0]
 8005a4a:	f8b3 3050 	ldrh.w	r3, [r3, #80]	; 0x50
 8005a4e:	b29b      	uxth	r3, r3
 8005a50:	461a      	mov	r2, r3
 8005a52:	f8d7 30bc 	ldr.w	r3, [r7, #188]	; 0xbc
 8005a56:	4413      	add	r3, r2
 8005a58:	f8c7 30bc 	str.w	r3, [r7, #188]	; 0xbc
 8005a5c:	463b      	mov	r3, r7
 8005a5e:	681b      	ldr	r3, [r3, #0]
 8005a60:	781b      	ldrb	r3, [r3, #0]
 8005a62:	011a      	lsls	r2, r3, #4
 8005a64:	f8d7 30bc 	ldr.w	r3, [r7, #188]	; 0xbc
 8005a68:	4413      	add	r3, r2
 8005a6a:	f203 430c 	addw	r3, r3, #1036	; 0x40c
 8005a6e:	f8c7 30b8 	str.w	r3, [r7, #184]	; 0xb8
 8005a72:	463b      	mov	r3, r7
 8005a74:	681b      	ldr	r3, [r3, #0]
 8005a76:	691b      	ldr	r3, [r3, #16]
 8005a78:	2b00      	cmp	r3, #0
 8005a7a:	d116      	bne.n	8005aaa <USB_EPStartXfer+0x116e>
 8005a7c:	f8d7 30b8 	ldr.w	r3, [r7, #184]	; 0xb8
 8005a80:	881b      	ldrh	r3, [r3, #0]
 8005a82:	b29b      	uxth	r3, r3
 8005a84:	f423 43f8 	bic.w	r3, r3, #31744	; 0x7c00
 8005a88:	b29a      	uxth	r2, r3
 8005a8a:	f8d7 30b8 	ldr.w	r3, [r7, #184]	; 0xb8
 8005a8e:	801a      	strh	r2, [r3, #0]
 8005a90:	f8d7 30b8 	ldr.w	r3, [r7, #184]	; 0xb8
 8005a94:	881b      	ldrh	r3, [r3, #0]
 8005a96:	b29b      	uxth	r3, r3
 8005a98:	ea6f 4343 	mvn.w	r3, r3, lsl #17
 8005a9c:	ea6f 4353 	mvn.w	r3, r3, lsr #17
 8005aa0:	b29a      	uxth	r2, r3
 8005aa2:	f8d7 30b8 	ldr.w	r3, [r7, #184]	; 0xb8
 8005aa6:	801a      	strh	r2, [r3, #0]
 8005aa8:	e061      	b.n	8005b6e <USB_EPStartXfer+0x1232>
 8005aaa:	463b      	mov	r3, r7
 8005aac:	681b      	ldr	r3, [r3, #0]
 8005aae:	691b      	ldr	r3, [r3, #16]
 8005ab0:	2b3e      	cmp	r3, #62	; 0x3e
 8005ab2:	d81a      	bhi.n	8005aea <USB_EPStartXfer+0x11ae>
 8005ab4:	463b      	mov	r3, r7
 8005ab6:	681b      	ldr	r3, [r3, #0]
 8005ab8:	691b      	ldr	r3, [r3, #16]
 8005aba:	085b      	lsrs	r3, r3, #1
 8005abc:	f8c7 3100 	str.w	r3, [r7, #256]	; 0x100
 8005ac0:	463b      	mov	r3, r7
 8005ac2:	681b      	ldr	r3, [r3, #0]
 8005ac4:	691b      	ldr	r3, [r3, #16]
 8005ac6:	f003 0301 	and.w	r3, r3, #1
 8005aca:	2b00      	cmp	r3, #0
 8005acc:	d004      	beq.n	8005ad8 <USB_EPStartXfer+0x119c>
 8005ace:	f8d7 3100 	ldr.w	r3, [r7, #256]	; 0x100
 8005ad2:	3301      	adds	r3, #1
 8005ad4:	f8c7 3100 	str.w	r3, [r7, #256]	; 0x100
 8005ad8:	f8d7 3100 	ldr.w	r3, [r7, #256]	; 0x100
 8005adc:	b29b      	uxth	r3, r3
 8005ade:	029b      	lsls	r3, r3, #10
 8005ae0:	b29a      	uxth	r2, r3
 8005ae2:	f8d7 30b8 	ldr.w	r3, [r7, #184]	; 0xb8
 8005ae6:	801a      	strh	r2, [r3, #0]
 8005ae8:	e041      	b.n	8005b6e <USB_EPStartXfer+0x1232>
 8005aea:	463b      	mov	r3, r7
 8005aec:	681b      	ldr	r3, [r3, #0]
 8005aee:	691b      	ldr	r3, [r3, #16]
 8005af0:	095b      	lsrs	r3, r3, #5
 8005af2:	f8c7 3100 	str.w	r3, [r7, #256]	; 0x100
 8005af6:	463b      	mov	r3, r7
 8005af8:	681b      	ldr	r3, [r3, #0]
 8005afa:	691b      	ldr	r3, [r3, #16]
 8005afc:	f003 031f 	and.w	r3, r3, #31
 8005b00:	2b00      	cmp	r3, #0
 8005b02:	d104      	bne.n	8005b0e <USB_EPStartXfer+0x11d2>
 8005b04:	f8d7 3100 	ldr.w	r3, [r7, #256]	; 0x100
 8005b08:	3b01      	subs	r3, #1
 8005b0a:	f8c7 3100 	str.w	r3, [r7, #256]	; 0x100
 8005b0e:	f8d7 3100 	ldr.w	r3, [r7, #256]	; 0x100
 8005b12:	b29b      	uxth	r3, r3
 8005b14:	029b      	lsls	r3, r3, #10
 8005b16:	b29b      	uxth	r3, r3
 8005b18:	ea6f 4343 	mvn.w	r3, r3, lsl #17
 8005b1c:	ea6f 4353 	mvn.w	r3, r3, lsr #17
 8005b20:	b29a      	uxth	r2, r3
 8005b22:	f8d7 30b8 	ldr.w	r3, [r7, #184]	; 0xb8
 8005b26:	801a      	strh	r2, [r3, #0]
 8005b28:	e021      	b.n	8005b6e <USB_EPStartXfer+0x1232>
 8005b2a:	463b      	mov	r3, r7
 8005b2c:	681b      	ldr	r3, [r3, #0]
 8005b2e:	785b      	ldrb	r3, [r3, #1]
 8005b30:	2b01      	cmp	r3, #1
 8005b32:	d11c      	bne.n	8005b6e <USB_EPStartXfer+0x1232>
 8005b34:	1d3b      	adds	r3, r7, #4
 8005b36:	681b      	ldr	r3, [r3, #0]
 8005b38:	f8b3 3050 	ldrh.w	r3, [r3, #80]	; 0x50
 8005b3c:	b29b      	uxth	r3, r3
 8005b3e:	461a      	mov	r2, r3
 8005b40:	f8d7 30c4 	ldr.w	r3, [r7, #196]	; 0xc4
 8005b44:	4413      	add	r3, r2
 8005b46:	f8c7 30c4 	str.w	r3, [r7, #196]	; 0xc4
 8005b4a:	463b      	mov	r3, r7
 8005b4c:	681b      	ldr	r3, [r3, #0]
 8005b4e:	781b      	ldrb	r3, [r3, #0]
 8005b50:	011a      	lsls	r2, r3, #4
 8005b52:	f8d7 30c4 	ldr.w	r3, [r7, #196]	; 0xc4
 8005b56:	4413      	add	r3, r2
 8005b58:	f203 430c 	addw	r3, r3, #1036	; 0x40c
 8005b5c:	f8c7 30c0 	str.w	r3, [r7, #192]	; 0xc0
 8005b60:	463b      	mov	r3, r7
 8005b62:	681b      	ldr	r3, [r3, #0]
 8005b64:	691b      	ldr	r3, [r3, #16]
 8005b66:	b29a      	uxth	r2, r3
 8005b68:	f8d7 30c0 	ldr.w	r3, [r7, #192]	; 0xc0
 8005b6c:	801a      	strh	r2, [r3, #0]
 8005b6e:	463b      	mov	r3, r7
 8005b70:	681b      	ldr	r3, [r3, #0]
 8005b72:	69db      	ldr	r3, [r3, #28]
 8005b74:	2b00      	cmp	r3, #0
 8005b76:	f000 81a4 	beq.w	8005ec2 <USB_EPStartXfer+0x1586>
 8005b7a:	1d3b      	adds	r3, r7, #4
 8005b7c:	681a      	ldr	r2, [r3, #0]
 8005b7e:	463b      	mov	r3, r7
 8005b80:	681b      	ldr	r3, [r3, #0]
 8005b82:	781b      	ldrb	r3, [r3, #0]
 8005b84:	009b      	lsls	r3, r3, #2
 8005b86:	4413      	add	r3, r2
 8005b88:	881b      	ldrh	r3, [r3, #0]
 8005b8a:	f8a7 30b6 	strh.w	r3, [r7, #182]	; 0xb6
 8005b8e:	f8b7 30b6 	ldrh.w	r3, [r7, #182]	; 0xb6
 8005b92:	f403 4380 	and.w	r3, r3, #16384	; 0x4000
 8005b96:	2b00      	cmp	r3, #0
 8005b98:	d005      	beq.n	8005ba6 <USB_EPStartXfer+0x126a>
 8005b9a:	f8b7 30b6 	ldrh.w	r3, [r7, #182]	; 0xb6
 8005b9e:	f003 0340 	and.w	r3, r3, #64	; 0x40
 8005ba2:	2b00      	cmp	r3, #0
 8005ba4:	d10d      	bne.n	8005bc2 <USB_EPStartXfer+0x1286>
 8005ba6:	f8b7 30b6 	ldrh.w	r3, [r7, #182]	; 0xb6
 8005baa:	f403 4380 	and.w	r3, r3, #16384	; 0x4000
 8005bae:	2b00      	cmp	r3, #0
 8005bb0:	f040 8187 	bne.w	8005ec2 <USB_EPStartXfer+0x1586>
 8005bb4:	f8b7 30b6 	ldrh.w	r3, [r7, #182]	; 0xb6
 8005bb8:	f003 0340 	and.w	r3, r3, #64	; 0x40
 8005bbc:	2b00      	cmp	r3, #0
 8005bbe:	f040 8180 	bne.w	8005ec2 <USB_EPStartXfer+0x1586>
 8005bc2:	1d3b      	adds	r3, r7, #4
 8005bc4:	681a      	ldr	r2, [r3, #0]
 8005bc6:	463b      	mov	r3, r7
 8005bc8:	681b      	ldr	r3, [r3, #0]
 8005bca:	781b      	ldrb	r3, [r3, #0]
 8005bcc:	009b      	lsls	r3, r3, #2
 8005bce:	4413      	add	r3, r2
 8005bd0:	881b      	ldrh	r3, [r3, #0]
 8005bd2:	b29b      	uxth	r3, r3
 8005bd4:	f423 43e0 	bic.w	r3, r3, #28672	; 0x7000
 8005bd8:	f023 0370 	bic.w	r3, r3, #112	; 0x70
 8005bdc:	f8a7 30b4 	strh.w	r3, [r7, #180]	; 0xb4
 8005be0:	1d3b      	adds	r3, r7, #4
 8005be2:	681a      	ldr	r2, [r3, #0]
 8005be4:	463b      	mov	r3, r7
 8005be6:	681b      	ldr	r3, [r3, #0]
 8005be8:	781b      	ldrb	r3, [r3, #0]
 8005bea:	009b      	lsls	r3, r3, #2
 8005bec:	441a      	add	r2, r3
 8005bee:	f8b7 30b4 	ldrh.w	r3, [r7, #180]	; 0xb4
 8005bf2:	f043 437f 	orr.w	r3, r3, #4278190080	; 0xff000000
 8005bf6:	f443 037f 	orr.w	r3, r3, #16711680	; 0xff0000
 8005bfa:	f443 4300 	orr.w	r3, r3, #32768	; 0x8000
 8005bfe:	f043 03c0 	orr.w	r3, r3, #192	; 0xc0
 8005c02:	b29b      	uxth	r3, r3
 8005c04:	8013      	strh	r3, [r2, #0]
 8005c06:	e15c      	b.n	8005ec2 <USB_EPStartXfer+0x1586>
 8005c08:	463b      	mov	r3, r7
 8005c0a:	681b      	ldr	r3, [r3, #0]
 8005c0c:	78db      	ldrb	r3, [r3, #3]
 8005c0e:	2b01      	cmp	r3, #1
 8005c10:	f040 8155 	bne.w	8005ebe <USB_EPStartXfer+0x1582>
 8005c14:	463b      	mov	r3, r7
 8005c16:	681b      	ldr	r3, [r3, #0]
 8005c18:	699a      	ldr	r2, [r3, #24]
 8005c1a:	463b      	mov	r3, r7
 8005c1c:	681b      	ldr	r3, [r3, #0]
 8005c1e:	691b      	ldr	r3, [r3, #16]
 8005c20:	429a      	cmp	r2, r3
 8005c22:	d90e      	bls.n	8005c42 <USB_EPStartXfer+0x1306>
 8005c24:	463b      	mov	r3, r7
 8005c26:	681b      	ldr	r3, [r3, #0]
 8005c28:	691b      	ldr	r3, [r3, #16]
 8005c2a:	f8c7 312c 	str.w	r3, [r7, #300]	; 0x12c
 8005c2e:	463b      	mov	r3, r7
 8005c30:	681b      	ldr	r3, [r3, #0]
 8005c32:	699a      	ldr	r2, [r3, #24]
 8005c34:	f8d7 312c 	ldr.w	r3, [r7, #300]	; 0x12c
 8005c38:	1ad2      	subs	r2, r2, r3
 8005c3a:	463b      	mov	r3, r7
 8005c3c:	681b      	ldr	r3, [r3, #0]
 8005c3e:	619a      	str	r2, [r3, #24]
 8005c40:	e008      	b.n	8005c54 <USB_EPStartXfer+0x1318>
 8005c42:	463b      	mov	r3, r7
 8005c44:	681b      	ldr	r3, [r3, #0]
 8005c46:	699b      	ldr	r3, [r3, #24]
 8005c48:	f8c7 312c 	str.w	r3, [r7, #300]	; 0x12c
 8005c4c:	463b      	mov	r3, r7
 8005c4e:	681b      	ldr	r3, [r3, #0]
 8005c50:	2200      	movs	r2, #0
 8005c52:	619a      	str	r2, [r3, #24]
 8005c54:	463b      	mov	r3, r7
 8005c56:	681b      	ldr	r3, [r3, #0]
 8005c58:	785b      	ldrb	r3, [r3, #1]
 8005c5a:	2b00      	cmp	r3, #0
 8005c5c:	d16f      	bne.n	8005d3e <USB_EPStartXfer+0x1402>
 8005c5e:	1d3b      	adds	r3, r7, #4
 8005c60:	681b      	ldr	r3, [r3, #0]
 8005c62:	f8c7 30ec 	str.w	r3, [r7, #236]	; 0xec
 8005c66:	1d3b      	adds	r3, r7, #4
 8005c68:	681b      	ldr	r3, [r3, #0]
 8005c6a:	f8b3 3050 	ldrh.w	r3, [r3, #80]	; 0x50
 8005c6e:	b29b      	uxth	r3, r3
 8005c70:	461a      	mov	r2, r3
 8005c72:	f8d7 30ec 	ldr.w	r3, [r7, #236]	; 0xec
 8005c76:	4413      	add	r3, r2
 8005c78:	f8c7 30ec 	str.w	r3, [r7, #236]	; 0xec
 8005c7c:	463b      	mov	r3, r7
 8005c7e:	681b      	ldr	r3, [r3, #0]
 8005c80:	781b      	ldrb	r3, [r3, #0]
 8005c82:	011a      	lsls	r2, r3, #4
 8005c84:	f8d7 30ec 	ldr.w	r3, [r7, #236]	; 0xec
 8005c88:	4413      	add	r3, r2
 8005c8a:	f203 4304 	addw	r3, r3, #1028	; 0x404
 8005c8e:	f8c7 30e8 	str.w	r3, [r7, #232]	; 0xe8
 8005c92:	f8d7 312c 	ldr.w	r3, [r7, #300]	; 0x12c
 8005c96:	2b00      	cmp	r3, #0
 8005c98:	d116      	bne.n	8005cc8 <USB_EPStartXfer+0x138c>
 8005c9a:	f8d7 30e8 	ldr.w	r3, [r7, #232]	; 0xe8
 8005c9e:	881b      	ldrh	r3, [r3, #0]
 8005ca0:	b29b      	uxth	r3, r3
 8005ca2:	f423 43f8 	bic.w	r3, r3, #31744	; 0x7c00
 8005ca6:	b29a      	uxth	r2, r3
 8005ca8:	f8d7 30e8 	ldr.w	r3, [r7, #232]	; 0xe8
 8005cac:	801a      	strh	r2, [r3, #0]
 8005cae:	f8d7 30e8 	ldr.w	r3, [r7, #232]	; 0xe8
 8005cb2:	881b      	ldrh	r3, [r3, #0]
 8005cb4:	b29b      	uxth	r3, r3
 8005cb6:	ea6f 4343 	mvn.w	r3, r3, lsl #17
 8005cba:	ea6f 4353 	mvn.w	r3, r3, lsr #17
 8005cbe:	b29a      	uxth	r2, r3
 8005cc0:	f8d7 30e8 	ldr.w	r3, [r7, #232]	; 0xe8
 8005cc4:	801a      	strh	r2, [r3, #0]
 8005cc6:	e05f      	b.n	8005d88 <USB_EPStartXfer+0x144c>
 8005cc8:	f8d7 312c 	ldr.w	r3, [r7, #300]	; 0x12c
 8005ccc:	2b3e      	cmp	r3, #62	; 0x3e
 8005cce:	d818      	bhi.n	8005d02 <USB_EPStartXfer+0x13c6>
 8005cd0:	f8d7 312c 	ldr.w	r3, [r7, #300]	; 0x12c
 8005cd4:	085b      	lsrs	r3, r3, #1
 8005cd6:	f8c7 30fc 	str.w	r3, [r7, #252]	; 0xfc
 8005cda:	f8d7 312c 	ldr.w	r3, [r7, #300]	; 0x12c
 8005cde:	f003 0301 	and.w	r3, r3, #1
 8005ce2:	2b00      	cmp	r3, #0
 8005ce4:	d004      	beq.n	8005cf0 <USB_EPStartXfer+0x13b4>
 8005ce6:	f8d7 30fc 	ldr.w	r3, [r7, #252]	; 0xfc
 8005cea:	3301      	adds	r3, #1
 8005cec:	f8c7 30fc 	str.w	r3, [r7, #252]	; 0xfc
 8005cf0:	f8d7 30fc 	ldr.w	r3, [r7, #252]	; 0xfc
 8005cf4:	b29b      	uxth	r3, r3
 8005cf6:	029b      	lsls	r3, r3, #10
 8005cf8:	b29a      	uxth	r2, r3
 8005cfa:	f8d7 30e8 	ldr.w	r3, [r7, #232]	; 0xe8
 8005cfe:	801a      	strh	r2, [r3, #0]
 8005d00:	e042      	b.n	8005d88 <USB_EPStartXfer+0x144c>
 8005d02:	f8d7 312c 	ldr.w	r3, [r7, #300]	; 0x12c
 8005d06:	095b      	lsrs	r3, r3, #5
 8005d08:	f8c7 30fc 	str.w	r3, [r7, #252]	; 0xfc
 8005d0c:	f8d7 312c 	ldr.w	r3, [r7, #300]	; 0x12c
 8005d10:	f003 031f 	and.w	r3, r3, #31
 8005d14:	2b00      	cmp	r3, #0
 8005d16:	d104      	bne.n	8005d22 <USB_EPStartXfer+0x13e6>
 8005d18:	f8d7 30fc 	ldr.w	r3, [r7, #252]	; 0xfc
 8005d1c:	3b01      	subs	r3, #1
 8005d1e:	f8c7 30fc 	str.w	r3, [r7, #252]	; 0xfc
 8005d22:	f8d7 30fc 	ldr.w	r3, [r7, #252]	; 0xfc
 8005d26:	b29b      	uxth	r3, r3
 8005d28:	029b      	lsls	r3, r3, #10
 8005d2a:	b29b      	uxth	r3, r3
 8005d2c:	ea6f 4343 	mvn.w	r3, r3, lsl #17
 8005d30:	ea6f 4353 	mvn.w	r3, r3, lsr #17
 8005d34:	b29a      	uxth	r2, r3
 8005d36:	f8d7 30e8 	ldr.w	r3, [r7, #232]	; 0xe8
 8005d3a:	801a      	strh	r2, [r3, #0]
 8005d3c:	e024      	b.n	8005d88 <USB_EPStartXfer+0x144c>
 8005d3e:	463b      	mov	r3, r7
 8005d40:	681b      	ldr	r3, [r3, #0]
 8005d42:	785b      	ldrb	r3, [r3, #1]
 8005d44:	2b01      	cmp	r3, #1
 8005d46:	d11f      	bne.n	8005d88 <USB_EPStartXfer+0x144c>
 8005d48:	1d3b      	adds	r3, r7, #4
 8005d4a:	681b      	ldr	r3, [r3, #0]
 8005d4c:	f8c7 30f4 	str.w	r3, [r7, #244]	; 0xf4
 8005d50:	1d3b      	adds	r3, r7, #4
 8005d52:	681b      	ldr	r3, [r3, #0]
 8005d54:	f8b3 3050 	ldrh.w	r3, [r3, #80]	; 0x50
 8005d58:	b29b      	uxth	r3, r3
 8005d5a:	461a      	mov	r2, r3
 8005d5c:	f8d7 30f4 	ldr.w	r3, [r7, #244]	; 0xf4
 8005d60:	4413      	add	r3, r2
 8005d62:	f8c7 30f4 	str.w	r3, [r7, #244]	; 0xf4
 8005d66:	463b      	mov	r3, r7
 8005d68:	681b      	ldr	r3, [r3, #0]
 8005d6a:	781b      	ldrb	r3, [r3, #0]
 8005d6c:	011a      	lsls	r2, r3, #4
 8005d6e:	f8d7 30f4 	ldr.w	r3, [r7, #244]	; 0xf4
 8005d72:	4413      	add	r3, r2
 8005d74:	f203 4304 	addw	r3, r3, #1028	; 0x404
 8005d78:	f8c7 30f0 	str.w	r3, [r7, #240]	; 0xf0
 8005d7c:	f8d7 312c 	ldr.w	r3, [r7, #300]	; 0x12c
 8005d80:	b29a      	uxth	r2, r3
 8005d82:	f8d7 30f0 	ldr.w	r3, [r7, #240]	; 0xf0
 8005d86:	801a      	strh	r2, [r3, #0]
 8005d88:	1d3b      	adds	r3, r7, #4
 8005d8a:	681b      	ldr	r3, [r3, #0]
 8005d8c:	f8c7 30e4 	str.w	r3, [r7, #228]	; 0xe4
 8005d90:	463b      	mov	r3, r7
 8005d92:	681b      	ldr	r3, [r3, #0]
 8005d94:	785b      	ldrb	r3, [r3, #1]
 8005d96:	2b00      	cmp	r3, #0
 8005d98:	d16f      	bne.n	8005e7a <USB_EPStartXfer+0x153e>
 8005d9a:	1d3b      	adds	r3, r7, #4
 8005d9c:	681b      	ldr	r3, [r3, #0]
 8005d9e:	f8c7 30dc 	str.w	r3, [r7, #220]	; 0xdc
 8005da2:	1d3b      	adds	r3, r7, #4
 8005da4:	681b      	ldr	r3, [r3, #0]
 8005da6:	f8b3 3050 	ldrh.w	r3, [r3, #80]	; 0x50
 8005daa:	b29b      	uxth	r3, r3
 8005dac:	461a      	mov	r2, r3
 8005dae:	f8d7 30dc 	ldr.w	r3, [r7, #220]	; 0xdc
 8005db2:	4413      	add	r3, r2
 8005db4:	f8c7 30dc 	str.w	r3, [r7, #220]	; 0xdc
 8005db8:	463b      	mov	r3, r7
 8005dba:	681b      	ldr	r3, [r3, #0]
 8005dbc:	781b      	ldrb	r3, [r3, #0]
 8005dbe:	011a      	lsls	r2, r3, #4
 8005dc0:	f8d7 30dc 	ldr.w	r3, [r7, #220]	; 0xdc
 8005dc4:	4413      	add	r3, r2
 8005dc6:	f203 430c 	addw	r3, r3, #1036	; 0x40c
 8005dca:	f8c7 30d8 	str.w	r3, [r7, #216]	; 0xd8
 8005dce:	f8d7 312c 	ldr.w	r3, [r7, #300]	; 0x12c
 8005dd2:	2b00      	cmp	r3, #0
 8005dd4:	d116      	bne.n	8005e04 <USB_EPStartXfer+0x14c8>
 8005dd6:	f8d7 30d8 	ldr.w	r3, [r7, #216]	; 0xd8
 8005dda:	881b      	ldrh	r3, [r3, #0]
 8005ddc:	b29b      	uxth	r3, r3
 8005dde:	f423 43f8 	bic.w	r3, r3, #31744	; 0x7c00
 8005de2:	b29a      	uxth	r2, r3
 8005de4:	f8d7 30d8 	ldr.w	r3, [r7, #216]	; 0xd8
 8005de8:	801a      	strh	r2, [r3, #0]
 8005dea:	f8d7 30d8 	ldr.w	r3, [r7, #216]	; 0xd8
 8005dee:	881b      	ldrh	r3, [r3, #0]
 8005df0:	b29b      	uxth	r3, r3
 8005df2:	ea6f 4343 	mvn.w	r3, r3, lsl #17
 8005df6:	ea6f 4353 	mvn.w	r3, r3, lsr #17
 8005dfa:	b29a      	uxth	r2, r3
 8005dfc:	f8d7 30d8 	ldr.w	r3, [r7, #216]	; 0xd8
 8005e00:	801a      	strh	r2, [r3, #0]
 8005e02:	e05e      	b.n	8005ec2 <USB_EPStartXfer+0x1586>
 8005e04:	f8d7 312c 	ldr.w	r3, [r7, #300]	; 0x12c
 8005e08:	2b3e      	cmp	r3, #62	; 0x3e
 8005e0a:	d818      	bhi.n	8005e3e <USB_EPStartXfer+0x1502>
 8005e0c:	f8d7 312c 	ldr.w	r3, [r7, #300]	; 0x12c
 8005e10:	085b      	lsrs	r3, r3, #1
 8005e12:	f8c7 30f8 	str.w	r3, [r7, #248]	; 0xf8
 8005e16:	f8d7 312c 	ldr.w	r3, [r7, #300]	; 0x12c
 8005e1a:	f003 0301 	and.w	r3, r3, #1
 8005e1e:	2b00      	cmp	r3, #0
 8005e20:	d004      	beq.n	8005e2c <USB_EPStartXfer+0x14f0>
 8005e22:	f8d7 30f8 	ldr.w	r3, [r7, #248]	; 0xf8
 8005e26:	3301      	adds	r3, #1
 8005e28:	f8c7 30f8 	str.w	r3, [r7, #248]	; 0xf8
 8005e2c:	f8d7 30f8 	ldr.w	r3, [r7, #248]	; 0xf8
 8005e30:	b29b      	uxth	r3, r3
 8005e32:	029b      	lsls	r3, r3, #10
 8005e34:	b29a      	uxth	r2, r3
 8005e36:	f8d7 30d8 	ldr.w	r3, [r7, #216]	; 0xd8
 8005e3a:	801a      	strh	r2, [r3, #0]
 8005e3c:	e041      	b.n	8005ec2 <USB_EPStartXfer+0x1586>
 8005e3e:	f8d7 312c 	ldr.w	r3, [r7, #300]	; 0x12c
 8005e42:	095b      	lsrs	r3, r3, #5
 8005e44:	f8c7 30f8 	str.w	r3, [r7, #248]	; 0xf8
 8005e48:	f8d7 312c 	ldr.w	r3, [r7, #300]	; 0x12c
 8005e4c:	f003 031f 	and.w	r3, r3, #31
 8005e50:	2b00      	cmp	r3, #0
 8005e52:	d104      	bne.n	8005e5e <USB_EPStartXfer+0x1522>
 8005e54:	f8d7 30f8 	ldr.w	r3, [r7, #248]	; 0xf8
 8005e58:	3b01      	subs	r3, #1
 8005e5a:	f8c7 30f8 	str.w	r3, [r7, #248]	; 0xf8
 8005e5e:	f8d7 30f8 	ldr.w	r3, [r7, #248]	; 0xf8
 8005e62:	b29b      	uxth	r3, r3
 8005e64:	029b      	lsls	r3, r3, #10
 8005e66:	b29b      	uxth	r3, r3
 8005e68:	ea6f 4343 	mvn.w	r3, r3, lsl #17
 8005e6c:	ea6f 4353 	mvn.w	r3, r3, lsr #17
 8005e70:	b29a      	uxth	r2, r3
 8005e72:	f8d7 30d8 	ldr.w	r3, [r7, #216]	; 0xd8
 8005e76:	801a      	strh	r2, [r3, #0]
 8005e78:	e023      	b.n	8005ec2 <USB_EPStartXfer+0x1586>
 8005e7a:	463b      	mov	r3, r7
 8005e7c:	681b      	ldr	r3, [r3, #0]
 8005e7e:	785b      	ldrb	r3, [r3, #1]
 8005e80:	2b01      	cmp	r3, #1
 8005e82:	d11e      	bne.n	8005ec2 <USB_EPStartXfer+0x1586>
 8005e84:	1d3b      	adds	r3, r7, #4
 8005e86:	681b      	ldr	r3, [r3, #0]
 8005e88:	f8b3 3050 	ldrh.w	r3, [r3, #80]	; 0x50
 8005e8c:	b29b      	uxth	r3, r3
 8005e8e:	461a      	mov	r2, r3
 8005e90:	f8d7 30e4 	ldr.w	r3, [r7, #228]	; 0xe4
 8005e94:	4413      	add	r3, r2
 8005e96:	f8c7 30e4 	str.w	r3, [r7, #228]	; 0xe4
 8005e9a:	463b      	mov	r3, r7
 8005e9c:	681b      	ldr	r3, [r3, #0]
 8005e9e:	781b      	ldrb	r3, [r3, #0]
 8005ea0:	011a      	lsls	r2, r3, #4
 8005ea2:	f8d7 30e4 	ldr.w	r3, [r7, #228]	; 0xe4
 8005ea6:	4413      	add	r3, r2
 8005ea8:	f203 430c 	addw	r3, r3, #1036	; 0x40c
 8005eac:	f8c7 30e0 	str.w	r3, [r7, #224]	; 0xe0
 8005eb0:	f8d7 312c 	ldr.w	r3, [r7, #300]	; 0x12c
 8005eb4:	b29a      	uxth	r2, r3
 8005eb6:	f8d7 30e0 	ldr.w	r3, [r7, #224]	; 0xe0
 8005eba:	801a      	strh	r2, [r3, #0]
 8005ebc:	e001      	b.n	8005ec2 <USB_EPStartXfer+0x1586>
 8005ebe:	2301      	movs	r3, #1
 8005ec0:	e02e      	b.n	8005f20 <USB_EPStartXfer+0x15e4>
 8005ec2:	1d3b      	adds	r3, r7, #4
 8005ec4:	681a      	ldr	r2, [r3, #0]
 8005ec6:	463b      	mov	r3, r7
 8005ec8:	681b      	ldr	r3, [r3, #0]
 8005eca:	781b      	ldrb	r3, [r3, #0]
 8005ecc:	009b      	lsls	r3, r3, #2
 8005ece:	4413      	add	r3, r2
 8005ed0:	881b      	ldrh	r3, [r3, #0]
 8005ed2:	b29b      	uxth	r3, r3
 8005ed4:	f423 4380 	bic.w	r3, r3, #16384	; 0x4000
 8005ed8:	f023 0370 	bic.w	r3, r3, #112	; 0x70
 8005edc:	f8a7 30aa 	strh.w	r3, [r7, #170]	; 0xaa
 8005ee0:	f8b7 30aa 	ldrh.w	r3, [r7, #170]	; 0xaa
 8005ee4:	f483 5380 	eor.w	r3, r3, #4096	; 0x1000
 8005ee8:	f8a7 30aa 	strh.w	r3, [r7, #170]	; 0xaa
 8005eec:	f8b7 30aa 	ldrh.w	r3, [r7, #170]	; 0xaa
 8005ef0:	f483 5300 	eor.w	r3, r3, #8192	; 0x2000
 8005ef4:	f8a7 30aa 	strh.w	r3, [r7, #170]	; 0xaa
 8005ef8:	1d3b      	adds	r3, r7, #4
 8005efa:	681a      	ldr	r2, [r3, #0]
 8005efc:	463b      	mov	r3, r7
 8005efe:	681b      	ldr	r3, [r3, #0]
 8005f00:	781b      	ldrb	r3, [r3, #0]
 8005f02:	009b      	lsls	r3, r3, #2
 8005f04:	441a      	add	r2, r3
 8005f06:	f8b7 30aa 	ldrh.w	r3, [r7, #170]	; 0xaa
 8005f0a:	f043 437f 	orr.w	r3, r3, #4278190080	; 0xff000000
 8005f0e:	f443 037f 	orr.w	r3, r3, #16711680	; 0xff0000
 8005f12:	f443 4300 	orr.w	r3, r3, #32768	; 0x8000
 8005f16:	f043 0380 	orr.w	r3, r3, #128	; 0x80
 8005f1a:	b29b      	uxth	r3, r3
 8005f1c:	8013      	strh	r3, [r2, #0]
 8005f1e:	2300      	movs	r3, #0
 8005f20:	4618      	mov	r0, r3
 8005f22:	f507 7798 	add.w	r7, r7, #304	; 0x130
 8005f26:	46bd      	mov	sp, r7
 8005f28:	bd80      	pop	{r7, pc}

08005f2a <USB_EPSetStall>:
 8005f2a:	b480      	push	{r7}
 8005f2c:	b085      	sub	sp, #20
 8005f2e:	af00      	add	r7, sp, #0
 8005f30:	6078      	str	r0, [r7, #4]
 8005f32:	6039      	str	r1, [r7, #0]
 8005f34:	683b      	ldr	r3, [r7, #0]
 8005f36:	785b      	ldrb	r3, [r3, #1]
 8005f38:	2b00      	cmp	r3, #0
 8005f3a:	d020      	beq.n	8005f7e <USB_EPSetStall+0x54>
 8005f3c:	687a      	ldr	r2, [r7, #4]
 8005f3e:	683b      	ldr	r3, [r7, #0]
 8005f40:	781b      	ldrb	r3, [r3, #0]
 8005f42:	009b      	lsls	r3, r3, #2
 8005f44:	4413      	add	r3, r2
 8005f46:	881b      	ldrh	r3, [r3, #0]
 8005f48:	b29b      	uxth	r3, r3
 8005f4a:	f423 43e0 	bic.w	r3, r3, #28672	; 0x7000
 8005f4e:	f023 0340 	bic.w	r3, r3, #64	; 0x40
 8005f52:	81bb      	strh	r3, [r7, #12]
 8005f54:	89bb      	ldrh	r3, [r7, #12]
 8005f56:	f083 0310 	eor.w	r3, r3, #16
 8005f5a:	81bb      	strh	r3, [r7, #12]
 8005f5c:	687a      	ldr	r2, [r7, #4]
 8005f5e:	683b      	ldr	r3, [r7, #0]
 8005f60:	781b      	ldrb	r3, [r3, #0]
 8005f62:	009b      	lsls	r3, r3, #2
 8005f64:	441a      	add	r2, r3
 8005f66:	89bb      	ldrh	r3, [r7, #12]
 8005f68:	f043 437f 	orr.w	r3, r3, #4278190080	; 0xff000000
 8005f6c:	f443 037f 	orr.w	r3, r3, #16711680	; 0xff0000
 8005f70:	f443 4300 	orr.w	r3, r3, #32768	; 0x8000
 8005f74:	f043 0380 	orr.w	r3, r3, #128	; 0x80
 8005f78:	b29b      	uxth	r3, r3
 8005f7a:	8013      	strh	r3, [r2, #0]
 8005f7c:	e01f      	b.n	8005fbe <USB_EPSetStall+0x94>
 8005f7e:	687a      	ldr	r2, [r7, #4]
 8005f80:	683b      	ldr	r3, [r7, #0]
 8005f82:	781b      	ldrb	r3, [r3, #0]
 8005f84:	009b      	lsls	r3, r3, #2
 8005f86:	4413      	add	r3, r2
 8005f88:	881b      	ldrh	r3, [r3, #0]
 8005f8a:	b29b      	uxth	r3, r3
 8005f8c:	f423 4380 	bic.w	r3, r3, #16384	; 0x4000
 8005f90:	f023 0370 	bic.w	r3, r3, #112	; 0x70
 8005f94:	81fb      	strh	r3, [r7, #14]
 8005f96:	89fb      	ldrh	r3, [r7, #14]
 8005f98:	f483 5380 	eor.w	r3, r3, #4096	; 0x1000
 8005f9c:	81fb      	strh	r3, [r7, #14]
 8005f9e:	687a      	ldr	r2, [r7, #4]
 8005fa0:	683b      	ldr	r3, [r7, #0]
 8005fa2:	781b      	ldrb	r3, [r3, #0]
 8005fa4:	009b      	lsls	r3, r3, #2
 8005fa6:	441a      	add	r2, r3
 8005fa8:	89fb      	ldrh	r3, [r7, #14]
 8005faa:	f043 437f 	orr.w	r3, r3, #4278190080	; 0xff000000
 8005fae:	f443 037f 	orr.w	r3, r3, #16711680	; 0xff0000
 8005fb2:	f443 4300 	orr.w	r3, r3, #32768	; 0x8000
 8005fb6:	f043 0380 	orr.w	r3, r3, #128	; 0x80
 8005fba:	b29b      	uxth	r3, r3
 8005fbc:	8013      	strh	r3, [r2, #0]
 8005fbe:	2300      	movs	r3, #0
 8005fc0:	4618      	mov	r0, r3
 8005fc2:	3714      	adds	r7, #20
 8005fc4:	46bd      	mov	sp, r7
 8005fc6:	bc80      	pop	{r7}
 8005fc8:	4770      	bx	lr

08005fca <USB_EPClearStall>:
 8005fca:	b480      	push	{r7}
 8005fcc:	b087      	sub	sp, #28
 8005fce:	af00      	add	r7, sp, #0
 8005fd0:	6078      	str	r0, [r7, #4]
 8005fd2:	6039      	str	r1, [r7, #0]
 8005fd4:	683b      	ldr	r3, [r7, #0]
 8005fd6:	7b1b      	ldrb	r3, [r3, #12]
 8005fd8:	2b00      	cmp	r3, #0
 8005fda:	f040 809d 	bne.w	8006118 <USB_EPClearStall+0x14e>
 8005fde:	683b      	ldr	r3, [r7, #0]
 8005fe0:	785b      	ldrb	r3, [r3, #1]
 8005fe2:	2b00      	cmp	r3, #0
 8005fe4:	d04c      	beq.n	8006080 <USB_EPClearStall+0xb6>
 8005fe6:	687a      	ldr	r2, [r7, #4]
 8005fe8:	683b      	ldr	r3, [r7, #0]
 8005fea:	781b      	ldrb	r3, [r3, #0]
 8005fec:	009b      	lsls	r3, r3, #2
 8005fee:	4413      	add	r3, r2
 8005ff0:	881b      	ldrh	r3, [r3, #0]
 8005ff2:	823b      	strh	r3, [r7, #16]
 8005ff4:	8a3b      	ldrh	r3, [r7, #16]
 8005ff6:	f003 0340 	and.w	r3, r3, #64	; 0x40
 8005ffa:	2b00      	cmp	r3, #0
 8005ffc:	d01b      	beq.n	8006036 <USB_EPClearStall+0x6c>
 8005ffe:	687a      	ldr	r2, [r7, #4]
 8006000:	683b      	ldr	r3, [r7, #0]
 8006002:	781b      	ldrb	r3, [r3, #0]
 8006004:	009b      	lsls	r3, r3, #2
 8006006:	4413      	add	r3, r2
 8006008:	881b      	ldrh	r3, [r3, #0]
 800600a:	b29b      	uxth	r3, r3
 800600c:	f423 43e0 	bic.w	r3, r3, #28672	; 0x7000
 8006010:	f023 0370 	bic.w	r3, r3, #112	; 0x70
 8006014:	81fb      	strh	r3, [r7, #14]
 8006016:	687a      	ldr	r2, [r7, #4]
 8006018:	683b      	ldr	r3, [r7, #0]
 800601a:	781b      	ldrb	r3, [r3, #0]
 800601c:	009b      	lsls	r3, r3, #2
 800601e:	441a      	add	r2, r3
 8006020:	89fb      	ldrh	r3, [r7, #14]
 8006022:	f043 437f 	orr.w	r3, r3, #4278190080	; 0xff000000
 8006026:	f443 037f 	orr.w	r3, r3, #16711680	; 0xff0000
 800602a:	f443 4300 	orr.w	r3, r3, #32768	; 0x8000
 800602e:	f043 03c0 	orr.w	r3, r3, #192	; 0xc0
 8006032:	b29b      	uxth	r3, r3
 8006034:	8013      	strh	r3, [r2, #0]
 8006036:	683b      	ldr	r3, [r7, #0]
 8006038:	78db      	ldrb	r3, [r3, #3]
 800603a:	2b01      	cmp	r3, #1
 800603c:	d06c      	beq.n	8006118 <USB_EPClearStall+0x14e>
 800603e:	687a      	ldr	r2, [r7, #4]
 8006040:	683b      	ldr	r3, [r7, #0]
 8006042:	781b      	ldrb	r3, [r3, #0]
 8006044:	009b      	lsls	r3, r3, #2
 8006046:	4413      	add	r3, r2
 8006048:	881b      	ldrh	r3, [r3, #0]
 800604a:	b29b      	uxth	r3, r3
 800604c:	f423 43e0 	bic.w	r3, r3, #28672	; 0x7000
 8006050:	f023 0340 	bic.w	r3, r3, #64	; 0x40
 8006054:	81bb      	strh	r3, [r7, #12]
 8006056:	89bb      	ldrh	r3, [r7, #12]
 8006058:	f083 0320 	eor.w	r3, r3, #32
 800605c:	81bb      	strh	r3, [r7, #12]
 800605e:	687a      	ldr	r2, [r7, #4]
 8006060:	683b      	ldr	r3, [r7, #0]
 8006062:	781b      	ldrb	r3, [r3, #0]
 8006064:	009b      	lsls	r3, r3, #2
 8006066:	441a      	add	r2, r3
 8006068:	89bb      	ldrh	r3, [r7, #12]
 800606a:	f043 437f 	orr.w	r3, r3, #4278190080	; 0xff000000
 800606e:	f443 037f 	orr.w	r3, r3, #16711680	; 0xff0000
 8006072:	f443 4300 	orr.w	r3, r3, #32768	; 0x8000
 8006076:	f043 0380 	orr.w	r3, r3, #128	; 0x80
 800607a:	b29b      	uxth	r3, r3
 800607c:	8013      	strh	r3, [r2, #0]
 800607e:	e04b      	b.n	8006118 <USB_EPClearStall+0x14e>
 8006080:	687a      	ldr	r2, [r7, #4]
 8006082:	683b      	ldr	r3, [r7, #0]
 8006084:	781b      	ldrb	r3, [r3, #0]
 8006086:	009b      	lsls	r3, r3, #2
 8006088:	4413      	add	r3, r2
 800608a:	881b      	ldrh	r3, [r3, #0]
 800608c:	82fb      	strh	r3, [r7, #22]
 800608e:	8afb      	ldrh	r3, [r7, #22]
 8006090:	f403 4380 	and.w	r3, r3, #16384	; 0x4000
 8006094:	2b00      	cmp	r3, #0
 8006096:	d01b      	beq.n	80060d0 <USB_EPClearStall+0x106>
 8006098:	687a      	ldr	r2, [r7, #4]
 800609a:	683b      	ldr	r3, [r7, #0]
 800609c:	781b      	ldrb	r3, [r3, #0]
 800609e:	009b      	lsls	r3, r3, #2
 80060a0:	4413      	add	r3, r2
 80060a2:	881b      	ldrh	r3, [r3, #0]
 80060a4:	b29b      	uxth	r3, r3
 80060a6:	f423 43e0 	bic.w	r3, r3, #28672	; 0x7000
 80060aa:	f023 0370 	bic.w	r3, r3, #112	; 0x70
 80060ae:	82bb      	strh	r3, [r7, #20]
 80060b0:	687a      	ldr	r2, [r7, #4]
 80060b2:	683b      	ldr	r3, [r7, #0]
 80060b4:	781b      	ldrb	r3, [r3, #0]
 80060b6:	009b      	lsls	r3, r3, #2
 80060b8:	441a      	add	r2, r3
 80060ba:	8abb      	ldrh	r3, [r7, #20]
 80060bc:	f043 437f 	orr.w	r3, r3, #4278190080	; 0xff000000
 80060c0:	f443 037f 	orr.w	r3, r3, #16711680	; 0xff0000
 80060c4:	f443 4340 	orr.w	r3, r3, #49152	; 0xc000
 80060c8:	f043 0380 	orr.w	r3, r3, #128	; 0x80
 80060cc:	b29b      	uxth	r3, r3
 80060ce:	8013      	strh	r3, [r2, #0]
 80060d0:	687a      	ldr	r2, [r7, #4]
 80060d2:	683b      	ldr	r3, [r7, #0]
 80060d4:	781b      	ldrb	r3, [r3, #0]
 80060d6:	009b      	lsls	r3, r3, #2
 80060d8:	4413      	add	r3, r2
 80060da:	881b      	ldrh	r3, [r3, #0]
 80060dc:	b29b      	uxth	r3, r3
 80060de:	f423 4380 	bic.w	r3, r3, #16384	; 0x4000
 80060e2:	f023 0370 	bic.w	r3, r3, #112	; 0x70
 80060e6:	827b      	strh	r3, [r7, #18]
 80060e8:	8a7b      	ldrh	r3, [r7, #18]
 80060ea:	f483 5380 	eor.w	r3, r3, #4096	; 0x1000
 80060ee:	827b      	strh	r3, [r7, #18]
 80060f0:	8a7b      	ldrh	r3, [r7, #18]
 80060f2:	f483 5300 	eor.w	r3, r3, #8192	; 0x2000
 80060f6:	827b      	strh	r3, [r7, #18]
 80060f8:	687a      	ldr	r2, [r7, #4]
 80060fa:	683b      	ldr	r3, [r7, #0]
 80060fc:	781b      	ldrb	r3, [r3, #0]
 80060fe:	009b      	lsls	r3, r3, #2
 8006100:	441a      	add	r2, r3
 8006102:	8a7b      	ldrh	r3, [r7, #18]
 8006104:	f043 437f 	orr.w	r3, r3, #4278190080	; 0xff000000
 8006108:	f443 037f 	orr.w	r3, r3, #16711680	; 0xff0000
 800610c:	f443 4300 	orr.w	r3, r3, #32768	; 0x8000
 8006110:	f043 0380 	orr.w	r3, r3, #128	; 0x80
 8006114:	b29b      	uxth	r3, r3
 8006116:	8013      	strh	r3, [r2, #0]
 8006118:	2300      	movs	r3, #0
 800611a:	4618      	mov	r0, r3
 800611c:	371c      	adds	r7, #28
 800611e:	46bd      	mov	sp, r7
 8006120:	bc80      	pop	{r7}
 8006122:	4770      	bx	lr

08006124 <USB_SetDevAddress>:
 8006124:	b480      	push	{r7}
 8006126:	b083      	sub	sp, #12
 8006128:	af00      	add	r7, sp, #0
 800612a:	6078      	str	r0, [r7, #4]
 800612c:	460b      	mov	r3, r1
 800612e:	70fb      	strb	r3, [r7, #3]
 8006130:	78fb      	ldrb	r3, [r7, #3]
 8006132:	2b00      	cmp	r3, #0
 8006134:	d103      	bne.n	800613e <USB_SetDevAddress+0x1a>
 8006136:	687b      	ldr	r3, [r7, #4]
 8006138:	2280      	movs	r2, #128	; 0x80
 800613a:	f8a3 204c 	strh.w	r2, [r3, #76]	; 0x4c
 800613e:	2300      	movs	r3, #0
 8006140:	4618      	mov	r0, r3
 8006142:	370c      	adds	r7, #12
 8006144:	46bd      	mov	sp, r7
 8006146:	bc80      	pop	{r7}
 8006148:	4770      	bx	lr

0800614a <USB_DevConnect>:
 800614a:	b480      	push	{r7}
 800614c:	b083      	sub	sp, #12
 800614e:	af00      	add	r7, sp, #0
 8006150:	6078      	str	r0, [r7, #4]
 8006152:	2300      	movs	r3, #0
 8006154:	4618      	mov	r0, r3
 8006156:	370c      	adds	r7, #12
 8006158:	46bd      	mov	sp, r7
 800615a:	bc80      	pop	{r7}
 800615c:	4770      	bx	lr

0800615e <USB_DevDisconnect>:
 800615e:	b480      	push	{r7}
 8006160:	b083      	sub	sp, #12
 8006162:	af00      	add	r7, sp, #0
 8006164:	6078      	str	r0, [r7, #4]
 8006166:	2300      	movs	r3, #0
 8006168:	4618      	mov	r0, r3
 800616a:	370c      	adds	r7, #12
 800616c:	46bd      	mov	sp, r7
 800616e:	bc80      	pop	{r7}
 8006170:	4770      	bx	lr

08006172 <USB_ReadInterrupts>:
 8006172:	b480      	push	{r7}
 8006174:	b085      	sub	sp, #20
 8006176:	af00      	add	r7, sp, #0
 8006178:	6078      	str	r0, [r7, #4]
 800617a:	687b      	ldr	r3, [r7, #4]
 800617c:	f8b3 3044 	ldrh.w	r3, [r3, #68]	; 0x44
 8006180:	b29b      	uxth	r3, r3
 8006182:	60fb      	str	r3, [r7, #12]
 8006184:	68fb      	ldr	r3, [r7, #12]
 8006186:	4618      	mov	r0, r3
 8006188:	3714      	adds	r7, #20
 800618a:	46bd      	mov	sp, r7
 800618c:	bc80      	pop	{r7}
 800618e:	4770      	bx	lr

08006190 <USB_EP0_OutStart>:
 8006190:	b480      	push	{r7}
 8006192:	b083      	sub	sp, #12
 8006194:	af00      	add	r7, sp, #0
 8006196:	6078      	str	r0, [r7, #4]
 8006198:	6039      	str	r1, [r7, #0]
 800619a:	2300      	movs	r3, #0
 800619c:	4618      	mov	r0, r3
 800619e:	370c      	adds	r7, #12
 80061a0:	46bd      	mov	sp, r7
 80061a2:	bc80      	pop	{r7}
 80061a4:	4770      	bx	lr

080061a6 <USB_WritePMA>:
 80061a6:	b480      	push	{r7}
 80061a8:	b08d      	sub	sp, #52	; 0x34
 80061aa:	af00      	add	r7, sp, #0
 80061ac:	60f8      	str	r0, [r7, #12]
 80061ae:	60b9      	str	r1, [r7, #8]
 80061b0:	4611      	mov	r1, r2
 80061b2:	461a      	mov	r2, r3
 80061b4:	460b      	mov	r3, r1
 80061b6:	80fb      	strh	r3, [r7, #6]
 80061b8:	4613      	mov	r3, r2
 80061ba:	80bb      	strh	r3, [r7, #4]
 80061bc:	88bb      	ldrh	r3, [r7, #4]
 80061be:	3301      	adds	r3, #1
 80061c0:	085b      	lsrs	r3, r3, #1
 80061c2:	623b      	str	r3, [r7, #32]
 80061c4:	68fb      	ldr	r3, [r7, #12]
 80061c6:	61fb      	str	r3, [r7, #28]
 80061c8:	68bb      	ldr	r3, [r7, #8]
 80061ca:	627b      	str	r3, [r7, #36]	; 0x24
 80061cc:	88fb      	ldrh	r3, [r7, #6]
 80061ce:	005a      	lsls	r2, r3, #1
 80061d0:	69fb      	ldr	r3, [r7, #28]
 80061d2:	4413      	add	r3, r2
 80061d4:	f503 6380 	add.w	r3, r3, #1024	; 0x400
 80061d8:	62bb      	str	r3, [r7, #40]	; 0x28
 80061da:	6a3b      	ldr	r3, [r7, #32]
 80061dc:	62fb      	str	r3, [r7, #44]	; 0x2c
 80061de:	e01e      	b.n	800621e <USB_WritePMA+0x78>
 80061e0:	6a7b      	ldr	r3, [r7, #36]	; 0x24
 80061e2:	781b      	ldrb	r3, [r3, #0]
 80061e4:	61bb      	str	r3, [r7, #24]
 80061e6:	6a7b      	ldr	r3, [r7, #36]	; 0x24
 80061e8:	3301      	adds	r3, #1
 80061ea:	627b      	str	r3, [r7, #36]	; 0x24
 80061ec:	6a7b      	ldr	r3, [r7, #36]	; 0x24
 80061ee:	781b      	ldrb	r3, [r3, #0]
 80061f0:	b29b      	uxth	r3, r3
 80061f2:	021b      	lsls	r3, r3, #8
 80061f4:	b29b      	uxth	r3, r3
 80061f6:	461a      	mov	r2, r3
 80061f8:	69bb      	ldr	r3, [r7, #24]
 80061fa:	4313      	orrs	r3, r2
 80061fc:	617b      	str	r3, [r7, #20]
 80061fe:	697b      	ldr	r3, [r7, #20]
 8006200:	b29a      	uxth	r2, r3
 8006202:	6abb      	ldr	r3, [r7, #40]	; 0x28
 8006204:	801a      	strh	r2, [r3, #0]
 8006206:	6abb      	ldr	r3, [r7, #40]	; 0x28
 8006208:	3302      	adds	r3, #2
 800620a:	62bb      	str	r3, [r7, #40]	; 0x28
 800620c:	6abb      	ldr	r3, [r7, #40]	; 0x28
 800620e:	3302      	adds	r3, #2
 8006210:	62bb      	str	r3, [r7, #40]	; 0x28
 8006212:	6a7b      	ldr	r3, [r7, #36]	; 0x24
 8006214:	3301      	adds	r3, #1
 8006216:	627b      	str	r3, [r7, #36]	; 0x24
 8006218:	6afb      	ldr	r3, [r7, #44]	; 0x2c
 800621a:	3b01      	subs	r3, #1
 800621c:	62fb      	str	r3, [r7, #44]	; 0x2c
 800621e:	6afb      	ldr	r3, [r7, #44]	; 0x2c
 8006220:	2b00      	cmp	r3, #0
 8006222:	d1dd      	bne.n	80061e0 <USB_WritePMA+0x3a>
 8006224:	bf00      	nop
 8006226:	bf00      	nop
 8006228:	3734      	adds	r7, #52	; 0x34
 800622a:	46bd      	mov	sp, r7
 800622c:	bc80      	pop	{r7}
 800622e:	4770      	bx	lr

08006230 <USB_ReadPMA>:
 8006230:	b480      	push	{r7}
 8006232:	b08b      	sub	sp, #44	; 0x2c
 8006234:	af00      	add	r7, sp, #0
 8006236:	60f8      	str	r0, [r7, #12]
 8006238:	60b9      	str	r1, [r7, #8]
 800623a:	4611      	mov	r1, r2
 800623c:	461a      	mov	r2, r3
 800623e:	460b      	mov	r3, r1
 8006240:	80fb      	strh	r3, [r7, #6]
 8006242:	4613      	mov	r3, r2
 8006244:	80bb      	strh	r3, [r7, #4]
 8006246:	88bb      	ldrh	r3, [r7, #4]
 8006248:	085b      	lsrs	r3, r3, #1
 800624a:	b29b      	uxth	r3, r3
 800624c:	61bb      	str	r3, [r7, #24]
 800624e:	68fb      	ldr	r3, [r7, #12]
 8006250:	617b      	str	r3, [r7, #20]
 8006252:	68bb      	ldr	r3, [r7, #8]
 8006254:	61fb      	str	r3, [r7, #28]
 8006256:	88fb      	ldrh	r3, [r7, #6]
 8006258:	005a      	lsls	r2, r3, #1
 800625a:	697b      	ldr	r3, [r7, #20]
 800625c:	4413      	add	r3, r2
 800625e:	f503 6380 	add.w	r3, r3, #1024	; 0x400
 8006262:	623b      	str	r3, [r7, #32]
 8006264:	69bb      	ldr	r3, [r7, #24]
 8006266:	627b      	str	r3, [r7, #36]	; 0x24
 8006268:	e01b      	b.n	80062a2 <USB_ReadPMA+0x72>
 800626a:	6a3b      	ldr	r3, [r7, #32]
 800626c:	881b      	ldrh	r3, [r3, #0]
 800626e:	b29b      	uxth	r3, r3
 8006270:	613b      	str	r3, [r7, #16]
 8006272:	6a3b      	ldr	r3, [r7, #32]
 8006274:	3302      	adds	r3, #2
 8006276:	623b      	str	r3, [r7, #32]
 8006278:	693b      	ldr	r3, [r7, #16]
 800627a:	b2da      	uxtb	r2, r3
 800627c:	69fb      	ldr	r3, [r7, #28]
 800627e:	701a      	strb	r2, [r3, #0]
 8006280:	69fb      	ldr	r3, [r7, #28]
 8006282:	3301      	adds	r3, #1
 8006284:	61fb      	str	r3, [r7, #28]
 8006286:	693b      	ldr	r3, [r7, #16]
 8006288:	0a1b      	lsrs	r3, r3, #8
 800628a:	b2da      	uxtb	r2, r3
 800628c:	69fb      	ldr	r3, [r7, #28]
 800628e:	701a      	strb	r2, [r3, #0]
 8006290:	69fb      	ldr	r3, [r7, #28]
 8006292:	3301      	adds	r3, #1
 8006294:	61fb      	str	r3, [r7, #28]
 8006296:	6a3b      	ldr	r3, [r7, #32]
 8006298:	3302      	adds	r3, #2
 800629a:	623b      	str	r3, [r7, #32]
 800629c:	6a7b      	ldr	r3, [r7, #36]	; 0x24
 800629e:	3b01      	subs	r3, #1
 80062a0:	627b      	str	r3, [r7, #36]	; 0x24
 80062a2:	6a7b      	ldr	r3, [r7, #36]	; 0x24
 80062a4:	2b00      	cmp	r3, #0
 80062a6:	d1e0      	bne.n	800626a <USB_ReadPMA+0x3a>
 80062a8:	88bb      	ldrh	r3, [r7, #4]
 80062aa:	f003 0301 	and.w	r3, r3, #1
 80062ae:	b29b      	uxth	r3, r3
 80062b0:	2b00      	cmp	r3, #0
 80062b2:	d007      	beq.n	80062c4 <USB_ReadPMA+0x94>
 80062b4:	6a3b      	ldr	r3, [r7, #32]
 80062b6:	881b      	ldrh	r3, [r3, #0]
 80062b8:	b29b      	uxth	r3, r3
 80062ba:	613b      	str	r3, [r7, #16]
 80062bc:	693b      	ldr	r3, [r7, #16]
 80062be:	b2da      	uxtb	r2, r3
 80062c0:	69fb      	ldr	r3, [r7, #28]
 80062c2:	701a      	strb	r2, [r3, #0]
 80062c4:	bf00      	nop
 80062c6:	372c      	adds	r7, #44	; 0x2c
 80062c8:	46bd      	mov	sp, r7
 80062ca:	bc80      	pop	{r7}
 80062cc:	4770      	bx	lr

080062ce <USBD_Init>:
 80062ce:	b580      	push	{r7, lr}
 80062d0:	b084      	sub	sp, #16
 80062d2:	af00      	add	r7, sp, #0
 80062d4:	60f8      	str	r0, [r7, #12]
 80062d6:	60b9      	str	r1, [r7, #8]
 80062d8:	4613      	mov	r3, r2
 80062da:	71fb      	strb	r3, [r7, #7]
 80062dc:	68fb      	ldr	r3, [r7, #12]
 80062de:	2b00      	cmp	r3, #0
 80062e0:	d101      	bne.n	80062e6 <USBD_Init+0x18>
 80062e2:	2302      	movs	r3, #2
 80062e4:	e01a      	b.n	800631c <USBD_Init+0x4e>
 80062e6:	68fb      	ldr	r3, [r7, #12]
 80062e8:	f8d3 32b4 	ldr.w	r3, [r3, #692]	; 0x2b4
 80062ec:	2b00      	cmp	r3, #0
 80062ee:	d003      	beq.n	80062f8 <USBD_Init+0x2a>
 80062f0:	68fb      	ldr	r3, [r7, #12]
 80062f2:	2200      	movs	r2, #0
 80062f4:	f8c3 22b4 	str.w	r2, [r3, #692]	; 0x2b4
 80062f8:	68bb      	ldr	r3, [r7, #8]
 80062fa:	2b00      	cmp	r3, #0
 80062fc:	d003      	beq.n	8006306 <USBD_Init+0x38>
 80062fe:	68fb      	ldr	r3, [r7, #12]
 8006300:	68ba      	ldr	r2, [r7, #8]
 8006302:	f8c3 22b0 	str.w	r2, [r3, #688]	; 0x2b0
 8006306:	68fb      	ldr	r3, [r7, #12]
 8006308:	2201      	movs	r2, #1
 800630a:	f883 229c 	strb.w	r2, [r3, #668]	; 0x29c
 800630e:	68fb      	ldr	r3, [r7, #12]
 8006310:	79fa      	ldrb	r2, [r7, #7]
 8006312:	701a      	strb	r2, [r3, #0]
 8006314:	68f8      	ldr	r0, [r7, #12]
 8006316:	f001 fa57 	bl	80077c8 <USBD_LL_Init>
 800631a:	2300      	movs	r3, #0
 800631c:	4618      	mov	r0, r3
 800631e:	3710      	adds	r7, #16
 8006320:	46bd      	mov	sp, r7
 8006322:	bd80      	pop	{r7, pc}

08006324 <USBD_RegisterClass>:
 8006324:	b480      	push	{r7}
 8006326:	b085      	sub	sp, #20
 8006328:	af00      	add	r7, sp, #0
 800632a:	6078      	str	r0, [r7, #4]
 800632c:	6039      	str	r1, [r7, #0]
 800632e:	2300      	movs	r3, #0
 8006330:	73fb      	strb	r3, [r7, #15]
 8006332:	683b      	ldr	r3, [r7, #0]
 8006334:	2b00      	cmp	r3, #0
 8006336:	d006      	beq.n	8006346 <USBD_RegisterClass+0x22>
 8006338:	687b      	ldr	r3, [r7, #4]
 800633a:	683a      	ldr	r2, [r7, #0]
 800633c:	f8c3 22b4 	str.w	r2, [r3, #692]	; 0x2b4
 8006340:	2300      	movs	r3, #0
 8006342:	73fb      	strb	r3, [r7, #15]
 8006344:	e001      	b.n	800634a <USBD_RegisterClass+0x26>
 8006346:	2302      	movs	r3, #2
 8006348:	73fb      	strb	r3, [r7, #15]
 800634a:	7bfb      	ldrb	r3, [r7, #15]
 800634c:	4618      	mov	r0, r3
 800634e:	3714      	adds	r7, #20
 8006350:	46bd      	mov	sp, r7
 8006352:	bc80      	pop	{r7}
 8006354:	4770      	bx	lr

08006356 <USBD_Start>:
 8006356:	b580      	push	{r7, lr}
 8006358:	b082      	sub	sp, #8
 800635a:	af00      	add	r7, sp, #0
 800635c:	6078      	str	r0, [r7, #4]
 800635e:	6878      	ldr	r0, [r7, #4]
 8006360:	f001 fa8c 	bl	800787c <USBD_LL_Start>
 8006364:	2300      	movs	r3, #0
 8006366:	4618      	mov	r0, r3
 8006368:	3708      	adds	r7, #8
 800636a:	46bd      	mov	sp, r7
 800636c:	bd80      	pop	{r7, pc}

0800636e <USBD_RunTestMode>:
 800636e:	b480      	push	{r7}
 8006370:	b083      	sub	sp, #12
 8006372:	af00      	add	r7, sp, #0
 8006374:	6078      	str	r0, [r7, #4]
 8006376:	2300      	movs	r3, #0
 8006378:	4618      	mov	r0, r3
 800637a:	370c      	adds	r7, #12
 800637c:	46bd      	mov	sp, r7
 800637e:	bc80      	pop	{r7}
 8006380:	4770      	bx	lr

08006382 <USBD_SetClassConfig>:
 8006382:	b580      	push	{r7, lr}
 8006384:	b084      	sub	sp, #16
 8006386:	af00      	add	r7, sp, #0
 8006388:	6078      	str	r0, [r7, #4]
 800638a:	460b      	mov	r3, r1
 800638c:	70fb      	strb	r3, [r7, #3]
 800638e:	2302      	movs	r3, #2
 8006390:	73fb      	strb	r3, [r7, #15]
 8006392:	687b      	ldr	r3, [r7, #4]
 8006394:	f8d3 32b4 	ldr.w	r3, [r3, #692]	; 0x2b4
 8006398:	2b00      	cmp	r3, #0
 800639a:	d00c      	beq.n	80063b6 <USBD_SetClassConfig+0x34>
 800639c:	687b      	ldr	r3, [r7, #4]
 800639e:	f8d3 32b4 	ldr.w	r3, [r3, #692]	; 0x2b4
 80063a2:	681b      	ldr	r3, [r3, #0]
 80063a4:	78fa      	ldrb	r2, [r7, #3]
 80063a6:	4611      	mov	r1, r2
 80063a8:	6878      	ldr	r0, [r7, #4]
 80063aa:	4798      	blx	r3
 80063ac:	4603      	mov	r3, r0
 80063ae:	2b00      	cmp	r3, #0
 80063b0:	d101      	bne.n	80063b6 <USBD_SetClassConfig+0x34>
 80063b2:	2300      	movs	r3, #0
 80063b4:	73fb      	strb	r3, [r7, #15]
 80063b6:	7bfb      	ldrb	r3, [r7, #15]
 80063b8:	4618      	mov	r0, r3
 80063ba:	3710      	adds	r7, #16
 80063bc:	46bd      	mov	sp, r7
 80063be:	bd80      	pop	{r7, pc}

080063c0 <USBD_ClrClassConfig>:
 80063c0:	b580      	push	{r7, lr}
 80063c2:	b082      	sub	sp, #8
 80063c4:	af00      	add	r7, sp, #0
 80063c6:	6078      	str	r0, [r7, #4]
 80063c8:	460b      	mov	r3, r1
 80063ca:	70fb      	strb	r3, [r7, #3]
 80063cc:	687b      	ldr	r3, [r7, #4]
 80063ce:	f8d3 32b4 	ldr.w	r3, [r3, #692]	; 0x2b4
 80063d2:	685b      	ldr	r3, [r3, #4]
 80063d4:	78fa      	ldrb	r2, [r7, #3]
 80063d6:	4611      	mov	r1, r2
 80063d8:	6878      	ldr	r0, [r7, #4]
 80063da:	4798      	blx	r3
 80063dc:	2300      	movs	r3, #0
 80063de:	4618      	mov	r0, r3
 80063e0:	3708      	adds	r7, #8
 80063e2:	46bd      	mov	sp, r7
 80063e4:	bd80      	pop	{r7, pc}

080063e6 <USBD_LL_SetupStage>:
 80063e6:	b580      	push	{r7, lr}
 80063e8:	b082      	sub	sp, #8
 80063ea:	af00      	add	r7, sp, #0
 80063ec:	6078      	str	r0, [r7, #4]
 80063ee:	6039      	str	r1, [r7, #0]
 80063f0:	687b      	ldr	r3, [r7, #4]
 80063f2:	f503 732a 	add.w	r3, r3, #680	; 0x2a8
 80063f6:	6839      	ldr	r1, [r7, #0]
 80063f8:	4618      	mov	r0, r3
 80063fa:	f000 fed8 	bl	80071ae <USBD_ParseSetupRequest>
 80063fe:	687b      	ldr	r3, [r7, #4]
 8006400:	2201      	movs	r2, #1
 8006402:	f8c3 2294 	str.w	r2, [r3, #660]	; 0x294
 8006406:	687b      	ldr	r3, [r7, #4]
 8006408:	f8b3 32ae 	ldrh.w	r3, [r3, #686]	; 0x2ae
 800640c:	461a      	mov	r2, r3
 800640e:	687b      	ldr	r3, [r7, #4]
 8006410:	f8c3 2298 	str.w	r2, [r3, #664]	; 0x298
 8006414:	687b      	ldr	r3, [r7, #4]
 8006416:	f893 32a8 	ldrb.w	r3, [r3, #680]	; 0x2a8
 800641a:	f003 031f 	and.w	r3, r3, #31
 800641e:	2b02      	cmp	r3, #2
 8006420:	d016      	beq.n	8006450 <USBD_LL_SetupStage+0x6a>
 8006422:	2b02      	cmp	r3, #2
 8006424:	d81c      	bhi.n	8006460 <USBD_LL_SetupStage+0x7a>
 8006426:	2b00      	cmp	r3, #0
 8006428:	d002      	beq.n	8006430 <USBD_LL_SetupStage+0x4a>
 800642a:	2b01      	cmp	r3, #1
 800642c:	d008      	beq.n	8006440 <USBD_LL_SetupStage+0x5a>
 800642e:	e017      	b.n	8006460 <USBD_LL_SetupStage+0x7a>
 8006430:	687b      	ldr	r3, [r7, #4]
 8006432:	f503 732a 	add.w	r3, r3, #680	; 0x2a8
 8006436:	4619      	mov	r1, r3
 8006438:	6878      	ldr	r0, [r7, #4]
 800643a:	f000 f9cb 	bl	80067d4 <USBD_StdDevReq>
 800643e:	e01a      	b.n	8006476 <USBD_LL_SetupStage+0x90>
 8006440:	687b      	ldr	r3, [r7, #4]
 8006442:	f503 732a 	add.w	r3, r3, #680	; 0x2a8
 8006446:	4619      	mov	r1, r3
 8006448:	6878      	ldr	r0, [r7, #4]
 800644a:	f000 fa2d 	bl	80068a8 <USBD_StdItfReq>
 800644e:	e012      	b.n	8006476 <USBD_LL_SetupStage+0x90>
 8006450:	687b      	ldr	r3, [r7, #4]
 8006452:	f503 732a 	add.w	r3, r3, #680	; 0x2a8
 8006456:	4619      	mov	r1, r3
 8006458:	6878      	ldr	r0, [r7, #4]
 800645a:	f000 fa6d 	bl	8006938 <USBD_StdEPReq>
 800645e:	e00a      	b.n	8006476 <USBD_LL_SetupStage+0x90>
 8006460:	687b      	ldr	r3, [r7, #4]
 8006462:	f893 32a8 	ldrb.w	r3, [r3, #680]	; 0x2a8
 8006466:	f023 037f 	bic.w	r3, r3, #127	; 0x7f
 800646a:	b2db      	uxtb	r3, r3
 800646c:	4619      	mov	r1, r3
 800646e:	6878      	ldr	r0, [r7, #4]
 8006470:	f001 fa64 	bl	800793c <USBD_LL_StallEP>
 8006474:	bf00      	nop
 8006476:	2300      	movs	r3, #0
 8006478:	4618      	mov	r0, r3
 800647a:	3708      	adds	r7, #8
 800647c:	46bd      	mov	sp, r7
 800647e:	bd80      	pop	{r7, pc}

08006480 <USBD_LL_DataOutStage>:
 8006480:	b580      	push	{r7, lr}
 8006482:	b086      	sub	sp, #24
 8006484:	af00      	add	r7, sp, #0
 8006486:	60f8      	str	r0, [r7, #12]
 8006488:	460b      	mov	r3, r1
 800648a:	607a      	str	r2, [r7, #4]
 800648c:	72fb      	strb	r3, [r7, #11]
 800648e:	7afb      	ldrb	r3, [r7, #11]
 8006490:	2b00      	cmp	r3, #0
 8006492:	d14b      	bne.n	800652c <USBD_LL_DataOutStage+0xac>
 8006494:	68fb      	ldr	r3, [r7, #12]
 8006496:	f503 73aa 	add.w	r3, r3, #340	; 0x154
 800649a:	617b      	str	r3, [r7, #20]
 800649c:	68fb      	ldr	r3, [r7, #12]
 800649e:	f8d3 3294 	ldr.w	r3, [r3, #660]	; 0x294
 80064a2:	2b03      	cmp	r3, #3
 80064a4:	d134      	bne.n	8006510 <USBD_LL_DataOutStage+0x90>
 80064a6:	697b      	ldr	r3, [r7, #20]
 80064a8:	68da      	ldr	r2, [r3, #12]
 80064aa:	697b      	ldr	r3, [r7, #20]
 80064ac:	691b      	ldr	r3, [r3, #16]
 80064ae:	429a      	cmp	r2, r3
 80064b0:	d919      	bls.n	80064e6 <USBD_LL_DataOutStage+0x66>
 80064b2:	697b      	ldr	r3, [r7, #20]
 80064b4:	68da      	ldr	r2, [r3, #12]
 80064b6:	697b      	ldr	r3, [r7, #20]
 80064b8:	691b      	ldr	r3, [r3, #16]
 80064ba:	1ad2      	subs	r2, r2, r3
 80064bc:	697b      	ldr	r3, [r7, #20]
 80064be:	60da      	str	r2, [r3, #12]
 80064c0:	697b      	ldr	r3, [r7, #20]
 80064c2:	68da      	ldr	r2, [r3, #12]
 80064c4:	697b      	ldr	r3, [r7, #20]
 80064c6:	691b      	ldr	r3, [r3, #16]
 80064c8:	429a      	cmp	r2, r3
 80064ca:	d203      	bcs.n	80064d4 <USBD_LL_DataOutStage+0x54>
 80064cc:	697b      	ldr	r3, [r7, #20]
 80064ce:	68db      	ldr	r3, [r3, #12]
 80064d0:	b29b      	uxth	r3, r3
 80064d2:	e002      	b.n	80064da <USBD_LL_DataOutStage+0x5a>
 80064d4:	697b      	ldr	r3, [r7, #20]
 80064d6:	691b      	ldr	r3, [r3, #16]
 80064d8:	b29b      	uxth	r3, r3
 80064da:	461a      	mov	r2, r3
 80064dc:	6879      	ldr	r1, [r7, #4]
 80064de:	68f8      	ldr	r0, [r7, #12]
 80064e0:	f000 ff39 	bl	8007356 <USBD_CtlContinueRx>
 80064e4:	e038      	b.n	8006558 <USBD_LL_DataOutStage+0xd8>
 80064e6:	68fb      	ldr	r3, [r7, #12]
 80064e8:	f8d3 32b4 	ldr.w	r3, [r3, #692]	; 0x2b4
 80064ec:	691b      	ldr	r3, [r3, #16]
 80064ee:	2b00      	cmp	r3, #0
 80064f0:	d00a      	beq.n	8006508 <USBD_LL_DataOutStage+0x88>
 80064f2:	68fb      	ldr	r3, [r7, #12]
 80064f4:	f893 329c 	ldrb.w	r3, [r3, #668]	; 0x29c
 80064f8:	2b03      	cmp	r3, #3
 80064fa:	d105      	bne.n	8006508 <USBD_LL_DataOutStage+0x88>
 80064fc:	68fb      	ldr	r3, [r7, #12]
 80064fe:	f8d3 32b4 	ldr.w	r3, [r3, #692]	; 0x2b4
 8006502:	691b      	ldr	r3, [r3, #16]
 8006504:	68f8      	ldr	r0, [r7, #12]
 8006506:	4798      	blx	r3
 8006508:	68f8      	ldr	r0, [r7, #12]
 800650a:	f000 ff36 	bl	800737a <USBD_CtlSendStatus>
 800650e:	e023      	b.n	8006558 <USBD_LL_DataOutStage+0xd8>
 8006510:	68fb      	ldr	r3, [r7, #12]
 8006512:	f8d3 3294 	ldr.w	r3, [r3, #660]	; 0x294
 8006516:	2b05      	cmp	r3, #5
 8006518:	d11e      	bne.n	8006558 <USBD_LL_DataOutStage+0xd8>
 800651a:	68fb      	ldr	r3, [r7, #12]
 800651c:	2200      	movs	r2, #0
 800651e:	f8c3 2294 	str.w	r2, [r3, #660]	; 0x294
 8006522:	2100      	movs	r1, #0
 8006524:	68f8      	ldr	r0, [r7, #12]
 8006526:	f001 fa09 	bl	800793c <USBD_LL_StallEP>
 800652a:	e015      	b.n	8006558 <USBD_LL_DataOutStage+0xd8>
 800652c:	68fb      	ldr	r3, [r7, #12]
 800652e:	f8d3 32b4 	ldr.w	r3, [r3, #692]	; 0x2b4
 8006532:	699b      	ldr	r3, [r3, #24]
 8006534:	2b00      	cmp	r3, #0
 8006536:	d00d      	beq.n	8006554 <USBD_LL_DataOutStage+0xd4>
 8006538:	68fb      	ldr	r3, [r7, #12]
 800653a:	f893 329c 	ldrb.w	r3, [r3, #668]	; 0x29c
 800653e:	2b03      	cmp	r3, #3
 8006540:	d108      	bne.n	8006554 <USBD_LL_DataOutStage+0xd4>
 8006542:	68fb      	ldr	r3, [r7, #12]
 8006544:	f8d3 32b4 	ldr.w	r3, [r3, #692]	; 0x2b4
 8006548:	699b      	ldr	r3, [r3, #24]
 800654a:	7afa      	ldrb	r2, [r7, #11]
 800654c:	4611      	mov	r1, r2
 800654e:	68f8      	ldr	r0, [r7, #12]
 8006550:	4798      	blx	r3
 8006552:	e001      	b.n	8006558 <USBD_LL_DataOutStage+0xd8>
 8006554:	2302      	movs	r3, #2
 8006556:	e000      	b.n	800655a <USBD_LL_DataOutStage+0xda>
 8006558:	2300      	movs	r3, #0
 800655a:	4618      	mov	r0, r3
 800655c:	3718      	adds	r7, #24
 800655e:	46bd      	mov	sp, r7
 8006560:	bd80      	pop	{r7, pc}

08006562 <USBD_LL_DataInStage>:
 8006562:	b580      	push	{r7, lr}
 8006564:	b086      	sub	sp, #24
 8006566:	af00      	add	r7, sp, #0
 8006568:	60f8      	str	r0, [r7, #12]
 800656a:	460b      	mov	r3, r1
 800656c:	607a      	str	r2, [r7, #4]
 800656e:	72fb      	strb	r3, [r7, #11]
 8006570:	7afb      	ldrb	r3, [r7, #11]
 8006572:	2b00      	cmp	r3, #0
 8006574:	d17f      	bne.n	8006676 <USBD_LL_DataInStage+0x114>
 8006576:	68fb      	ldr	r3, [r7, #12]
 8006578:	3314      	adds	r3, #20
 800657a:	617b      	str	r3, [r7, #20]
 800657c:	68fb      	ldr	r3, [r7, #12]
 800657e:	f8d3 3294 	ldr.w	r3, [r3, #660]	; 0x294
 8006582:	2b02      	cmp	r3, #2
 8006584:	d15c      	bne.n	8006640 <USBD_LL_DataInStage+0xde>
 8006586:	697b      	ldr	r3, [r7, #20]
 8006588:	68da      	ldr	r2, [r3, #12]
 800658a:	697b      	ldr	r3, [r7, #20]
 800658c:	691b      	ldr	r3, [r3, #16]
 800658e:	429a      	cmp	r2, r3
 8006590:	d915      	bls.n	80065be <USBD_LL_DataInStage+0x5c>
 8006592:	697b      	ldr	r3, [r7, #20]
 8006594:	68da      	ldr	r2, [r3, #12]
 8006596:	697b      	ldr	r3, [r7, #20]
 8006598:	691b      	ldr	r3, [r3, #16]
 800659a:	1ad2      	subs	r2, r2, r3
 800659c:	697b      	ldr	r3, [r7, #20]
 800659e:	60da      	str	r2, [r3, #12]
 80065a0:	697b      	ldr	r3, [r7, #20]
 80065a2:	68db      	ldr	r3, [r3, #12]
 80065a4:	b29b      	uxth	r3, r3
 80065a6:	461a      	mov	r2, r3
 80065a8:	6879      	ldr	r1, [r7, #4]
 80065aa:	68f8      	ldr	r0, [r7, #12]
 80065ac:	f000 fec1 	bl	8007332 <USBD_CtlContinueSendData>
 80065b0:	2300      	movs	r3, #0
 80065b2:	2200      	movs	r2, #0
 80065b4:	2100      	movs	r1, #0
 80065b6:	68f8      	ldr	r0, [r7, #12]
 80065b8:	f001 fa6c 	bl	8007a94 <USBD_LL_PrepareReceive>
 80065bc:	e04e      	b.n	800665c <USBD_LL_DataInStage+0xfa>
 80065be:	697b      	ldr	r3, [r7, #20]
 80065c0:	689b      	ldr	r3, [r3, #8]
 80065c2:	697a      	ldr	r2, [r7, #20]
 80065c4:	6912      	ldr	r2, [r2, #16]
 80065c6:	fbb3 f1f2 	udiv	r1, r3, r2
 80065ca:	fb02 f201 	mul.w	r2, r2, r1
 80065ce:	1a9b      	subs	r3, r3, r2
 80065d0:	2b00      	cmp	r3, #0
 80065d2:	d11c      	bne.n	800660e <USBD_LL_DataInStage+0xac>
 80065d4:	697b      	ldr	r3, [r7, #20]
 80065d6:	689a      	ldr	r2, [r3, #8]
 80065d8:	697b      	ldr	r3, [r7, #20]
 80065da:	691b      	ldr	r3, [r3, #16]
 80065dc:	429a      	cmp	r2, r3
 80065de:	d316      	bcc.n	800660e <USBD_LL_DataInStage+0xac>
 80065e0:	697b      	ldr	r3, [r7, #20]
 80065e2:	689a      	ldr	r2, [r3, #8]
 80065e4:	68fb      	ldr	r3, [r7, #12]
 80065e6:	f8d3 3298 	ldr.w	r3, [r3, #664]	; 0x298
 80065ea:	429a      	cmp	r2, r3
 80065ec:	d20f      	bcs.n	800660e <USBD_LL_DataInStage+0xac>
 80065ee:	2200      	movs	r2, #0
 80065f0:	2100      	movs	r1, #0
 80065f2:	68f8      	ldr	r0, [r7, #12]
 80065f4:	f000 fe9d 	bl	8007332 <USBD_CtlContinueSendData>
 80065f8:	68fb      	ldr	r3, [r7, #12]
 80065fa:	2200      	movs	r2, #0
 80065fc:	f8c3 2298 	str.w	r2, [r3, #664]	; 0x298
 8006600:	2300      	movs	r3, #0
 8006602:	2200      	movs	r2, #0
 8006604:	2100      	movs	r1, #0
 8006606:	68f8      	ldr	r0, [r7, #12]
 8006608:	f001 fa44 	bl	8007a94 <USBD_LL_PrepareReceive>
 800660c:	e026      	b.n	800665c <USBD_LL_DataInStage+0xfa>
 800660e:	68fb      	ldr	r3, [r7, #12]
 8006610:	f8d3 32b4 	ldr.w	r3, [r3, #692]	; 0x2b4
 8006614:	68db      	ldr	r3, [r3, #12]
 8006616:	2b00      	cmp	r3, #0
 8006618:	d00a      	beq.n	8006630 <USBD_LL_DataInStage+0xce>
 800661a:	68fb      	ldr	r3, [r7, #12]
 800661c:	f893 329c 	ldrb.w	r3, [r3, #668]	; 0x29c
 8006620:	2b03      	cmp	r3, #3
 8006622:	d105      	bne.n	8006630 <USBD_LL_DataInStage+0xce>
 8006624:	68fb      	ldr	r3, [r7, #12]
 8006626:	f8d3 32b4 	ldr.w	r3, [r3, #692]	; 0x2b4
 800662a:	68db      	ldr	r3, [r3, #12]
 800662c:	68f8      	ldr	r0, [r7, #12]
 800662e:	4798      	blx	r3
 8006630:	2180      	movs	r1, #128	; 0x80
 8006632:	68f8      	ldr	r0, [r7, #12]
 8006634:	f001 f982 	bl	800793c <USBD_LL_StallEP>
 8006638:	68f8      	ldr	r0, [r7, #12]
 800663a:	f000 feb1 	bl	80073a0 <USBD_CtlReceiveStatus>
 800663e:	e00d      	b.n	800665c <USBD_LL_DataInStage+0xfa>
 8006640:	68fb      	ldr	r3, [r7, #12]
 8006642:	f8d3 3294 	ldr.w	r3, [r3, #660]	; 0x294
 8006646:	2b04      	cmp	r3, #4
 8006648:	d004      	beq.n	8006654 <USBD_LL_DataInStage+0xf2>
 800664a:	68fb      	ldr	r3, [r7, #12]
 800664c:	f8d3 3294 	ldr.w	r3, [r3, #660]	; 0x294
 8006650:	2b00      	cmp	r3, #0
 8006652:	d103      	bne.n	800665c <USBD_LL_DataInStage+0xfa>
 8006654:	2180      	movs	r1, #128	; 0x80
 8006656:	68f8      	ldr	r0, [r7, #12]
 8006658:	f001 f970 	bl	800793c <USBD_LL_StallEP>
 800665c:	68fb      	ldr	r3, [r7, #12]
 800665e:	f893 32a0 	ldrb.w	r3, [r3, #672]	; 0x2a0
 8006662:	2b01      	cmp	r3, #1
 8006664:	d11d      	bne.n	80066a2 <USBD_LL_DataInStage+0x140>
 8006666:	68f8      	ldr	r0, [r7, #12]
 8006668:	f7ff fe81 	bl	800636e <USBD_RunTestMode>
 800666c:	68fb      	ldr	r3, [r7, #12]
 800666e:	2200      	movs	r2, #0
 8006670:	f883 22a0 	strb.w	r2, [r3, #672]	; 0x2a0
 8006674:	e015      	b.n	80066a2 <USBD_LL_DataInStage+0x140>
 8006676:	68fb      	ldr	r3, [r7, #12]
 8006678:	f8d3 32b4 	ldr.w	r3, [r3, #692]	; 0x2b4
 800667c:	695b      	ldr	r3, [r3, #20]
 800667e:	2b00      	cmp	r3, #0
 8006680:	d00d      	beq.n	800669e <USBD_LL_DataInStage+0x13c>
 8006682:	68fb      	ldr	r3, [r7, #12]
 8006684:	f893 329c 	ldrb.w	r3, [r3, #668]	; 0x29c
 8006688:	2b03      	cmp	r3, #3
 800668a:	d108      	bne.n	800669e <USBD_LL_DataInStage+0x13c>
 800668c:	68fb      	ldr	r3, [r7, #12]
 800668e:	f8d3 32b4 	ldr.w	r3, [r3, #692]	; 0x2b4
 8006692:	695b      	ldr	r3, [r3, #20]
 8006694:	7afa      	ldrb	r2, [r7, #11]
 8006696:	4611      	mov	r1, r2
 8006698:	68f8      	ldr	r0, [r7, #12]
 800669a:	4798      	blx	r3
 800669c:	e001      	b.n	80066a2 <USBD_LL_DataInStage+0x140>
 800669e:	2302      	movs	r3, #2
 80066a0:	e000      	b.n	80066a4 <USBD_LL_DataInStage+0x142>
 80066a2:	2300      	movs	r3, #0
 80066a4:	4618      	mov	r0, r3
 80066a6:	3718      	adds	r7, #24
 80066a8:	46bd      	mov	sp, r7
 80066aa:	bd80      	pop	{r7, pc}

080066ac <USBD_LL_Reset>:
 80066ac:	b580      	push	{r7, lr}
 80066ae:	b082      	sub	sp, #8
 80066b0:	af00      	add	r7, sp, #0
 80066b2:	6078      	str	r0, [r7, #4]
 80066b4:	2340      	movs	r3, #64	; 0x40
 80066b6:	2200      	movs	r2, #0
 80066b8:	2100      	movs	r1, #0
 80066ba:	6878      	ldr	r0, [r7, #4]
 80066bc:	f001 f8f9 	bl	80078b2 <USBD_LL_OpenEP>
 80066c0:	687b      	ldr	r3, [r7, #4]
 80066c2:	2201      	movs	r2, #1
 80066c4:	f8c3 2158 	str.w	r2, [r3, #344]	; 0x158
 80066c8:	687b      	ldr	r3, [r7, #4]
 80066ca:	2240      	movs	r2, #64	; 0x40
 80066cc:	f8c3 2164 	str.w	r2, [r3, #356]	; 0x164
 80066d0:	2340      	movs	r3, #64	; 0x40
 80066d2:	2200      	movs	r2, #0
 80066d4:	2180      	movs	r1, #128	; 0x80
 80066d6:	6878      	ldr	r0, [r7, #4]
 80066d8:	f001 f8eb 	bl	80078b2 <USBD_LL_OpenEP>
 80066dc:	687b      	ldr	r3, [r7, #4]
 80066de:	2201      	movs	r2, #1
 80066e0:	619a      	str	r2, [r3, #24]
 80066e2:	687b      	ldr	r3, [r7, #4]
 80066e4:	2240      	movs	r2, #64	; 0x40
 80066e6:	625a      	str	r2, [r3, #36]	; 0x24
 80066e8:	687b      	ldr	r3, [r7, #4]
 80066ea:	2201      	movs	r2, #1
 80066ec:	f883 229c 	strb.w	r2, [r3, #668]	; 0x29c
 80066f0:	687b      	ldr	r3, [r7, #4]
 80066f2:	2200      	movs	r2, #0
 80066f4:	f8c3 2294 	str.w	r2, [r3, #660]	; 0x294
 80066f8:	687b      	ldr	r3, [r7, #4]
 80066fa:	2200      	movs	r2, #0
 80066fc:	605a      	str	r2, [r3, #4]
 80066fe:	687b      	ldr	r3, [r7, #4]
 8006700:	2200      	movs	r2, #0
 8006702:	f8c3 22a4 	str.w	r2, [r3, #676]	; 0x2a4
 8006706:	687b      	ldr	r3, [r7, #4]
 8006708:	f8d3 32b8 	ldr.w	r3, [r3, #696]	; 0x2b8
 800670c:	2b00      	cmp	r3, #0
 800670e:	d009      	beq.n	8006724 <USBD_LL_Reset+0x78>
 8006710:	687b      	ldr	r3, [r7, #4]
 8006712:	f8d3 32b4 	ldr.w	r3, [r3, #692]	; 0x2b4
 8006716:	685b      	ldr	r3, [r3, #4]
 8006718:	687a      	ldr	r2, [r7, #4]
 800671a:	6852      	ldr	r2, [r2, #4]
 800671c:	b2d2      	uxtb	r2, r2
 800671e:	4611      	mov	r1, r2
 8006720:	6878      	ldr	r0, [r7, #4]
 8006722:	4798      	blx	r3
 8006724:	2300      	movs	r3, #0
 8006726:	4618      	mov	r0, r3
 8006728:	3708      	adds	r7, #8
 800672a:	46bd      	mov	sp, r7
 800672c:	bd80      	pop	{r7, pc}

0800672e <USBD_LL_SetSpeed>:
 800672e:	b480      	push	{r7}
 8006730:	b083      	sub	sp, #12
 8006732:	af00      	add	r7, sp, #0
 8006734:	6078      	str	r0, [r7, #4]
 8006736:	460b      	mov	r3, r1
 8006738:	70fb      	strb	r3, [r7, #3]
 800673a:	687b      	ldr	r3, [r7, #4]
 800673c:	78fa      	ldrb	r2, [r7, #3]
 800673e:	741a      	strb	r2, [r3, #16]
 8006740:	2300      	movs	r3, #0
 8006742:	4618      	mov	r0, r3
 8006744:	370c      	adds	r7, #12
 8006746:	46bd      	mov	sp, r7
 8006748:	bc80      	pop	{r7}
 800674a:	4770      	bx	lr

0800674c <USBD_LL_Suspend>:
 800674c:	b480      	push	{r7}
 800674e:	b083      	sub	sp, #12
 8006750:	af00      	add	r7, sp, #0
 8006752:	6078      	str	r0, [r7, #4]
 8006754:	687b      	ldr	r3, [r7, #4]
 8006756:	f893 229c 	ldrb.w	r2, [r3, #668]	; 0x29c
 800675a:	687b      	ldr	r3, [r7, #4]
 800675c:	f883 229d 	strb.w	r2, [r3, #669]	; 0x29d
 8006760:	687b      	ldr	r3, [r7, #4]
 8006762:	2204      	movs	r2, #4
 8006764:	f883 229c 	strb.w	r2, [r3, #668]	; 0x29c
 8006768:	2300      	movs	r3, #0
 800676a:	4618      	mov	r0, r3
 800676c:	370c      	adds	r7, #12
 800676e:	46bd      	mov	sp, r7
 8006770:	bc80      	pop	{r7}
 8006772:	4770      	bx	lr

08006774 <USBD_LL_Resume>:
 8006774:	b480      	push	{r7}
 8006776:	b083      	sub	sp, #12
 8006778:	af00      	add	r7, sp, #0
 800677a:	6078      	str	r0, [r7, #4]
 800677c:	687b      	ldr	r3, [r7, #4]
 800677e:	f893 329c 	ldrb.w	r3, [r3, #668]	; 0x29c
 8006782:	2b04      	cmp	r3, #4
 8006784:	d105      	bne.n	8006792 <USBD_LL_Resume+0x1e>
 8006786:	687b      	ldr	r3, [r7, #4]
 8006788:	f893 229d 	ldrb.w	r2, [r3, #669]	; 0x29d
 800678c:	687b      	ldr	r3, [r7, #4]
 800678e:	f883 229c 	strb.w	r2, [r3, #668]	; 0x29c
 8006792:	2300      	movs	r3, #0
 8006794:	4618      	mov	r0, r3
 8006796:	370c      	adds	r7, #12
 8006798:	46bd      	mov	sp, r7
 800679a:	bc80      	pop	{r7}
 800679c:	4770      	bx	lr

0800679e <USBD_LL_SOF>:
 800679e:	b580      	push	{r7, lr}
 80067a0:	b082      	sub	sp, #8
 80067a2:	af00      	add	r7, sp, #0
 80067a4:	6078      	str	r0, [r7, #4]
 80067a6:	687b      	ldr	r3, [r7, #4]
 80067a8:	f893 329c 	ldrb.w	r3, [r3, #668]	; 0x29c
 80067ac:	2b03      	cmp	r3, #3
 80067ae:	d10b      	bne.n	80067c8 <USBD_LL_SOF+0x2a>
 80067b0:	687b      	ldr	r3, [r7, #4]
 80067b2:	f8d3 32b4 	ldr.w	r3, [r3, #692]	; 0x2b4
 80067b6:	69db      	ldr	r3, [r3, #28]
 80067b8:	2b00      	cmp	r3, #0
 80067ba:	d005      	beq.n	80067c8 <USBD_LL_SOF+0x2a>
 80067bc:	687b      	ldr	r3, [r7, #4]
 80067be:	f8d3 32b4 	ldr.w	r3, [r3, #692]	; 0x2b4
 80067c2:	69db      	ldr	r3, [r3, #28]
 80067c4:	6878      	ldr	r0, [r7, #4]
 80067c6:	4798      	blx	r3
 80067c8:	2300      	movs	r3, #0
 80067ca:	4618      	mov	r0, r3
 80067cc:	3708      	adds	r7, #8
 80067ce:	46bd      	mov	sp, r7
 80067d0:	bd80      	pop	{r7, pc}
	...

080067d4 <USBD_StdDevReq>:
 80067d4:	b580      	push	{r7, lr}
 80067d6:	b084      	sub	sp, #16
 80067d8:	af00      	add	r7, sp, #0
 80067da:	6078      	str	r0, [r7, #4]
 80067dc:	6039      	str	r1, [r7, #0]
 80067de:	2300      	movs	r3, #0
 80067e0:	73fb      	strb	r3, [r7, #15]
 80067e2:	683b      	ldr	r3, [r7, #0]
 80067e4:	781b      	ldrb	r3, [r3, #0]
 80067e6:	f003 0360 	and.w	r3, r3, #96	; 0x60
 80067ea:	2b40      	cmp	r3, #64	; 0x40
 80067ec:	d005      	beq.n	80067fa <USBD_StdDevReq+0x26>
 80067ee:	2b40      	cmp	r3, #64	; 0x40
 80067f0:	d84f      	bhi.n	8006892 <USBD_StdDevReq+0xbe>
 80067f2:	2b00      	cmp	r3, #0
 80067f4:	d009      	beq.n	800680a <USBD_StdDevReq+0x36>
 80067f6:	2b20      	cmp	r3, #32
 80067f8:	d14b      	bne.n	8006892 <USBD_StdDevReq+0xbe>
 80067fa:	687b      	ldr	r3, [r7, #4]
 80067fc:	f8d3 32b4 	ldr.w	r3, [r3, #692]	; 0x2b4
 8006800:	689b      	ldr	r3, [r3, #8]
 8006802:	6839      	ldr	r1, [r7, #0]
 8006804:	6878      	ldr	r0, [r7, #4]
 8006806:	4798      	blx	r3
 8006808:	e048      	b.n	800689c <USBD_StdDevReq+0xc8>
 800680a:	683b      	ldr	r3, [r7, #0]
 800680c:	785b      	ldrb	r3, [r3, #1]
 800680e:	2b09      	cmp	r3, #9
 8006810:	d839      	bhi.n	8006886 <USBD_StdDevReq+0xb2>
 8006812:	a201      	add	r2, pc, #4	; (adr r2, 8006818 <USBD_StdDevReq+0x44>)
 8006814:	f852 f023 	ldr.w	pc, [r2, r3, lsl #2]
 8006818:	08006869 	.word	0x08006869
 800681c:	0800687d 	.word	0x0800687d
 8006820:	08006887 	.word	0x08006887
 8006824:	08006873 	.word	0x08006873
 8006828:	08006887 	.word	0x08006887
 800682c:	0800684b 	.word	0x0800684b
 8006830:	08006841 	.word	0x08006841
 8006834:	08006887 	.word	0x08006887
 8006838:	0800685f 	.word	0x0800685f
 800683c:	08006855 	.word	0x08006855
 8006840:	6839      	ldr	r1, [r7, #0]
 8006842:	6878      	ldr	r0, [r7, #4]
 8006844:	f000 f9dc 	bl	8006c00 <USBD_GetDescriptor>
 8006848:	e022      	b.n	8006890 <USBD_StdDevReq+0xbc>
 800684a:	6839      	ldr	r1, [r7, #0]
 800684c:	6878      	ldr	r0, [r7, #4]
 800684e:	f000 fb3f 	bl	8006ed0 <USBD_SetAddress>
 8006852:	e01d      	b.n	8006890 <USBD_StdDevReq+0xbc>
 8006854:	6839      	ldr	r1, [r7, #0]
 8006856:	6878      	ldr	r0, [r7, #4]
 8006858:	f000 fb7e 	bl	8006f58 <USBD_SetConfig>
 800685c:	e018      	b.n	8006890 <USBD_StdDevReq+0xbc>
 800685e:	6839      	ldr	r1, [r7, #0]
 8006860:	6878      	ldr	r0, [r7, #4]
 8006862:	f000 fc07 	bl	8007074 <USBD_GetConfig>
 8006866:	e013      	b.n	8006890 <USBD_StdDevReq+0xbc>
 8006868:	6839      	ldr	r1, [r7, #0]
 800686a:	6878      	ldr	r0, [r7, #4]
 800686c:	f000 fc37 	bl	80070de <USBD_GetStatus>
 8006870:	e00e      	b.n	8006890 <USBD_StdDevReq+0xbc>
 8006872:	6839      	ldr	r1, [r7, #0]
 8006874:	6878      	ldr	r0, [r7, #4]
 8006876:	f000 fc65 	bl	8007144 <USBD_SetFeature>
 800687a:	e009      	b.n	8006890 <USBD_StdDevReq+0xbc>
 800687c:	6839      	ldr	r1, [r7, #0]
 800687e:	6878      	ldr	r0, [r7, #4]
 8006880:	f000 fc74 	bl	800716c <USBD_ClrFeature>
 8006884:	e004      	b.n	8006890 <USBD_StdDevReq+0xbc>
 8006886:	6839      	ldr	r1, [r7, #0]
 8006888:	6878      	ldr	r0, [r7, #4]
 800688a:	f000 fccc 	bl	8007226 <USBD_CtlError>
 800688e:	bf00      	nop
 8006890:	e004      	b.n	800689c <USBD_StdDevReq+0xc8>
 8006892:	6839      	ldr	r1, [r7, #0]
 8006894:	6878      	ldr	r0, [r7, #4]
 8006896:	f000 fcc6 	bl	8007226 <USBD_CtlError>
 800689a:	bf00      	nop
 800689c:	7bfb      	ldrb	r3, [r7, #15]
 800689e:	4618      	mov	r0, r3
 80068a0:	3710      	adds	r7, #16
 80068a2:	46bd      	mov	sp, r7
 80068a4:	bd80      	pop	{r7, pc}
 80068a6:	bf00      	nop

080068a8 <USBD_StdItfReq>:
 80068a8:	b580      	push	{r7, lr}
 80068aa:	b084      	sub	sp, #16
 80068ac:	af00      	add	r7, sp, #0
 80068ae:	6078      	str	r0, [r7, #4]
 80068b0:	6039      	str	r1, [r7, #0]
 80068b2:	2300      	movs	r3, #0
 80068b4:	73fb      	strb	r3, [r7, #15]
 80068b6:	683b      	ldr	r3, [r7, #0]
 80068b8:	781b      	ldrb	r3, [r3, #0]
 80068ba:	f003 0360 	and.w	r3, r3, #96	; 0x60
 80068be:	2b40      	cmp	r3, #64	; 0x40
 80068c0:	d005      	beq.n	80068ce <USBD_StdItfReq+0x26>
 80068c2:	2b40      	cmp	r3, #64	; 0x40
 80068c4:	d82e      	bhi.n	8006924 <USBD_StdItfReq+0x7c>
 80068c6:	2b00      	cmp	r3, #0
 80068c8:	d001      	beq.n	80068ce <USBD_StdItfReq+0x26>
 80068ca:	2b20      	cmp	r3, #32
 80068cc:	d12a      	bne.n	8006924 <USBD_StdItfReq+0x7c>
 80068ce:	687b      	ldr	r3, [r7, #4]
 80068d0:	f893 329c 	ldrb.w	r3, [r3, #668]	; 0x29c
 80068d4:	3b01      	subs	r3, #1
 80068d6:	2b02      	cmp	r3, #2
 80068d8:	d81d      	bhi.n	8006916 <USBD_StdItfReq+0x6e>
 80068da:	683b      	ldr	r3, [r7, #0]
 80068dc:	889b      	ldrh	r3, [r3, #4]
 80068de:	b2db      	uxtb	r3, r3
 80068e0:	2b01      	cmp	r3, #1
 80068e2:	d813      	bhi.n	800690c <USBD_StdItfReq+0x64>
 80068e4:	687b      	ldr	r3, [r7, #4]
 80068e6:	f8d3 32b4 	ldr.w	r3, [r3, #692]	; 0x2b4
 80068ea:	689b      	ldr	r3, [r3, #8]
 80068ec:	6839      	ldr	r1, [r7, #0]
 80068ee:	6878      	ldr	r0, [r7, #4]
 80068f0:	4798      	blx	r3
 80068f2:	4603      	mov	r3, r0
 80068f4:	73fb      	strb	r3, [r7, #15]
 80068f6:	683b      	ldr	r3, [r7, #0]
 80068f8:	88db      	ldrh	r3, [r3, #6]
 80068fa:	2b00      	cmp	r3, #0
 80068fc:	d110      	bne.n	8006920 <USBD_StdItfReq+0x78>
 80068fe:	7bfb      	ldrb	r3, [r7, #15]
 8006900:	2b00      	cmp	r3, #0
 8006902:	d10d      	bne.n	8006920 <USBD_StdItfReq+0x78>
 8006904:	6878      	ldr	r0, [r7, #4]
 8006906:	f000 fd38 	bl	800737a <USBD_CtlSendStatus>
 800690a:	e009      	b.n	8006920 <USBD_StdItfReq+0x78>
 800690c:	6839      	ldr	r1, [r7, #0]
 800690e:	6878      	ldr	r0, [r7, #4]
 8006910:	f000 fc89 	bl	8007226 <USBD_CtlError>
 8006914:	e004      	b.n	8006920 <USBD_StdItfReq+0x78>
 8006916:	6839      	ldr	r1, [r7, #0]
 8006918:	6878      	ldr	r0, [r7, #4]
 800691a:	f000 fc84 	bl	8007226 <USBD_CtlError>
 800691e:	e000      	b.n	8006922 <USBD_StdItfReq+0x7a>
 8006920:	bf00      	nop
 8006922:	e004      	b.n	800692e <USBD_StdItfReq+0x86>
 8006924:	6839      	ldr	r1, [r7, #0]
 8006926:	6878      	ldr	r0, [r7, #4]
 8006928:	f000 fc7d 	bl	8007226 <USBD_CtlError>
 800692c:	bf00      	nop
 800692e:	2300      	movs	r3, #0
 8006930:	4618      	mov	r0, r3
 8006932:	3710      	adds	r7, #16
 8006934:	46bd      	mov	sp, r7
 8006936:	bd80      	pop	{r7, pc}

08006938 <USBD_StdEPReq>:
 8006938:	b580      	push	{r7, lr}
 800693a:	b084      	sub	sp, #16
 800693c:	af00      	add	r7, sp, #0
 800693e:	6078      	str	r0, [r7, #4]
 8006940:	6039      	str	r1, [r7, #0]
 8006942:	2300      	movs	r3, #0
 8006944:	73fb      	strb	r3, [r7, #15]
 8006946:	683b      	ldr	r3, [r7, #0]
 8006948:	889b      	ldrh	r3, [r3, #4]
 800694a:	73bb      	strb	r3, [r7, #14]
 800694c:	683b      	ldr	r3, [r7, #0]
 800694e:	781b      	ldrb	r3, [r3, #0]
 8006950:	f003 0360 	and.w	r3, r3, #96	; 0x60
 8006954:	2b40      	cmp	r3, #64	; 0x40
 8006956:	d007      	beq.n	8006968 <USBD_StdEPReq+0x30>
 8006958:	2b40      	cmp	r3, #64	; 0x40
 800695a:	f200 8146 	bhi.w	8006bea <USBD_StdEPReq+0x2b2>
 800695e:	2b00      	cmp	r3, #0
 8006960:	d00a      	beq.n	8006978 <USBD_StdEPReq+0x40>
 8006962:	2b20      	cmp	r3, #32
 8006964:	f040 8141 	bne.w	8006bea <USBD_StdEPReq+0x2b2>
 8006968:	687b      	ldr	r3, [r7, #4]
 800696a:	f8d3 32b4 	ldr.w	r3, [r3, #692]	; 0x2b4
 800696e:	689b      	ldr	r3, [r3, #8]
 8006970:	6839      	ldr	r1, [r7, #0]
 8006972:	6878      	ldr	r0, [r7, #4]
 8006974:	4798      	blx	r3
 8006976:	e13d      	b.n	8006bf4 <USBD_StdEPReq+0x2bc>
 8006978:	683b      	ldr	r3, [r7, #0]
 800697a:	781b      	ldrb	r3, [r3, #0]
 800697c:	f003 0360 	and.w	r3, r3, #96	; 0x60
 8006980:	2b20      	cmp	r3, #32
 8006982:	d10a      	bne.n	800699a <USBD_StdEPReq+0x62>
 8006984:	687b      	ldr	r3, [r7, #4]
 8006986:	f8d3 32b4 	ldr.w	r3, [r3, #692]	; 0x2b4
 800698a:	689b      	ldr	r3, [r3, #8]
 800698c:	6839      	ldr	r1, [r7, #0]
 800698e:	6878      	ldr	r0, [r7, #4]
 8006990:	4798      	blx	r3
 8006992:	4603      	mov	r3, r0
 8006994:	73fb      	strb	r3, [r7, #15]
 8006996:	7bfb      	ldrb	r3, [r7, #15]
 8006998:	e12d      	b.n	8006bf6 <USBD_StdEPReq+0x2be>
 800699a:	683b      	ldr	r3, [r7, #0]
 800699c:	785b      	ldrb	r3, [r3, #1]
 800699e:	2b03      	cmp	r3, #3
 80069a0:	d007      	beq.n	80069b2 <USBD_StdEPReq+0x7a>
 80069a2:	2b03      	cmp	r3, #3
 80069a4:	f300 811b 	bgt.w	8006bde <USBD_StdEPReq+0x2a6>
 80069a8:	2b00      	cmp	r3, #0
 80069aa:	d072      	beq.n	8006a92 <USBD_StdEPReq+0x15a>
 80069ac:	2b01      	cmp	r3, #1
 80069ae:	d03a      	beq.n	8006a26 <USBD_StdEPReq+0xee>
 80069b0:	e115      	b.n	8006bde <USBD_StdEPReq+0x2a6>
 80069b2:	687b      	ldr	r3, [r7, #4]
 80069b4:	f893 329c 	ldrb.w	r3, [r3, #668]	; 0x29c
 80069b8:	2b02      	cmp	r3, #2
 80069ba:	d002      	beq.n	80069c2 <USBD_StdEPReq+0x8a>
 80069bc:	2b03      	cmp	r3, #3
 80069be:	d015      	beq.n	80069ec <USBD_StdEPReq+0xb4>
 80069c0:	e02b      	b.n	8006a1a <USBD_StdEPReq+0xe2>
 80069c2:	7bbb      	ldrb	r3, [r7, #14]
 80069c4:	2b00      	cmp	r3, #0
 80069c6:	d00c      	beq.n	80069e2 <USBD_StdEPReq+0xaa>
 80069c8:	7bbb      	ldrb	r3, [r7, #14]
 80069ca:	2b80      	cmp	r3, #128	; 0x80
 80069cc:	d009      	beq.n	80069e2 <USBD_StdEPReq+0xaa>
 80069ce:	7bbb      	ldrb	r3, [r7, #14]
 80069d0:	4619      	mov	r1, r3
 80069d2:	6878      	ldr	r0, [r7, #4]
 80069d4:	f000 ffb2 	bl	800793c <USBD_LL_StallEP>
 80069d8:	2180      	movs	r1, #128	; 0x80
 80069da:	6878      	ldr	r0, [r7, #4]
 80069dc:	f000 ffae 	bl	800793c <USBD_LL_StallEP>
 80069e0:	e020      	b.n	8006a24 <USBD_StdEPReq+0xec>
 80069e2:	6839      	ldr	r1, [r7, #0]
 80069e4:	6878      	ldr	r0, [r7, #4]
 80069e6:	f000 fc1e 	bl	8007226 <USBD_CtlError>
 80069ea:	e01b      	b.n	8006a24 <USBD_StdEPReq+0xec>
 80069ec:	683b      	ldr	r3, [r7, #0]
 80069ee:	885b      	ldrh	r3, [r3, #2]
 80069f0:	2b00      	cmp	r3, #0
 80069f2:	d10e      	bne.n	8006a12 <USBD_StdEPReq+0xda>
 80069f4:	7bbb      	ldrb	r3, [r7, #14]
 80069f6:	2b00      	cmp	r3, #0
 80069f8:	d00b      	beq.n	8006a12 <USBD_StdEPReq+0xda>
 80069fa:	7bbb      	ldrb	r3, [r7, #14]
 80069fc:	2b80      	cmp	r3, #128	; 0x80
 80069fe:	d008      	beq.n	8006a12 <USBD_StdEPReq+0xda>
 8006a00:	683b      	ldr	r3, [r7, #0]
 8006a02:	88db      	ldrh	r3, [r3, #6]
 8006a04:	2b00      	cmp	r3, #0
 8006a06:	d104      	bne.n	8006a12 <USBD_StdEPReq+0xda>
 8006a08:	7bbb      	ldrb	r3, [r7, #14]
 8006a0a:	4619      	mov	r1, r3
 8006a0c:	6878      	ldr	r0, [r7, #4]
 8006a0e:	f000 ff95 	bl	800793c <USBD_LL_StallEP>
 8006a12:	6878      	ldr	r0, [r7, #4]
 8006a14:	f000 fcb1 	bl	800737a <USBD_CtlSendStatus>
 8006a18:	e004      	b.n	8006a24 <USBD_StdEPReq+0xec>
 8006a1a:	6839      	ldr	r1, [r7, #0]
 8006a1c:	6878      	ldr	r0, [r7, #4]
 8006a1e:	f000 fc02 	bl	8007226 <USBD_CtlError>
 8006a22:	bf00      	nop
 8006a24:	e0e0      	b.n	8006be8 <USBD_StdEPReq+0x2b0>
 8006a26:	687b      	ldr	r3, [r7, #4]
 8006a28:	f893 329c 	ldrb.w	r3, [r3, #668]	; 0x29c
 8006a2c:	2b02      	cmp	r3, #2
 8006a2e:	d002      	beq.n	8006a36 <USBD_StdEPReq+0xfe>
 8006a30:	2b03      	cmp	r3, #3
 8006a32:	d015      	beq.n	8006a60 <USBD_StdEPReq+0x128>
 8006a34:	e026      	b.n	8006a84 <USBD_StdEPReq+0x14c>
 8006a36:	7bbb      	ldrb	r3, [r7, #14]
 8006a38:	2b00      	cmp	r3, #0
 8006a3a:	d00c      	beq.n	8006a56 <USBD_StdEPReq+0x11e>
 8006a3c:	7bbb      	ldrb	r3, [r7, #14]
 8006a3e:	2b80      	cmp	r3, #128	; 0x80
 8006a40:	d009      	beq.n	8006a56 <USBD_StdEPReq+0x11e>
 8006a42:	7bbb      	ldrb	r3, [r7, #14]
 8006a44:	4619      	mov	r1, r3
 8006a46:	6878      	ldr	r0, [r7, #4]
 8006a48:	f000 ff78 	bl	800793c <USBD_LL_StallEP>
 8006a4c:	2180      	movs	r1, #128	; 0x80
 8006a4e:	6878      	ldr	r0, [r7, #4]
 8006a50:	f000 ff74 	bl	800793c <USBD_LL_StallEP>
 8006a54:	e01c      	b.n	8006a90 <USBD_StdEPReq+0x158>
 8006a56:	6839      	ldr	r1, [r7, #0]
 8006a58:	6878      	ldr	r0, [r7, #4]
 8006a5a:	f000 fbe4 	bl	8007226 <USBD_CtlError>
 8006a5e:	e017      	b.n	8006a90 <USBD_StdEPReq+0x158>
 8006a60:	683b      	ldr	r3, [r7, #0]
 8006a62:	885b      	ldrh	r3, [r3, #2]
 8006a64:	2b00      	cmp	r3, #0
 8006a66:	d112      	bne.n	8006a8e <USBD_StdEPReq+0x156>
 8006a68:	7bbb      	ldrb	r3, [r7, #14]
 8006a6a:	f003 037f 	and.w	r3, r3, #127	; 0x7f
 8006a6e:	2b00      	cmp	r3, #0
 8006a70:	d004      	beq.n	8006a7c <USBD_StdEPReq+0x144>
 8006a72:	7bbb      	ldrb	r3, [r7, #14]
 8006a74:	4619      	mov	r1, r3
 8006a76:	6878      	ldr	r0, [r7, #4]
 8006a78:	f000 ff7f 	bl	800797a <USBD_LL_ClearStallEP>
 8006a7c:	6878      	ldr	r0, [r7, #4]
 8006a7e:	f000 fc7c 	bl	800737a <USBD_CtlSendStatus>
 8006a82:	e004      	b.n	8006a8e <USBD_StdEPReq+0x156>
 8006a84:	6839      	ldr	r1, [r7, #0]
 8006a86:	6878      	ldr	r0, [r7, #4]
 8006a88:	f000 fbcd 	bl	8007226 <USBD_CtlError>
 8006a8c:	e000      	b.n	8006a90 <USBD_StdEPReq+0x158>
 8006a8e:	bf00      	nop
 8006a90:	e0aa      	b.n	8006be8 <USBD_StdEPReq+0x2b0>
 8006a92:	687b      	ldr	r3, [r7, #4]
 8006a94:	f893 329c 	ldrb.w	r3, [r3, #668]	; 0x29c
 8006a98:	2b02      	cmp	r3, #2
 8006a9a:	d002      	beq.n	8006aa2 <USBD_StdEPReq+0x16a>
 8006a9c:	2b03      	cmp	r3, #3
 8006a9e:	d032      	beq.n	8006b06 <USBD_StdEPReq+0x1ce>
 8006aa0:	e097      	b.n	8006bd2 <USBD_StdEPReq+0x29a>
 8006aa2:	7bbb      	ldrb	r3, [r7, #14]
 8006aa4:	2b00      	cmp	r3, #0
 8006aa6:	d007      	beq.n	8006ab8 <USBD_StdEPReq+0x180>
 8006aa8:	7bbb      	ldrb	r3, [r7, #14]
 8006aaa:	2b80      	cmp	r3, #128	; 0x80
 8006aac:	d004      	beq.n	8006ab8 <USBD_StdEPReq+0x180>
 8006aae:	6839      	ldr	r1, [r7, #0]
 8006ab0:	6878      	ldr	r0, [r7, #4]
 8006ab2:	f000 fbb8 	bl	8007226 <USBD_CtlError>
 8006ab6:	e091      	b.n	8006bdc <USBD_StdEPReq+0x2a4>
 8006ab8:	f997 300e 	ldrsb.w	r3, [r7, #14]
 8006abc:	2b00      	cmp	r3, #0
 8006abe:	da0b      	bge.n	8006ad8 <USBD_StdEPReq+0x1a0>
 8006ac0:	7bbb      	ldrb	r3, [r7, #14]
 8006ac2:	f003 027f 	and.w	r2, r3, #127	; 0x7f
 8006ac6:	4613      	mov	r3, r2
 8006ac8:	009b      	lsls	r3, r3, #2
 8006aca:	4413      	add	r3, r2
 8006acc:	009b      	lsls	r3, r3, #2
 8006ace:	3310      	adds	r3, #16
 8006ad0:	687a      	ldr	r2, [r7, #4]
 8006ad2:	4413      	add	r3, r2
 8006ad4:	3304      	adds	r3, #4
 8006ad6:	e00b      	b.n	8006af0 <USBD_StdEPReq+0x1b8>
 8006ad8:	7bbb      	ldrb	r3, [r7, #14]
 8006ada:	f003 027f 	and.w	r2, r3, #127	; 0x7f
 8006ade:	4613      	mov	r3, r2
 8006ae0:	009b      	lsls	r3, r3, #2
 8006ae2:	4413      	add	r3, r2
 8006ae4:	009b      	lsls	r3, r3, #2
 8006ae6:	f503 73a8 	add.w	r3, r3, #336	; 0x150
 8006aea:	687a      	ldr	r2, [r7, #4]
 8006aec:	4413      	add	r3, r2
 8006aee:	3304      	adds	r3, #4
 8006af0:	60bb      	str	r3, [r7, #8]
 8006af2:	68bb      	ldr	r3, [r7, #8]
 8006af4:	2200      	movs	r2, #0
 8006af6:	601a      	str	r2, [r3, #0]
 8006af8:	68bb      	ldr	r3, [r7, #8]
 8006afa:	2202      	movs	r2, #2
 8006afc:	4619      	mov	r1, r3
 8006afe:	6878      	ldr	r0, [r7, #4]
 8006b00:	f000 fbfb 	bl	80072fa <USBD_CtlSendData>
 8006b04:	e06a      	b.n	8006bdc <USBD_StdEPReq+0x2a4>
 8006b06:	f997 300e 	ldrsb.w	r3, [r7, #14]
 8006b0a:	2b00      	cmp	r3, #0
 8006b0c:	da11      	bge.n	8006b32 <USBD_StdEPReq+0x1fa>
 8006b0e:	7bbb      	ldrb	r3, [r7, #14]
 8006b10:	f003 020f 	and.w	r2, r3, #15
 8006b14:	6879      	ldr	r1, [r7, #4]
 8006b16:	4613      	mov	r3, r2
 8006b18:	009b      	lsls	r3, r3, #2
 8006b1a:	4413      	add	r3, r2
 8006b1c:	009b      	lsls	r3, r3, #2
 8006b1e:	440b      	add	r3, r1
 8006b20:	3318      	adds	r3, #24
 8006b22:	681b      	ldr	r3, [r3, #0]
 8006b24:	2b00      	cmp	r3, #0
 8006b26:	d117      	bne.n	8006b58 <USBD_StdEPReq+0x220>
 8006b28:	6839      	ldr	r1, [r7, #0]
 8006b2a:	6878      	ldr	r0, [r7, #4]
 8006b2c:	f000 fb7b 	bl	8007226 <USBD_CtlError>
 8006b30:	e054      	b.n	8006bdc <USBD_StdEPReq+0x2a4>
 8006b32:	7bbb      	ldrb	r3, [r7, #14]
 8006b34:	f003 020f 	and.w	r2, r3, #15
 8006b38:	6879      	ldr	r1, [r7, #4]
 8006b3a:	4613      	mov	r3, r2
 8006b3c:	009b      	lsls	r3, r3, #2
 8006b3e:	4413      	add	r3, r2
 8006b40:	009b      	lsls	r3, r3, #2
 8006b42:	440b      	add	r3, r1
 8006b44:	f503 73ac 	add.w	r3, r3, #344	; 0x158
 8006b48:	681b      	ldr	r3, [r3, #0]
 8006b4a:	2b00      	cmp	r3, #0
 8006b4c:	d104      	bne.n	8006b58 <USBD_StdEPReq+0x220>
 8006b4e:	6839      	ldr	r1, [r7, #0]
 8006b50:	6878      	ldr	r0, [r7, #4]
 8006b52:	f000 fb68 	bl	8007226 <USBD_CtlError>
 8006b56:	e041      	b.n	8006bdc <USBD_StdEPReq+0x2a4>
 8006b58:	f997 300e 	ldrsb.w	r3, [r7, #14]
 8006b5c:	2b00      	cmp	r3, #0
 8006b5e:	da0b      	bge.n	8006b78 <USBD_StdEPReq+0x240>
 8006b60:	7bbb      	ldrb	r3, [r7, #14]
 8006b62:	f003 027f 	and.w	r2, r3, #127	; 0x7f
 8006b66:	4613      	mov	r3, r2
 8006b68:	009b      	lsls	r3, r3, #2
 8006b6a:	4413      	add	r3, r2
 8006b6c:	009b      	lsls	r3, r3, #2
 8006b6e:	3310      	adds	r3, #16
 8006b70:	687a      	ldr	r2, [r7, #4]
 8006b72:	4413      	add	r3, r2
 8006b74:	3304      	adds	r3, #4
 8006b76:	e00b      	b.n	8006b90 <USBD_StdEPReq+0x258>
 8006b78:	7bbb      	ldrb	r3, [r7, #14]
 8006b7a:	f003 027f 	and.w	r2, r3, #127	; 0x7f
 8006b7e:	4613      	mov	r3, r2
 8006b80:	009b      	lsls	r3, r3, #2
 8006b82:	4413      	add	r3, r2
 8006b84:	009b      	lsls	r3, r3, #2
 8006b86:	f503 73a8 	add.w	r3, r3, #336	; 0x150
 8006b8a:	687a      	ldr	r2, [r7, #4]
 8006b8c:	4413      	add	r3, r2
 8006b8e:	3304      	adds	r3, #4
 8006b90:	60bb      	str	r3, [r7, #8]
 8006b92:	7bbb      	ldrb	r3, [r7, #14]
 8006b94:	2b00      	cmp	r3, #0
 8006b96:	d002      	beq.n	8006b9e <USBD_StdEPReq+0x266>
 8006b98:	7bbb      	ldrb	r3, [r7, #14]
 8006b9a:	2b80      	cmp	r3, #128	; 0x80
 8006b9c:	d103      	bne.n	8006ba6 <USBD_StdEPReq+0x26e>
 8006b9e:	68bb      	ldr	r3, [r7, #8]
 8006ba0:	2200      	movs	r2, #0
 8006ba2:	601a      	str	r2, [r3, #0]
 8006ba4:	e00e      	b.n	8006bc4 <USBD_StdEPReq+0x28c>
 8006ba6:	7bbb      	ldrb	r3, [r7, #14]
 8006ba8:	4619      	mov	r1, r3
 8006baa:	6878      	ldr	r0, [r7, #4]
 8006bac:	f000 ff04 	bl	80079b8 <USBD_LL_IsStallEP>
 8006bb0:	4603      	mov	r3, r0
 8006bb2:	2b00      	cmp	r3, #0
 8006bb4:	d003      	beq.n	8006bbe <USBD_StdEPReq+0x286>
 8006bb6:	68bb      	ldr	r3, [r7, #8]
 8006bb8:	2201      	movs	r2, #1
 8006bba:	601a      	str	r2, [r3, #0]
 8006bbc:	e002      	b.n	8006bc4 <USBD_StdEPReq+0x28c>
 8006bbe:	68bb      	ldr	r3, [r7, #8]
 8006bc0:	2200      	movs	r2, #0
 8006bc2:	601a      	str	r2, [r3, #0]
 8006bc4:	68bb      	ldr	r3, [r7, #8]
 8006bc6:	2202      	movs	r2, #2
 8006bc8:	4619      	mov	r1, r3
 8006bca:	6878      	ldr	r0, [r7, #4]
 8006bcc:	f000 fb95 	bl	80072fa <USBD_CtlSendData>
 8006bd0:	e004      	b.n	8006bdc <USBD_StdEPReq+0x2a4>
 8006bd2:	6839      	ldr	r1, [r7, #0]
 8006bd4:	6878      	ldr	r0, [r7, #4]
 8006bd6:	f000 fb26 	bl	8007226 <USBD_CtlError>
 8006bda:	bf00      	nop
 8006bdc:	e004      	b.n	8006be8 <USBD_StdEPReq+0x2b0>
 8006bde:	6839      	ldr	r1, [r7, #0]
 8006be0:	6878      	ldr	r0, [r7, #4]
 8006be2:	f000 fb20 	bl	8007226 <USBD_CtlError>
 8006be6:	bf00      	nop
 8006be8:	e004      	b.n	8006bf4 <USBD_StdEPReq+0x2bc>
 8006bea:	6839      	ldr	r1, [r7, #0]
 8006bec:	6878      	ldr	r0, [r7, #4]
 8006bee:	f000 fb1a 	bl	8007226 <USBD_CtlError>
 8006bf2:	bf00      	nop
 8006bf4:	7bfb      	ldrb	r3, [r7, #15]
 8006bf6:	4618      	mov	r0, r3
 8006bf8:	3710      	adds	r7, #16
 8006bfa:	46bd      	mov	sp, r7
 8006bfc:	bd80      	pop	{r7, pc}
	...

08006c00 <USBD_GetDescriptor>:
 8006c00:	b580      	push	{r7, lr}
 8006c02:	b084      	sub	sp, #16
 8006c04:	af00      	add	r7, sp, #0
 8006c06:	6078      	str	r0, [r7, #4]
 8006c08:	6039      	str	r1, [r7, #0]
 8006c0a:	2300      	movs	r3, #0
 8006c0c:	813b      	strh	r3, [r7, #8]
 8006c0e:	2300      	movs	r3, #0
 8006c10:	60fb      	str	r3, [r7, #12]
 8006c12:	2300      	movs	r3, #0
 8006c14:	72fb      	strb	r3, [r7, #11]
 8006c16:	683b      	ldr	r3, [r7, #0]
 8006c18:	885b      	ldrh	r3, [r3, #2]
 8006c1a:	0a1b      	lsrs	r3, r3, #8
 8006c1c:	b29b      	uxth	r3, r3
 8006c1e:	3b01      	subs	r3, #1
 8006c20:	2b06      	cmp	r3, #6
 8006c22:	f200 8128 	bhi.w	8006e76 <USBD_GetDescriptor+0x276>
 8006c26:	a201      	add	r2, pc, #4	; (adr r2, 8006c2c <USBD_GetDescriptor+0x2c>)
 8006c28:	f852 f023 	ldr.w	pc, [r2, r3, lsl #2]
 8006c2c:	08006c49 	.word	0x08006c49
 8006c30:	08006c61 	.word	0x08006c61
 8006c34:	08006ca1 	.word	0x08006ca1
 8006c38:	08006e77 	.word	0x08006e77
 8006c3c:	08006e77 	.word	0x08006e77
 8006c40:	08006e17 	.word	0x08006e17
 8006c44:	08006e43 	.word	0x08006e43
 8006c48:	687b      	ldr	r3, [r7, #4]
 8006c4a:	f8d3 32b0 	ldr.w	r3, [r3, #688]	; 0x2b0
 8006c4e:	681b      	ldr	r3, [r3, #0]
 8006c50:	687a      	ldr	r2, [r7, #4]
 8006c52:	7c12      	ldrb	r2, [r2, #16]
 8006c54:	f107 0108 	add.w	r1, r7, #8
 8006c58:	4610      	mov	r0, r2
 8006c5a:	4798      	blx	r3
 8006c5c:	60f8      	str	r0, [r7, #12]
 8006c5e:	e112      	b.n	8006e86 <USBD_GetDescriptor+0x286>
 8006c60:	687b      	ldr	r3, [r7, #4]
 8006c62:	7c1b      	ldrb	r3, [r3, #16]
 8006c64:	2b00      	cmp	r3, #0
 8006c66:	d10d      	bne.n	8006c84 <USBD_GetDescriptor+0x84>
 8006c68:	687b      	ldr	r3, [r7, #4]
 8006c6a:	f8d3 32b4 	ldr.w	r3, [r3, #692]	; 0x2b4
 8006c6e:	6a9b      	ldr	r3, [r3, #40]	; 0x28
 8006c70:	f107 0208 	add.w	r2, r7, #8
 8006c74:	4610      	mov	r0, r2
 8006c76:	4798      	blx	r3
 8006c78:	60f8      	str	r0, [r7, #12]
 8006c7a:	68fb      	ldr	r3, [r7, #12]
 8006c7c:	3301      	adds	r3, #1
 8006c7e:	2202      	movs	r2, #2
 8006c80:	701a      	strb	r2, [r3, #0]
 8006c82:	e100      	b.n	8006e86 <USBD_GetDescriptor+0x286>
 8006c84:	687b      	ldr	r3, [r7, #4]
 8006c86:	f8d3 32b4 	ldr.w	r3, [r3, #692]	; 0x2b4
 8006c8a:	6adb      	ldr	r3, [r3, #44]	; 0x2c
 8006c8c:	f107 0208 	add.w	r2, r7, #8
 8006c90:	4610      	mov	r0, r2
 8006c92:	4798      	blx	r3
 8006c94:	60f8      	str	r0, [r7, #12]
 8006c96:	68fb      	ldr	r3, [r7, #12]
 8006c98:	3301      	adds	r3, #1
 8006c9a:	2202      	movs	r2, #2
 8006c9c:	701a      	strb	r2, [r3, #0]
 8006c9e:	e0f2      	b.n	8006e86 <USBD_GetDescriptor+0x286>
 8006ca0:	683b      	ldr	r3, [r7, #0]
 8006ca2:	885b      	ldrh	r3, [r3, #2]
 8006ca4:	b2db      	uxtb	r3, r3
 8006ca6:	2b05      	cmp	r3, #5
 8006ca8:	f200 80ac 	bhi.w	8006e04 <USBD_GetDescriptor+0x204>
 8006cac:	a201      	add	r2, pc, #4	; (adr r2, 8006cb4 <USBD_GetDescriptor+0xb4>)
 8006cae:	f852 f023 	ldr.w	pc, [r2, r3, lsl #2]
 8006cb2:	bf00      	nop
 8006cb4:	08006ccd 	.word	0x08006ccd
 8006cb8:	08006d01 	.word	0x08006d01
 8006cbc:	08006d35 	.word	0x08006d35
 8006cc0:	08006d69 	.word	0x08006d69
 8006cc4:	08006d9d 	.word	0x08006d9d
 8006cc8:	08006dd1 	.word	0x08006dd1
 8006ccc:	687b      	ldr	r3, [r7, #4]
 8006cce:	f8d3 32b0 	ldr.w	r3, [r3, #688]	; 0x2b0
 8006cd2:	685b      	ldr	r3, [r3, #4]
 8006cd4:	2b00      	cmp	r3, #0
 8006cd6:	d00b      	beq.n	8006cf0 <USBD_GetDescriptor+0xf0>
 8006cd8:	687b      	ldr	r3, [r7, #4]
 8006cda:	f8d3 32b0 	ldr.w	r3, [r3, #688]	; 0x2b0
 8006cde:	685b      	ldr	r3, [r3, #4]
 8006ce0:	687a      	ldr	r2, [r7, #4]
 8006ce2:	7c12      	ldrb	r2, [r2, #16]
 8006ce4:	f107 0108 	add.w	r1, r7, #8
 8006ce8:	4610      	mov	r0, r2
 8006cea:	4798      	blx	r3
 8006cec:	60f8      	str	r0, [r7, #12]
 8006cee:	e091      	b.n	8006e14 <USBD_GetDescriptor+0x214>
 8006cf0:	6839      	ldr	r1, [r7, #0]
 8006cf2:	6878      	ldr	r0, [r7, #4]
 8006cf4:	f000 fa97 	bl	8007226 <USBD_CtlError>
 8006cf8:	7afb      	ldrb	r3, [r7, #11]
 8006cfa:	3301      	adds	r3, #1
 8006cfc:	72fb      	strb	r3, [r7, #11]
 8006cfe:	e089      	b.n	8006e14 <USBD_GetDescriptor+0x214>
 8006d00:	687b      	ldr	r3, [r7, #4]
 8006d02:	f8d3 32b0 	ldr.w	r3, [r3, #688]	; 0x2b0
 8006d06:	689b      	ldr	r3, [r3, #8]
 8006d08:	2b00      	cmp	r3, #0
 8006d0a:	d00b      	beq.n	8006d24 <USBD_GetDescriptor+0x124>
 8006d0c:	687b      	ldr	r3, [r7, #4]
 8006d0e:	f8d3 32b0 	ldr.w	r3, [r3, #688]	; 0x2b0
 8006d12:	689b      	ldr	r3, [r3, #8]
 8006d14:	687a      	ldr	r2, [r7, #4]
 8006d16:	7c12      	ldrb	r2, [r2, #16]
 8006d18:	f107 0108 	add.w	r1, r7, #8
 8006d1c:	4610      	mov	r0, r2
 8006d1e:	4798      	blx	r3
 8006d20:	60f8      	str	r0, [r7, #12]
 8006d22:	e077      	b.n	8006e14 <USBD_GetDescriptor+0x214>
 8006d24:	6839      	ldr	r1, [r7, #0]
 8006d26:	6878      	ldr	r0, [r7, #4]
 8006d28:	f000 fa7d 	bl	8007226 <USBD_CtlError>
 8006d2c:	7afb      	ldrb	r3, [r7, #11]
 8006d2e:	3301      	adds	r3, #1
 8006d30:	72fb      	strb	r3, [r7, #11]
 8006d32:	e06f      	b.n	8006e14 <USBD_GetDescriptor+0x214>
 8006d34:	687b      	ldr	r3, [r7, #4]
 8006d36:	f8d3 32b0 	ldr.w	r3, [r3, #688]	; 0x2b0
 8006d3a:	68db      	ldr	r3, [r3, #12]
 8006d3c:	2b00      	cmp	r3, #0
 8006d3e:	d00b      	beq.n	8006d58 <USBD_GetDescriptor+0x158>
 8006d40:	687b      	ldr	r3, [r7, #4]
 8006d42:	f8d3 32b0 	ldr.w	r3, [r3, #688]	; 0x2b0
 8006d46:	68db      	ldr	r3, [r3, #12]
 8006d48:	687a      	ldr	r2, [r7, #4]
 8006d4a:	7c12      	ldrb	r2, [r2, #16]
 8006d4c:	f107 0108 	add.w	r1, r7, #8
 8006d50:	4610      	mov	r0, r2
 8006d52:	4798      	blx	r3
 8006d54:	60f8      	str	r0, [r7, #12]
 8006d56:	e05d      	b.n	8006e14 <USBD_GetDescriptor+0x214>
 8006d58:	6839      	ldr	r1, [r7, #0]
 8006d5a:	6878      	ldr	r0, [r7, #4]
 8006d5c:	f000 fa63 	bl	8007226 <USBD_CtlError>
 8006d60:	7afb      	ldrb	r3, [r7, #11]
 8006d62:	3301      	adds	r3, #1
 8006d64:	72fb      	strb	r3, [r7, #11]
 8006d66:	e055      	b.n	8006e14 <USBD_GetDescriptor+0x214>
 8006d68:	687b      	ldr	r3, [r7, #4]
 8006d6a:	f8d3 32b0 	ldr.w	r3, [r3, #688]	; 0x2b0
 8006d6e:	691b      	ldr	r3, [r3, #16]
 8006d70:	2b00      	cmp	r3, #0
 8006d72:	d00b      	beq.n	8006d8c <USBD_GetDescriptor+0x18c>
 8006d74:	687b      	ldr	r3, [r7, #4]
 8006d76:	f8d3 32b0 	ldr.w	r3, [r3, #688]	; 0x2b0
 8006d7a:	691b      	ldr	r3, [r3, #16]
 8006d7c:	687a      	ldr	r2, [r7, #4]
 8006d7e:	7c12      	ldrb	r2, [r2, #16]
 8006d80:	f107 0108 	add.w	r1, r7, #8
 8006d84:	4610      	mov	r0, r2
 8006d86:	4798      	blx	r3
 8006d88:	60f8      	str	r0, [r7, #12]
 8006d8a:	e043      	b.n	8006e14 <USBD_GetDescriptor+0x214>
 8006d8c:	6839      	ldr	r1, [r7, #0]
 8006d8e:	6878      	ldr	r0, [r7, #4]
 8006d90:	f000 fa49 	bl	8007226 <USBD_CtlError>
 8006d94:	7afb      	ldrb	r3, [r7, #11]
 8006d96:	3301      	adds	r3, #1
 8006d98:	72fb      	strb	r3, [r7, #11]
 8006d9a:	e03b      	b.n	8006e14 <USBD_GetDescriptor+0x214>
 8006d9c:	687b      	ldr	r3, [r7, #4]
 8006d9e:	f8d3 32b0 	ldr.w	r3, [r3, #688]	; 0x2b0
 8006da2:	695b      	ldr	r3, [r3, #20]
 8006da4:	2b00      	cmp	r3, #0
 8006da6:	d00b      	beq.n	8006dc0 <USBD_GetDescriptor+0x1c0>
 8006da8:	687b      	ldr	r3, [r7, #4]
 8006daa:	f8d3 32b0 	ldr.w	r3, [r3, #688]	; 0x2b0
 8006dae:	695b      	ldr	r3, [r3, #20]
 8006db0:	687a      	ldr	r2, [r7, #4]
 8006db2:	7c12      	ldrb	r2, [r2, #16]
 8006db4:	f107 0108 	add.w	r1, r7, #8
 8006db8:	4610      	mov	r0, r2
 8006dba:	4798      	blx	r3
 8006dbc:	60f8      	str	r0, [r7, #12]
 8006dbe:	e029      	b.n	8006e14 <USBD_GetDescriptor+0x214>
 8006dc0:	6839      	ldr	r1, [r7, #0]
 8006dc2:	6878      	ldr	r0, [r7, #4]
 8006dc4:	f000 fa2f 	bl	8007226 <USBD_CtlError>
 8006dc8:	7afb      	ldrb	r3, [r7, #11]
 8006dca:	3301      	adds	r3, #1
 8006dcc:	72fb      	strb	r3, [r7, #11]
 8006dce:	e021      	b.n	8006e14 <USBD_GetDescriptor+0x214>
 8006dd0:	687b      	ldr	r3, [r7, #4]
 8006dd2:	f8d3 32b0 	ldr.w	r3, [r3, #688]	; 0x2b0
 8006dd6:	699b      	ldr	r3, [r3, #24]
 8006dd8:	2b00      	cmp	r3, #0
 8006dda:	d00b      	beq.n	8006df4 <USBD_GetDescriptor+0x1f4>
 8006ddc:	687b      	ldr	r3, [r7, #4]
 8006dde:	f8d3 32b0 	ldr.w	r3, [r3, #688]	; 0x2b0
 8006de2:	699b      	ldr	r3, [r3, #24]
 8006de4:	687a      	ldr	r2, [r7, #4]
 8006de6:	7c12      	ldrb	r2, [r2, #16]
 8006de8:	f107 0108 	add.w	r1, r7, #8
 8006dec:	4610      	mov	r0, r2
 8006dee:	4798      	blx	r3
 8006df0:	60f8      	str	r0, [r7, #12]
 8006df2:	e00f      	b.n	8006e14 <USBD_GetDescriptor+0x214>
 8006df4:	6839      	ldr	r1, [r7, #0]
 8006df6:	6878      	ldr	r0, [r7, #4]
 8006df8:	f000 fa15 	bl	8007226 <USBD_CtlError>
 8006dfc:	7afb      	ldrb	r3, [r7, #11]
 8006dfe:	3301      	adds	r3, #1
 8006e00:	72fb      	strb	r3, [r7, #11]
 8006e02:	e007      	b.n	8006e14 <USBD_GetDescriptor+0x214>
 8006e04:	6839      	ldr	r1, [r7, #0]
 8006e06:	6878      	ldr	r0, [r7, #4]
 8006e08:	f000 fa0d 	bl	8007226 <USBD_CtlError>
 8006e0c:	7afb      	ldrb	r3, [r7, #11]
 8006e0e:	3301      	adds	r3, #1
 8006e10:	72fb      	strb	r3, [r7, #11]
 8006e12:	e038      	b.n	8006e86 <USBD_GetDescriptor+0x286>
 8006e14:	e037      	b.n	8006e86 <USBD_GetDescriptor+0x286>
 8006e16:	687b      	ldr	r3, [r7, #4]
 8006e18:	7c1b      	ldrb	r3, [r3, #16]
 8006e1a:	2b00      	cmp	r3, #0
 8006e1c:	d109      	bne.n	8006e32 <USBD_GetDescriptor+0x232>
 8006e1e:	687b      	ldr	r3, [r7, #4]
 8006e20:	f8d3 32b4 	ldr.w	r3, [r3, #692]	; 0x2b4
 8006e24:	6b5b      	ldr	r3, [r3, #52]	; 0x34
 8006e26:	f107 0208 	add.w	r2, r7, #8
 8006e2a:	4610      	mov	r0, r2
 8006e2c:	4798      	blx	r3
 8006e2e:	60f8      	str	r0, [r7, #12]
 8006e30:	e029      	b.n	8006e86 <USBD_GetDescriptor+0x286>
 8006e32:	6839      	ldr	r1, [r7, #0]
 8006e34:	6878      	ldr	r0, [r7, #4]
 8006e36:	f000 f9f6 	bl	8007226 <USBD_CtlError>
 8006e3a:	7afb      	ldrb	r3, [r7, #11]
 8006e3c:	3301      	adds	r3, #1
 8006e3e:	72fb      	strb	r3, [r7, #11]
 8006e40:	e021      	b.n	8006e86 <USBD_GetDescriptor+0x286>
 8006e42:	687b      	ldr	r3, [r7, #4]
 8006e44:	7c1b      	ldrb	r3, [r3, #16]
 8006e46:	2b00      	cmp	r3, #0
 8006e48:	d10d      	bne.n	8006e66 <USBD_GetDescriptor+0x266>
 8006e4a:	687b      	ldr	r3, [r7, #4]
 8006e4c:	f8d3 32b4 	ldr.w	r3, [r3, #692]	; 0x2b4
 8006e50:	6b1b      	ldr	r3, [r3, #48]	; 0x30
 8006e52:	f107 0208 	add.w	r2, r7, #8
 8006e56:	4610      	mov	r0, r2
 8006e58:	4798      	blx	r3
 8006e5a:	60f8      	str	r0, [r7, #12]
 8006e5c:	68fb      	ldr	r3, [r7, #12]
 8006e5e:	3301      	adds	r3, #1
 8006e60:	2207      	movs	r2, #7
 8006e62:	701a      	strb	r2, [r3, #0]
 8006e64:	e00f      	b.n	8006e86 <USBD_GetDescriptor+0x286>
 8006e66:	6839      	ldr	r1, [r7, #0]
 8006e68:	6878      	ldr	r0, [r7, #4]
 8006e6a:	f000 f9dc 	bl	8007226 <USBD_CtlError>
 8006e6e:	7afb      	ldrb	r3, [r7, #11]
 8006e70:	3301      	adds	r3, #1
 8006e72:	72fb      	strb	r3, [r7, #11]
 8006e74:	e007      	b.n	8006e86 <USBD_GetDescriptor+0x286>
 8006e76:	6839      	ldr	r1, [r7, #0]
 8006e78:	6878      	ldr	r0, [r7, #4]
 8006e7a:	f000 f9d4 	bl	8007226 <USBD_CtlError>
 8006e7e:	7afb      	ldrb	r3, [r7, #11]
 8006e80:	3301      	adds	r3, #1
 8006e82:	72fb      	strb	r3, [r7, #11]
 8006e84:	bf00      	nop
 8006e86:	7afb      	ldrb	r3, [r7, #11]
 8006e88:	2b00      	cmp	r3, #0
 8006e8a:	d11c      	bne.n	8006ec6 <USBD_GetDescriptor+0x2c6>
 8006e8c:	893b      	ldrh	r3, [r7, #8]
 8006e8e:	2b00      	cmp	r3, #0
 8006e90:	d011      	beq.n	8006eb6 <USBD_GetDescriptor+0x2b6>
 8006e92:	683b      	ldr	r3, [r7, #0]
 8006e94:	88db      	ldrh	r3, [r3, #6]
 8006e96:	2b00      	cmp	r3, #0
 8006e98:	d00d      	beq.n	8006eb6 <USBD_GetDescriptor+0x2b6>
 8006e9a:	683b      	ldr	r3, [r7, #0]
 8006e9c:	88da      	ldrh	r2, [r3, #6]
 8006e9e:	893b      	ldrh	r3, [r7, #8]
 8006ea0:	4293      	cmp	r3, r2
 8006ea2:	bf28      	it	cs
 8006ea4:	4613      	movcs	r3, r2
 8006ea6:	b29b      	uxth	r3, r3
 8006ea8:	813b      	strh	r3, [r7, #8]
 8006eaa:	893b      	ldrh	r3, [r7, #8]
 8006eac:	461a      	mov	r2, r3
 8006eae:	68f9      	ldr	r1, [r7, #12]
 8006eb0:	6878      	ldr	r0, [r7, #4]
 8006eb2:	f000 fa22 	bl	80072fa <USBD_CtlSendData>
 8006eb6:	683b      	ldr	r3, [r7, #0]
 8006eb8:	88db      	ldrh	r3, [r3, #6]
 8006eba:	2b00      	cmp	r3, #0
 8006ebc:	d104      	bne.n	8006ec8 <USBD_GetDescriptor+0x2c8>
 8006ebe:	6878      	ldr	r0, [r7, #4]
 8006ec0:	f000 fa5b 	bl	800737a <USBD_CtlSendStatus>
 8006ec4:	e000      	b.n	8006ec8 <USBD_GetDescriptor+0x2c8>
 8006ec6:	bf00      	nop
 8006ec8:	3710      	adds	r7, #16
 8006eca:	46bd      	mov	sp, r7
 8006ecc:	bd80      	pop	{r7, pc}
 8006ece:	bf00      	nop

08006ed0 <USBD_SetAddress>:
 8006ed0:	b580      	push	{r7, lr}
 8006ed2:	b084      	sub	sp, #16
 8006ed4:	af00      	add	r7, sp, #0
 8006ed6:	6078      	str	r0, [r7, #4]
 8006ed8:	6039      	str	r1, [r7, #0]
 8006eda:	683b      	ldr	r3, [r7, #0]
 8006edc:	889b      	ldrh	r3, [r3, #4]
 8006ede:	2b00      	cmp	r3, #0
 8006ee0:	d130      	bne.n	8006f44 <USBD_SetAddress+0x74>
 8006ee2:	683b      	ldr	r3, [r7, #0]
 8006ee4:	88db      	ldrh	r3, [r3, #6]
 8006ee6:	2b00      	cmp	r3, #0
 8006ee8:	d12c      	bne.n	8006f44 <USBD_SetAddress+0x74>
 8006eea:	683b      	ldr	r3, [r7, #0]
 8006eec:	885b      	ldrh	r3, [r3, #2]
 8006eee:	2b7f      	cmp	r3, #127	; 0x7f
 8006ef0:	d828      	bhi.n	8006f44 <USBD_SetAddress+0x74>
 8006ef2:	683b      	ldr	r3, [r7, #0]
 8006ef4:	885b      	ldrh	r3, [r3, #2]
 8006ef6:	b2db      	uxtb	r3, r3
 8006ef8:	f003 037f 	and.w	r3, r3, #127	; 0x7f
 8006efc:	73fb      	strb	r3, [r7, #15]
 8006efe:	687b      	ldr	r3, [r7, #4]
 8006f00:	f893 329c 	ldrb.w	r3, [r3, #668]	; 0x29c
 8006f04:	2b03      	cmp	r3, #3
 8006f06:	d104      	bne.n	8006f12 <USBD_SetAddress+0x42>
 8006f08:	6839      	ldr	r1, [r7, #0]
 8006f0a:	6878      	ldr	r0, [r7, #4]
 8006f0c:	f000 f98b 	bl	8007226 <USBD_CtlError>
 8006f10:	e01d      	b.n	8006f4e <USBD_SetAddress+0x7e>
 8006f12:	687b      	ldr	r3, [r7, #4]
 8006f14:	7bfa      	ldrb	r2, [r7, #15]
 8006f16:	f883 229e 	strb.w	r2, [r3, #670]	; 0x29e
 8006f1a:	7bfb      	ldrb	r3, [r7, #15]
 8006f1c:	4619      	mov	r1, r3
 8006f1e:	6878      	ldr	r0, [r7, #4]
 8006f20:	f000 fd76 	bl	8007a10 <USBD_LL_SetUSBAddress>
 8006f24:	6878      	ldr	r0, [r7, #4]
 8006f26:	f000 fa28 	bl	800737a <USBD_CtlSendStatus>
 8006f2a:	7bfb      	ldrb	r3, [r7, #15]
 8006f2c:	2b00      	cmp	r3, #0
 8006f2e:	d004      	beq.n	8006f3a <USBD_SetAddress+0x6a>
 8006f30:	687b      	ldr	r3, [r7, #4]
 8006f32:	2202      	movs	r2, #2
 8006f34:	f883 229c 	strb.w	r2, [r3, #668]	; 0x29c
 8006f38:	e009      	b.n	8006f4e <USBD_SetAddress+0x7e>
 8006f3a:	687b      	ldr	r3, [r7, #4]
 8006f3c:	2201      	movs	r2, #1
 8006f3e:	f883 229c 	strb.w	r2, [r3, #668]	; 0x29c
 8006f42:	e004      	b.n	8006f4e <USBD_SetAddress+0x7e>
 8006f44:	6839      	ldr	r1, [r7, #0]
 8006f46:	6878      	ldr	r0, [r7, #4]
 8006f48:	f000 f96d 	bl	8007226 <USBD_CtlError>
 8006f4c:	bf00      	nop
 8006f4e:	bf00      	nop
 8006f50:	3710      	adds	r7, #16
 8006f52:	46bd      	mov	sp, r7
 8006f54:	bd80      	pop	{r7, pc}
	...

08006f58 <USBD_SetConfig>:
 8006f58:	b580      	push	{r7, lr}
 8006f5a:	b082      	sub	sp, #8
 8006f5c:	af00      	add	r7, sp, #0
 8006f5e:	6078      	str	r0, [r7, #4]
 8006f60:	6039      	str	r1, [r7, #0]
 8006f62:	683b      	ldr	r3, [r7, #0]
 8006f64:	885b      	ldrh	r3, [r3, #2]
 8006f66:	b2da      	uxtb	r2, r3
 8006f68:	4b41      	ldr	r3, [pc, #260]	; (8007070 <USBD_SetConfig+0x118>)
 8006f6a:	701a      	strb	r2, [r3, #0]
 8006f6c:	4b40      	ldr	r3, [pc, #256]	; (8007070 <USBD_SetConfig+0x118>)
 8006f6e:	781b      	ldrb	r3, [r3, #0]
 8006f70:	2b01      	cmp	r3, #1
 8006f72:	d904      	bls.n	8006f7e <USBD_SetConfig+0x26>
 8006f74:	6839      	ldr	r1, [r7, #0]
 8006f76:	6878      	ldr	r0, [r7, #4]
 8006f78:	f000 f955 	bl	8007226 <USBD_CtlError>
 8006f7c:	e075      	b.n	800706a <USBD_SetConfig+0x112>
 8006f7e:	687b      	ldr	r3, [r7, #4]
 8006f80:	f893 329c 	ldrb.w	r3, [r3, #668]	; 0x29c
 8006f84:	2b02      	cmp	r3, #2
 8006f86:	d002      	beq.n	8006f8e <USBD_SetConfig+0x36>
 8006f88:	2b03      	cmp	r3, #3
 8006f8a:	d023      	beq.n	8006fd4 <USBD_SetConfig+0x7c>
 8006f8c:	e062      	b.n	8007054 <USBD_SetConfig+0xfc>
 8006f8e:	4b38      	ldr	r3, [pc, #224]	; (8007070 <USBD_SetConfig+0x118>)
 8006f90:	781b      	ldrb	r3, [r3, #0]
 8006f92:	2b00      	cmp	r3, #0
 8006f94:	d01a      	beq.n	8006fcc <USBD_SetConfig+0x74>
 8006f96:	4b36      	ldr	r3, [pc, #216]	; (8007070 <USBD_SetConfig+0x118>)
 8006f98:	781b      	ldrb	r3, [r3, #0]
 8006f9a:	461a      	mov	r2, r3
 8006f9c:	687b      	ldr	r3, [r7, #4]
 8006f9e:	605a      	str	r2, [r3, #4]
 8006fa0:	687b      	ldr	r3, [r7, #4]
 8006fa2:	2203      	movs	r2, #3
 8006fa4:	f883 229c 	strb.w	r2, [r3, #668]	; 0x29c
 8006fa8:	4b31      	ldr	r3, [pc, #196]	; (8007070 <USBD_SetConfig+0x118>)
 8006faa:	781b      	ldrb	r3, [r3, #0]
 8006fac:	4619      	mov	r1, r3
 8006fae:	6878      	ldr	r0, [r7, #4]
 8006fb0:	f7ff f9e7 	bl	8006382 <USBD_SetClassConfig>
 8006fb4:	4603      	mov	r3, r0
 8006fb6:	2b02      	cmp	r3, #2
 8006fb8:	d104      	bne.n	8006fc4 <USBD_SetConfig+0x6c>
 8006fba:	6839      	ldr	r1, [r7, #0]
 8006fbc:	6878      	ldr	r0, [r7, #4]
 8006fbe:	f000 f932 	bl	8007226 <USBD_CtlError>
 8006fc2:	e052      	b.n	800706a <USBD_SetConfig+0x112>
 8006fc4:	6878      	ldr	r0, [r7, #4]
 8006fc6:	f000 f9d8 	bl	800737a <USBD_CtlSendStatus>
 8006fca:	e04e      	b.n	800706a <USBD_SetConfig+0x112>
 8006fcc:	6878      	ldr	r0, [r7, #4]
 8006fce:	f000 f9d4 	bl	800737a <USBD_CtlSendStatus>
 8006fd2:	e04a      	b.n	800706a <USBD_SetConfig+0x112>
 8006fd4:	4b26      	ldr	r3, [pc, #152]	; (8007070 <USBD_SetConfig+0x118>)
 8006fd6:	781b      	ldrb	r3, [r3, #0]
 8006fd8:	2b00      	cmp	r3, #0
 8006fda:	d112      	bne.n	8007002 <USBD_SetConfig+0xaa>
 8006fdc:	687b      	ldr	r3, [r7, #4]
 8006fde:	2202      	movs	r2, #2
 8006fe0:	f883 229c 	strb.w	r2, [r3, #668]	; 0x29c
 8006fe4:	4b22      	ldr	r3, [pc, #136]	; (8007070 <USBD_SetConfig+0x118>)
 8006fe6:	781b      	ldrb	r3, [r3, #0]
 8006fe8:	461a      	mov	r2, r3
 8006fea:	687b      	ldr	r3, [r7, #4]
 8006fec:	605a      	str	r2, [r3, #4]
 8006fee:	4b20      	ldr	r3, [pc, #128]	; (8007070 <USBD_SetConfig+0x118>)
 8006ff0:	781b      	ldrb	r3, [r3, #0]
 8006ff2:	4619      	mov	r1, r3
 8006ff4:	6878      	ldr	r0, [r7, #4]
 8006ff6:	f7ff f9e3 	bl	80063c0 <USBD_ClrClassConfig>
 8006ffa:	6878      	ldr	r0, [r7, #4]
 8006ffc:	f000 f9bd 	bl	800737a <USBD_CtlSendStatus>
 8007000:	e033      	b.n	800706a <USBD_SetConfig+0x112>
 8007002:	4b1b      	ldr	r3, [pc, #108]	; (8007070 <USBD_SetConfig+0x118>)
 8007004:	781b      	ldrb	r3, [r3, #0]
 8007006:	461a      	mov	r2, r3
 8007008:	687b      	ldr	r3, [r7, #4]
 800700a:	685b      	ldr	r3, [r3, #4]
 800700c:	429a      	cmp	r2, r3
 800700e:	d01d      	beq.n	800704c <USBD_SetConfig+0xf4>
 8007010:	687b      	ldr	r3, [r7, #4]
 8007012:	685b      	ldr	r3, [r3, #4]
 8007014:	b2db      	uxtb	r3, r3
 8007016:	4619      	mov	r1, r3
 8007018:	6878      	ldr	r0, [r7, #4]
 800701a:	f7ff f9d1 	bl	80063c0 <USBD_ClrClassConfig>
 800701e:	4b14      	ldr	r3, [pc, #80]	; (8007070 <USBD_SetConfig+0x118>)
 8007020:	781b      	ldrb	r3, [r3, #0]
 8007022:	461a      	mov	r2, r3
 8007024:	687b      	ldr	r3, [r7, #4]
 8007026:	605a      	str	r2, [r3, #4]
 8007028:	4b11      	ldr	r3, [pc, #68]	; (8007070 <USBD_SetConfig+0x118>)
 800702a:	781b      	ldrb	r3, [r3, #0]
 800702c:	4619      	mov	r1, r3
 800702e:	6878      	ldr	r0, [r7, #4]
 8007030:	f7ff f9a7 	bl	8006382 <USBD_SetClassConfig>
 8007034:	4603      	mov	r3, r0
 8007036:	2b02      	cmp	r3, #2
 8007038:	d104      	bne.n	8007044 <USBD_SetConfig+0xec>
 800703a:	6839      	ldr	r1, [r7, #0]
 800703c:	6878      	ldr	r0, [r7, #4]
 800703e:	f000 f8f2 	bl	8007226 <USBD_CtlError>
 8007042:	e012      	b.n	800706a <USBD_SetConfig+0x112>
 8007044:	6878      	ldr	r0, [r7, #4]
 8007046:	f000 f998 	bl	800737a <USBD_CtlSendStatus>
 800704a:	e00e      	b.n	800706a <USBD_SetConfig+0x112>
 800704c:	6878      	ldr	r0, [r7, #4]
 800704e:	f000 f994 	bl	800737a <USBD_CtlSendStatus>
 8007052:	e00a      	b.n	800706a <USBD_SetConfig+0x112>
 8007054:	6839      	ldr	r1, [r7, #0]
 8007056:	6878      	ldr	r0, [r7, #4]
 8007058:	f000 f8e5 	bl	8007226 <USBD_CtlError>
 800705c:	4b04      	ldr	r3, [pc, #16]	; (8007070 <USBD_SetConfig+0x118>)
 800705e:	781b      	ldrb	r3, [r3, #0]
 8007060:	4619      	mov	r1, r3
 8007062:	6878      	ldr	r0, [r7, #4]
 8007064:	f7ff f9ac 	bl	80063c0 <USBD_ClrClassConfig>
 8007068:	bf00      	nop
 800706a:	3708      	adds	r7, #8
 800706c:	46bd      	mov	sp, r7
 800706e:	bd80      	pop	{r7, pc}
 8007070:	20000a55 	.word	0x20000a55

08007074 <USBD_GetConfig>:
 8007074:	b580      	push	{r7, lr}
 8007076:	b082      	sub	sp, #8
 8007078:	af00      	add	r7, sp, #0
 800707a:	6078      	str	r0, [r7, #4]
 800707c:	6039      	str	r1, [r7, #0]
 800707e:	683b      	ldr	r3, [r7, #0]
 8007080:	88db      	ldrh	r3, [r3, #6]
 8007082:	2b01      	cmp	r3, #1
 8007084:	d004      	beq.n	8007090 <USBD_GetConfig+0x1c>
 8007086:	6839      	ldr	r1, [r7, #0]
 8007088:	6878      	ldr	r0, [r7, #4]
 800708a:	f000 f8cc 	bl	8007226 <USBD_CtlError>
 800708e:	e022      	b.n	80070d6 <USBD_GetConfig+0x62>
 8007090:	687b      	ldr	r3, [r7, #4]
 8007092:	f893 329c 	ldrb.w	r3, [r3, #668]	; 0x29c
 8007096:	2b02      	cmp	r3, #2
 8007098:	dc02      	bgt.n	80070a0 <USBD_GetConfig+0x2c>
 800709a:	2b00      	cmp	r3, #0
 800709c:	dc03      	bgt.n	80070a6 <USBD_GetConfig+0x32>
 800709e:	e015      	b.n	80070cc <USBD_GetConfig+0x58>
 80070a0:	2b03      	cmp	r3, #3
 80070a2:	d00b      	beq.n	80070bc <USBD_GetConfig+0x48>
 80070a4:	e012      	b.n	80070cc <USBD_GetConfig+0x58>
 80070a6:	687b      	ldr	r3, [r7, #4]
 80070a8:	2200      	movs	r2, #0
 80070aa:	609a      	str	r2, [r3, #8]
 80070ac:	687b      	ldr	r3, [r7, #4]
 80070ae:	3308      	adds	r3, #8
 80070b0:	2201      	movs	r2, #1
 80070b2:	4619      	mov	r1, r3
 80070b4:	6878      	ldr	r0, [r7, #4]
 80070b6:	f000 f920 	bl	80072fa <USBD_CtlSendData>
 80070ba:	e00c      	b.n	80070d6 <USBD_GetConfig+0x62>
 80070bc:	687b      	ldr	r3, [r7, #4]
 80070be:	3304      	adds	r3, #4
 80070c0:	2201      	movs	r2, #1
 80070c2:	4619      	mov	r1, r3
 80070c4:	6878      	ldr	r0, [r7, #4]
 80070c6:	f000 f918 	bl	80072fa <USBD_CtlSendData>
 80070ca:	e004      	b.n	80070d6 <USBD_GetConfig+0x62>
 80070cc:	6839      	ldr	r1, [r7, #0]
 80070ce:	6878      	ldr	r0, [r7, #4]
 80070d0:	f000 f8a9 	bl	8007226 <USBD_CtlError>
 80070d4:	bf00      	nop
 80070d6:	bf00      	nop
 80070d8:	3708      	adds	r7, #8
 80070da:	46bd      	mov	sp, r7
 80070dc:	bd80      	pop	{r7, pc}

080070de <USBD_GetStatus>:
 80070de:	b580      	push	{r7, lr}
 80070e0:	b082      	sub	sp, #8
 80070e2:	af00      	add	r7, sp, #0
 80070e4:	6078      	str	r0, [r7, #4]
 80070e6:	6039      	str	r1, [r7, #0]
 80070e8:	687b      	ldr	r3, [r7, #4]
 80070ea:	f893 329c 	ldrb.w	r3, [r3, #668]	; 0x29c
 80070ee:	3b01      	subs	r3, #1
 80070f0:	2b02      	cmp	r3, #2
 80070f2:	d81e      	bhi.n	8007132 <USBD_GetStatus+0x54>
 80070f4:	683b      	ldr	r3, [r7, #0]
 80070f6:	88db      	ldrh	r3, [r3, #6]
 80070f8:	2b02      	cmp	r3, #2
 80070fa:	d004      	beq.n	8007106 <USBD_GetStatus+0x28>
 80070fc:	6839      	ldr	r1, [r7, #0]
 80070fe:	6878      	ldr	r0, [r7, #4]
 8007100:	f000 f891 	bl	8007226 <USBD_CtlError>
 8007104:	e01a      	b.n	800713c <USBD_GetStatus+0x5e>
 8007106:	687b      	ldr	r3, [r7, #4]
 8007108:	2201      	movs	r2, #1
 800710a:	60da      	str	r2, [r3, #12]
 800710c:	687b      	ldr	r3, [r7, #4]
 800710e:	f8d3 32a4 	ldr.w	r3, [r3, #676]	; 0x2a4
 8007112:	2b00      	cmp	r3, #0
 8007114:	d005      	beq.n	8007122 <USBD_GetStatus+0x44>
 8007116:	687b      	ldr	r3, [r7, #4]
 8007118:	68db      	ldr	r3, [r3, #12]
 800711a:	f043 0202 	orr.w	r2, r3, #2
 800711e:	687b      	ldr	r3, [r7, #4]
 8007120:	60da      	str	r2, [r3, #12]
 8007122:	687b      	ldr	r3, [r7, #4]
 8007124:	330c      	adds	r3, #12
 8007126:	2202      	movs	r2, #2
 8007128:	4619      	mov	r1, r3
 800712a:	6878      	ldr	r0, [r7, #4]
 800712c:	f000 f8e5 	bl	80072fa <USBD_CtlSendData>
 8007130:	e004      	b.n	800713c <USBD_GetStatus+0x5e>
 8007132:	6839      	ldr	r1, [r7, #0]
 8007134:	6878      	ldr	r0, [r7, #4]
 8007136:	f000 f876 	bl	8007226 <USBD_CtlError>
 800713a:	bf00      	nop
 800713c:	bf00      	nop
 800713e:	3708      	adds	r7, #8
 8007140:	46bd      	mov	sp, r7
 8007142:	bd80      	pop	{r7, pc}

08007144 <USBD_SetFeature>:
 8007144:	b580      	push	{r7, lr}
 8007146:	b082      	sub	sp, #8
 8007148:	af00      	add	r7, sp, #0
 800714a:	6078      	str	r0, [r7, #4]
 800714c:	6039      	str	r1, [r7, #0]
 800714e:	683b      	ldr	r3, [r7, #0]
 8007150:	885b      	ldrh	r3, [r3, #2]
 8007152:	2b01      	cmp	r3, #1
 8007154:	d106      	bne.n	8007164 <USBD_SetFeature+0x20>
 8007156:	687b      	ldr	r3, [r7, #4]
 8007158:	2201      	movs	r2, #1
 800715a:	f8c3 22a4 	str.w	r2, [r3, #676]	; 0x2a4
 800715e:	6878      	ldr	r0, [r7, #4]
 8007160:	f000 f90b 	bl	800737a <USBD_CtlSendStatus>
 8007164:	bf00      	nop
 8007166:	3708      	adds	r7, #8
 8007168:	46bd      	mov	sp, r7
 800716a:	bd80      	pop	{r7, pc}

0800716c <USBD_ClrFeature>:
 800716c:	b580      	push	{r7, lr}
 800716e:	b082      	sub	sp, #8
 8007170:	af00      	add	r7, sp, #0
 8007172:	6078      	str	r0, [r7, #4]
 8007174:	6039      	str	r1, [r7, #0]
 8007176:	687b      	ldr	r3, [r7, #4]
 8007178:	f893 329c 	ldrb.w	r3, [r3, #668]	; 0x29c
 800717c:	3b01      	subs	r3, #1
 800717e:	2b02      	cmp	r3, #2
 8007180:	d80b      	bhi.n	800719a <USBD_ClrFeature+0x2e>
 8007182:	683b      	ldr	r3, [r7, #0]
 8007184:	885b      	ldrh	r3, [r3, #2]
 8007186:	2b01      	cmp	r3, #1
 8007188:	d10c      	bne.n	80071a4 <USBD_ClrFeature+0x38>
 800718a:	687b      	ldr	r3, [r7, #4]
 800718c:	2200      	movs	r2, #0
 800718e:	f8c3 22a4 	str.w	r2, [r3, #676]	; 0x2a4
 8007192:	6878      	ldr	r0, [r7, #4]
 8007194:	f000 f8f1 	bl	800737a <USBD_CtlSendStatus>
 8007198:	e004      	b.n	80071a4 <USBD_ClrFeature+0x38>
 800719a:	6839      	ldr	r1, [r7, #0]
 800719c:	6878      	ldr	r0, [r7, #4]
 800719e:	f000 f842 	bl	8007226 <USBD_CtlError>
 80071a2:	e000      	b.n	80071a6 <USBD_ClrFeature+0x3a>
 80071a4:	bf00      	nop
 80071a6:	bf00      	nop
 80071a8:	3708      	adds	r7, #8
 80071aa:	46bd      	mov	sp, r7
 80071ac:	bd80      	pop	{r7, pc}

080071ae <USBD_ParseSetupRequest>:
 80071ae:	b480      	push	{r7}
 80071b0:	b083      	sub	sp, #12
 80071b2:	af00      	add	r7, sp, #0
 80071b4:	6078      	str	r0, [r7, #4]
 80071b6:	6039      	str	r1, [r7, #0]
 80071b8:	683b      	ldr	r3, [r7, #0]
 80071ba:	781a      	ldrb	r2, [r3, #0]
 80071bc:	687b      	ldr	r3, [r7, #4]
 80071be:	701a      	strb	r2, [r3, #0]
 80071c0:	683b      	ldr	r3, [r7, #0]
 80071c2:	785a      	ldrb	r2, [r3, #1]
 80071c4:	687b      	ldr	r3, [r7, #4]
 80071c6:	705a      	strb	r2, [r3, #1]
 80071c8:	683b      	ldr	r3, [r7, #0]
 80071ca:	3302      	adds	r3, #2
 80071cc:	781b      	ldrb	r3, [r3, #0]
 80071ce:	b29a      	uxth	r2, r3
 80071d0:	683b      	ldr	r3, [r7, #0]
 80071d2:	3303      	adds	r3, #3
 80071d4:	781b      	ldrb	r3, [r3, #0]
 80071d6:	b29b      	uxth	r3, r3
 80071d8:	021b      	lsls	r3, r3, #8
 80071da:	b29b      	uxth	r3, r3
 80071dc:	4413      	add	r3, r2
 80071de:	b29a      	uxth	r2, r3
 80071e0:	687b      	ldr	r3, [r7, #4]
 80071e2:	805a      	strh	r2, [r3, #2]
 80071e4:	683b      	ldr	r3, [r7, #0]
 80071e6:	3304      	adds	r3, #4
 80071e8:	781b      	ldrb	r3, [r3, #0]
 80071ea:	b29a      	uxth	r2, r3
 80071ec:	683b      	ldr	r3, [r7, #0]
 80071ee:	3305      	adds	r3, #5
 80071f0:	781b      	ldrb	r3, [r3, #0]
 80071f2:	b29b      	uxth	r3, r3
 80071f4:	021b      	lsls	r3, r3, #8
 80071f6:	b29b      	uxth	r3, r3
 80071f8:	4413      	add	r3, r2
 80071fa:	b29a      	uxth	r2, r3
 80071fc:	687b      	ldr	r3, [r7, #4]
 80071fe:	809a      	strh	r2, [r3, #4]
 8007200:	683b      	ldr	r3, [r7, #0]
 8007202:	3306      	adds	r3, #6
 8007204:	781b      	ldrb	r3, [r3, #0]
 8007206:	b29a      	uxth	r2, r3
 8007208:	683b      	ldr	r3, [r7, #0]
 800720a:	3307      	adds	r3, #7
 800720c:	781b      	ldrb	r3, [r3, #0]
 800720e:	b29b      	uxth	r3, r3
 8007210:	021b      	lsls	r3, r3, #8
 8007212:	b29b      	uxth	r3, r3
 8007214:	4413      	add	r3, r2
 8007216:	b29a      	uxth	r2, r3
 8007218:	687b      	ldr	r3, [r7, #4]
 800721a:	80da      	strh	r2, [r3, #6]
 800721c:	bf00      	nop
 800721e:	370c      	adds	r7, #12
 8007220:	46bd      	mov	sp, r7
 8007222:	bc80      	pop	{r7}
 8007224:	4770      	bx	lr

08007226 <USBD_CtlError>:
 8007226:	b580      	push	{r7, lr}
 8007228:	b082      	sub	sp, #8
 800722a:	af00      	add	r7, sp, #0
 800722c:	6078      	str	r0, [r7, #4]
 800722e:	6039      	str	r1, [r7, #0]
 8007230:	2180      	movs	r1, #128	; 0x80
 8007232:	6878      	ldr	r0, [r7, #4]
 8007234:	f000 fb82 	bl	800793c <USBD_LL_StallEP>
 8007238:	2100      	movs	r1, #0
 800723a:	6878      	ldr	r0, [r7, #4]
 800723c:	f000 fb7e 	bl	800793c <USBD_LL_StallEP>
 8007240:	bf00      	nop
 8007242:	3708      	adds	r7, #8
 8007244:	46bd      	mov	sp, r7
 8007246:	bd80      	pop	{r7, pc}

08007248 <USBD_GetString>:
 8007248:	b580      	push	{r7, lr}
 800724a:	b086      	sub	sp, #24
 800724c:	af00      	add	r7, sp, #0
 800724e:	60f8      	str	r0, [r7, #12]
 8007250:	60b9      	str	r1, [r7, #8]
 8007252:	607a      	str	r2, [r7, #4]
 8007254:	2300      	movs	r3, #0
 8007256:	75fb      	strb	r3, [r7, #23]
 8007258:	68fb      	ldr	r3, [r7, #12]
 800725a:	2b00      	cmp	r3, #0
 800725c:	d032      	beq.n	80072c4 <USBD_GetString+0x7c>
 800725e:	68f8      	ldr	r0, [r7, #12]
 8007260:	f000 f834 	bl	80072cc <USBD_GetLen>
 8007264:	4603      	mov	r3, r0
 8007266:	3301      	adds	r3, #1
 8007268:	b29b      	uxth	r3, r3
 800726a:	005b      	lsls	r3, r3, #1
 800726c:	b29a      	uxth	r2, r3
 800726e:	687b      	ldr	r3, [r7, #4]
 8007270:	801a      	strh	r2, [r3, #0]
 8007272:	7dfb      	ldrb	r3, [r7, #23]
 8007274:	1c5a      	adds	r2, r3, #1
 8007276:	75fa      	strb	r2, [r7, #23]
 8007278:	461a      	mov	r2, r3
 800727a:	68bb      	ldr	r3, [r7, #8]
 800727c:	4413      	add	r3, r2
 800727e:	687a      	ldr	r2, [r7, #4]
 8007280:	7812      	ldrb	r2, [r2, #0]
 8007282:	701a      	strb	r2, [r3, #0]
 8007284:	7dfb      	ldrb	r3, [r7, #23]
 8007286:	1c5a      	adds	r2, r3, #1
 8007288:	75fa      	strb	r2, [r7, #23]
 800728a:	461a      	mov	r2, r3
 800728c:	68bb      	ldr	r3, [r7, #8]
 800728e:	4413      	add	r3, r2
 8007290:	2203      	movs	r2, #3
 8007292:	701a      	strb	r2, [r3, #0]
 8007294:	e012      	b.n	80072bc <USBD_GetString+0x74>
 8007296:	68fb      	ldr	r3, [r7, #12]
 8007298:	1c5a      	adds	r2, r3, #1
 800729a:	60fa      	str	r2, [r7, #12]
 800729c:	7dfa      	ldrb	r2, [r7, #23]
 800729e:	1c51      	adds	r1, r2, #1
 80072a0:	75f9      	strb	r1, [r7, #23]
 80072a2:	4611      	mov	r1, r2
 80072a4:	68ba      	ldr	r2, [r7, #8]
 80072a6:	440a      	add	r2, r1
 80072a8:	781b      	ldrb	r3, [r3, #0]
 80072aa:	7013      	strb	r3, [r2, #0]
 80072ac:	7dfb      	ldrb	r3, [r7, #23]
 80072ae:	1c5a      	adds	r2, r3, #1
 80072b0:	75fa      	strb	r2, [r7, #23]
 80072b2:	461a      	mov	r2, r3
 80072b4:	68bb      	ldr	r3, [r7, #8]
 80072b6:	4413      	add	r3, r2
 80072b8:	2200      	movs	r2, #0
 80072ba:	701a      	strb	r2, [r3, #0]
 80072bc:	68fb      	ldr	r3, [r7, #12]
 80072be:	781b      	ldrb	r3, [r3, #0]
 80072c0:	2b00      	cmp	r3, #0
 80072c2:	d1e8      	bne.n	8007296 <USBD_GetString+0x4e>
 80072c4:	bf00      	nop
 80072c6:	3718      	adds	r7, #24
 80072c8:	46bd      	mov	sp, r7
 80072ca:	bd80      	pop	{r7, pc}

080072cc <USBD_GetLen>:
 80072cc:	b480      	push	{r7}
 80072ce:	b085      	sub	sp, #20
 80072d0:	af00      	add	r7, sp, #0
 80072d2:	6078      	str	r0, [r7, #4]
 80072d4:	2300      	movs	r3, #0
 80072d6:	73fb      	strb	r3, [r7, #15]
 80072d8:	e005      	b.n	80072e6 <USBD_GetLen+0x1a>
 80072da:	7bfb      	ldrb	r3, [r7, #15]
 80072dc:	3301      	adds	r3, #1
 80072de:	73fb      	strb	r3, [r7, #15]
 80072e0:	687b      	ldr	r3, [r7, #4]
 80072e2:	3301      	adds	r3, #1
 80072e4:	607b      	str	r3, [r7, #4]
 80072e6:	687b      	ldr	r3, [r7, #4]
 80072e8:	781b      	ldrb	r3, [r3, #0]
 80072ea:	2b00      	cmp	r3, #0
 80072ec:	d1f5      	bne.n	80072da <USBD_GetLen+0xe>
 80072ee:	7bfb      	ldrb	r3, [r7, #15]
 80072f0:	4618      	mov	r0, r3
 80072f2:	3714      	adds	r7, #20
 80072f4:	46bd      	mov	sp, r7
 80072f6:	bc80      	pop	{r7}
 80072f8:	4770      	bx	lr

080072fa <USBD_CtlSendData>:
 80072fa:	b580      	push	{r7, lr}
 80072fc:	b084      	sub	sp, #16
 80072fe:	af00      	add	r7, sp, #0
 8007300:	60f8      	str	r0, [r7, #12]
 8007302:	60b9      	str	r1, [r7, #8]
 8007304:	4613      	mov	r3, r2
 8007306:	80fb      	strh	r3, [r7, #6]
 8007308:	68fb      	ldr	r3, [r7, #12]
 800730a:	2202      	movs	r2, #2
 800730c:	f8c3 2294 	str.w	r2, [r3, #660]	; 0x294
 8007310:	88fa      	ldrh	r2, [r7, #6]
 8007312:	68fb      	ldr	r3, [r7, #12]
 8007314:	61da      	str	r2, [r3, #28]
 8007316:	88fa      	ldrh	r2, [r7, #6]
 8007318:	68fb      	ldr	r3, [r7, #12]
 800731a:	621a      	str	r2, [r3, #32]
 800731c:	88fb      	ldrh	r3, [r7, #6]
 800731e:	68ba      	ldr	r2, [r7, #8]
 8007320:	2100      	movs	r1, #0
 8007322:	68f8      	ldr	r0, [r7, #12]
 8007324:	f000 fb93 	bl	8007a4e <USBD_LL_Transmit>
 8007328:	2300      	movs	r3, #0
 800732a:	4618      	mov	r0, r3
 800732c:	3710      	adds	r7, #16
 800732e:	46bd      	mov	sp, r7
 8007330:	bd80      	pop	{r7, pc}

08007332 <USBD_CtlContinueSendData>:
 8007332:	b580      	push	{r7, lr}
 8007334:	b084      	sub	sp, #16
 8007336:	af00      	add	r7, sp, #0
 8007338:	60f8      	str	r0, [r7, #12]
 800733a:	60b9      	str	r1, [r7, #8]
 800733c:	4613      	mov	r3, r2
 800733e:	80fb      	strh	r3, [r7, #6]
 8007340:	88fb      	ldrh	r3, [r7, #6]
 8007342:	68ba      	ldr	r2, [r7, #8]
 8007344:	2100      	movs	r1, #0
 8007346:	68f8      	ldr	r0, [r7, #12]
 8007348:	f000 fb81 	bl	8007a4e <USBD_LL_Transmit>
 800734c:	2300      	movs	r3, #0
 800734e:	4618      	mov	r0, r3
 8007350:	3710      	adds	r7, #16
 8007352:	46bd      	mov	sp, r7
 8007354:	bd80      	pop	{r7, pc}

08007356 <USBD_CtlContinueRx>:
 8007356:	b580      	push	{r7, lr}
 8007358:	b084      	sub	sp, #16
 800735a:	af00      	add	r7, sp, #0
 800735c:	60f8      	str	r0, [r7, #12]
 800735e:	60b9      	str	r1, [r7, #8]
 8007360:	4613      	mov	r3, r2
 8007362:	80fb      	strh	r3, [r7, #6]
 8007364:	88fb      	ldrh	r3, [r7, #6]
 8007366:	68ba      	ldr	r2, [r7, #8]
 8007368:	2100      	movs	r1, #0
 800736a:	68f8      	ldr	r0, [r7, #12]
 800736c:	f000 fb92 	bl	8007a94 <USBD_LL_PrepareReceive>
 8007370:	2300      	movs	r3, #0
 8007372:	4618      	mov	r0, r3
 8007374:	3710      	adds	r7, #16
 8007376:	46bd      	mov	sp, r7
 8007378:	bd80      	pop	{r7, pc}

0800737a <USBD_CtlSendStatus>:
 800737a:	b580      	push	{r7, lr}
 800737c:	b082      	sub	sp, #8
 800737e:	af00      	add	r7, sp, #0
 8007380:	6078      	str	r0, [r7, #4]
 8007382:	687b      	ldr	r3, [r7, #4]
 8007384:	2204      	movs	r2, #4
 8007386:	f8c3 2294 	str.w	r2, [r3, #660]	; 0x294
 800738a:	2300      	movs	r3, #0
 800738c:	2200      	movs	r2, #0
 800738e:	2100      	movs	r1, #0
 8007390:	6878      	ldr	r0, [r7, #4]
 8007392:	f000 fb5c 	bl	8007a4e <USBD_LL_Transmit>
 8007396:	2300      	movs	r3, #0
 8007398:	4618      	mov	r0, r3
 800739a:	3708      	adds	r7, #8
 800739c:	46bd      	mov	sp, r7
 800739e:	bd80      	pop	{r7, pc}

080073a0 <USBD_CtlReceiveStatus>:
 80073a0:	b580      	push	{r7, lr}
 80073a2:	b082      	sub	sp, #8
 80073a4:	af00      	add	r7, sp, #0
 80073a6:	6078      	str	r0, [r7, #4]
 80073a8:	687b      	ldr	r3, [r7, #4]
 80073aa:	2205      	movs	r2, #5
 80073ac:	f8c3 2294 	str.w	r2, [r3, #660]	; 0x294
 80073b0:	2300      	movs	r3, #0
 80073b2:	2200      	movs	r2, #0
 80073b4:	2100      	movs	r1, #0
 80073b6:	6878      	ldr	r0, [r7, #4]
 80073b8:	f000 fb6c 	bl	8007a94 <USBD_LL_PrepareReceive>
 80073bc:	2300      	movs	r3, #0
 80073be:	4618      	mov	r0, r3
 80073c0:	3708      	adds	r7, #8
 80073c2:	46bd      	mov	sp, r7
 80073c4:	bd80      	pop	{r7, pc}
	...

080073c8 <MX_USB_DEVICE_Init>:
 80073c8:	b580      	push	{r7, lr}
 80073ca:	af00      	add	r7, sp, #0
 80073cc:	2200      	movs	r2, #0
 80073ce:	4912      	ldr	r1, [pc, #72]	; (8007418 <MX_USB_DEVICE_Init+0x50>)
 80073d0:	4812      	ldr	r0, [pc, #72]	; (800741c <MX_USB_DEVICE_Init+0x54>)
 80073d2:	f7fe ff7c 	bl	80062ce <USBD_Init>
 80073d6:	4603      	mov	r3, r0
 80073d8:	2b00      	cmp	r3, #0
 80073da:	d001      	beq.n	80073e0 <MX_USB_DEVICE_Init+0x18>
 80073dc:	f7f9 fec2 	bl	8001164 <Error_Handler>
 80073e0:	490f      	ldr	r1, [pc, #60]	; (8007420 <MX_USB_DEVICE_Init+0x58>)
 80073e2:	480e      	ldr	r0, [pc, #56]	; (800741c <MX_USB_DEVICE_Init+0x54>)
 80073e4:	f7fe ff9e 	bl	8006324 <USBD_RegisterClass>
 80073e8:	4603      	mov	r3, r0
 80073ea:	2b00      	cmp	r3, #0
 80073ec:	d001      	beq.n	80073f2 <MX_USB_DEVICE_Init+0x2a>
 80073ee:	f7f9 feb9 	bl	8001164 <Error_Handler>
 80073f2:	490c      	ldr	r1, [pc, #48]	; (8007424 <MX_USB_DEVICE_Init+0x5c>)
 80073f4:	4809      	ldr	r0, [pc, #36]	; (800741c <MX_USB_DEVICE_Init+0x54>)
 80073f6:	f7fa f87f 	bl	80014f8 <USBD_MIDI_RegisterInterface>
 80073fa:	4603      	mov	r3, r0
 80073fc:	2b00      	cmp	r3, #0
 80073fe:	d001      	beq.n	8007404 <MX_USB_DEVICE_Init+0x3c>
 8007400:	f7f9 feb0 	bl	8001164 <Error_Handler>
 8007404:	4805      	ldr	r0, [pc, #20]	; (800741c <MX_USB_DEVICE_Init+0x54>)
 8007406:	f7fe ffa6 	bl	8006356 <USBD_Start>
 800740a:	4603      	mov	r3, r0
 800740c:	2b00      	cmp	r3, #0
 800740e:	d001      	beq.n	8007414 <MX_USB_DEVICE_Init+0x4c>
 8007410:	f7f9 fea8 	bl	8001164 <Error_Handler>
 8007414:	bf00      	nop
 8007416:	bd80      	pop	{r7, pc}
 8007418:	200000b0 	.word	0x200000b0
 800741c:	20001308 	.word	0x20001308
 8007420:	20000004 	.word	0x20000004
 8007424:	200000a4 	.word	0x200000a4

08007428 <USBD_FS_DeviceDescriptor>:
 8007428:	b480      	push	{r7}
 800742a:	b083      	sub	sp, #12
 800742c:	af00      	add	r7, sp, #0
 800742e:	4603      	mov	r3, r0
 8007430:	6039      	str	r1, [r7, #0]
 8007432:	71fb      	strb	r3, [r7, #7]
 8007434:	683b      	ldr	r3, [r7, #0]
 8007436:	2212      	movs	r2, #18
 8007438:	801a      	strh	r2, [r3, #0]
 800743a:	4b03      	ldr	r3, [pc, #12]	; (8007448 <USBD_FS_DeviceDescriptor+0x20>)
 800743c:	4618      	mov	r0, r3
 800743e:	370c      	adds	r7, #12
 8007440:	46bd      	mov	sp, r7
 8007442:	bc80      	pop	{r7}
 8007444:	4770      	bx	lr
 8007446:	bf00      	nop
 8007448:	200000cc 	.word	0x200000cc

0800744c <USBD_FS_LangIDStrDescriptor>:
 800744c:	b480      	push	{r7}
 800744e:	b083      	sub	sp, #12
 8007450:	af00      	add	r7, sp, #0
 8007452:	4603      	mov	r3, r0
 8007454:	6039      	str	r1, [r7, #0]
 8007456:	71fb      	strb	r3, [r7, #7]
 8007458:	683b      	ldr	r3, [r7, #0]
 800745a:	2204      	movs	r2, #4
 800745c:	801a      	strh	r2, [r3, #0]
 800745e:	4b03      	ldr	r3, [pc, #12]	; (800746c <USBD_FS_LangIDStrDescriptor+0x20>)
 8007460:	4618      	mov	r0, r3
 8007462:	370c      	adds	r7, #12
 8007464:	46bd      	mov	sp, r7
 8007466:	bc80      	pop	{r7}
 8007468:	4770      	bx	lr
 800746a:	bf00      	nop
 800746c:	200000e0 	.word	0x200000e0

08007470 <USBD_FS_ProductStrDescriptor>:
 8007470:	b580      	push	{r7, lr}
 8007472:	b082      	sub	sp, #8
 8007474:	af00      	add	r7, sp, #0
 8007476:	4603      	mov	r3, r0
 8007478:	6039      	str	r1, [r7, #0]
 800747a:	71fb      	strb	r3, [r7, #7]
 800747c:	79fb      	ldrb	r3, [r7, #7]
 800747e:	2b00      	cmp	r3, #0
 8007480:	d105      	bne.n	800748e <USBD_FS_ProductStrDescriptor+0x1e>
 8007482:	683a      	ldr	r2, [r7, #0]
 8007484:	4907      	ldr	r1, [pc, #28]	; (80074a4 <USBD_FS_ProductStrDescriptor+0x34>)
 8007486:	4808      	ldr	r0, [pc, #32]	; (80074a8 <USBD_FS_ProductStrDescriptor+0x38>)
 8007488:	f7ff fede 	bl	8007248 <USBD_GetString>
 800748c:	e004      	b.n	8007498 <USBD_FS_ProductStrDescriptor+0x28>
 800748e:	683a      	ldr	r2, [r7, #0]
 8007490:	4904      	ldr	r1, [pc, #16]	; (80074a4 <USBD_FS_ProductStrDescriptor+0x34>)
 8007492:	4805      	ldr	r0, [pc, #20]	; (80074a8 <USBD_FS_ProductStrDescriptor+0x38>)
 8007494:	f7ff fed8 	bl	8007248 <USBD_GetString>
 8007498:	4b02      	ldr	r3, [pc, #8]	; (80074a4 <USBD_FS_ProductStrDescriptor+0x34>)
 800749a:	4618      	mov	r0, r3
 800749c:	3708      	adds	r7, #8
 800749e:	46bd      	mov	sp, r7
 80074a0:	bd80      	pop	{r7, pc}
 80074a2:	bf00      	nop
 80074a4:	200015cc 	.word	0x200015cc
 80074a8:	08008af8 	.word	0x08008af8

080074ac <USBD_FS_ManufacturerStrDescriptor>:
 80074ac:	b580      	push	{r7, lr}
 80074ae:	b082      	sub	sp, #8
 80074b0:	af00      	add	r7, sp, #0
 80074b2:	4603      	mov	r3, r0
 80074b4:	6039      	str	r1, [r7, #0]
 80074b6:	71fb      	strb	r3, [r7, #7]
 80074b8:	683a      	ldr	r2, [r7, #0]
 80074ba:	4904      	ldr	r1, [pc, #16]	; (80074cc <USBD_FS_ManufacturerStrDescriptor+0x20>)
 80074bc:	4804      	ldr	r0, [pc, #16]	; (80074d0 <USBD_FS_ManufacturerStrDescriptor+0x24>)
 80074be:	f7ff fec3 	bl	8007248 <USBD_GetString>
 80074c2:	4b02      	ldr	r3, [pc, #8]	; (80074cc <USBD_FS_ManufacturerStrDescriptor+0x20>)
 80074c4:	4618      	mov	r0, r3
 80074c6:	3708      	adds	r7, #8
 80074c8:	46bd      	mov	sp, r7
 80074ca:	bd80      	pop	{r7, pc}
 80074cc:	200015cc 	.word	0x200015cc
 80074d0:	08008b04 	.word	0x08008b04

080074d4 <USBD_FS_SerialStrDescriptor>:
 80074d4:	b580      	push	{r7, lr}
 80074d6:	b082      	sub	sp, #8
 80074d8:	af00      	add	r7, sp, #0
 80074da:	4603      	mov	r3, r0
 80074dc:	6039      	str	r1, [r7, #0]
 80074de:	71fb      	strb	r3, [r7, #7]
 80074e0:	683b      	ldr	r3, [r7, #0]
 80074e2:	221a      	movs	r2, #26
 80074e4:	801a      	strh	r2, [r3, #0]
 80074e6:	f000 f843 	bl	8007570 <Get_SerialNum>
 80074ea:	4b02      	ldr	r3, [pc, #8]	; (80074f4 <USBD_FS_SerialStrDescriptor+0x20>)
 80074ec:	4618      	mov	r0, r3
 80074ee:	3708      	adds	r7, #8
 80074f0:	46bd      	mov	sp, r7
 80074f2:	bd80      	pop	{r7, pc}
 80074f4:	200000e4 	.word	0x200000e4

080074f8 <USBD_FS_ConfigStrDescriptor>:
 80074f8:	b580      	push	{r7, lr}
 80074fa:	b082      	sub	sp, #8
 80074fc:	af00      	add	r7, sp, #0
 80074fe:	4603      	mov	r3, r0
 8007500:	6039      	str	r1, [r7, #0]
 8007502:	71fb      	strb	r3, [r7, #7]
 8007504:	79fb      	ldrb	r3, [r7, #7]
 8007506:	2b00      	cmp	r3, #0
 8007508:	d105      	bne.n	8007516 <USBD_FS_ConfigStrDescriptor+0x1e>
 800750a:	683a      	ldr	r2, [r7, #0]
 800750c:	4907      	ldr	r1, [pc, #28]	; (800752c <USBD_FS_ConfigStrDescriptor+0x34>)
 800750e:	4808      	ldr	r0, [pc, #32]	; (8007530 <USBD_FS_ConfigStrDescriptor+0x38>)
 8007510:	f7ff fe9a 	bl	8007248 <USBD_GetString>
 8007514:	e004      	b.n	8007520 <USBD_FS_ConfigStrDescriptor+0x28>
 8007516:	683a      	ldr	r2, [r7, #0]
 8007518:	4904      	ldr	r1, [pc, #16]	; (800752c <USBD_FS_ConfigStrDescriptor+0x34>)
 800751a:	4805      	ldr	r0, [pc, #20]	; (8007530 <USBD_FS_ConfigStrDescriptor+0x38>)
 800751c:	f7ff fe94 	bl	8007248 <USBD_GetString>
 8007520:	4b02      	ldr	r3, [pc, #8]	; (800752c <USBD_FS_ConfigStrDescriptor+0x34>)
 8007522:	4618      	mov	r0, r3
 8007524:	3708      	adds	r7, #8
 8007526:	46bd      	mov	sp, r7
 8007528:	bd80      	pop	{r7, pc}
 800752a:	bf00      	nop
 800752c:	200015cc 	.word	0x200015cc
 8007530:	08008b18 	.word	0x08008b18

08007534 <USBD_FS_InterfaceStrDescriptor>:
 8007534:	b580      	push	{r7, lr}
 8007536:	b082      	sub	sp, #8
 8007538:	af00      	add	r7, sp, #0
 800753a:	4603      	mov	r3, r0
 800753c:	6039      	str	r1, [r7, #0]
 800753e:	71fb      	strb	r3, [r7, #7]
 8007540:	79fb      	ldrb	r3, [r7, #7]
 8007542:	2b00      	cmp	r3, #0
 8007544:	d105      	bne.n	8007552 <USBD_FS_InterfaceStrDescriptor+0x1e>
 8007546:	683a      	ldr	r2, [r7, #0]
 8007548:	4907      	ldr	r1, [pc, #28]	; (8007568 <USBD_FS_InterfaceStrDescriptor+0x34>)
 800754a:	4808      	ldr	r0, [pc, #32]	; (800756c <USBD_FS_InterfaceStrDescriptor+0x38>)
 800754c:	f7ff fe7c 	bl	8007248 <USBD_GetString>
 8007550:	e004      	b.n	800755c <USBD_FS_InterfaceStrDescriptor+0x28>
 8007552:	683a      	ldr	r2, [r7, #0]
 8007554:	4904      	ldr	r1, [pc, #16]	; (8007568 <USBD_FS_InterfaceStrDescriptor+0x34>)
 8007556:	4805      	ldr	r0, [pc, #20]	; (800756c <USBD_FS_InterfaceStrDescriptor+0x38>)
 8007558:	f7ff fe76 	bl	8007248 <USBD_GetString>
 800755c:	4b02      	ldr	r3, [pc, #8]	; (8007568 <USBD_FS_InterfaceStrDescriptor+0x34>)
 800755e:	4618      	mov	r0, r3
 8007560:	3708      	adds	r7, #8
 8007562:	46bd      	mov	sp, r7
 8007564:	bd80      	pop	{r7, pc}
 8007566:	bf00      	nop
 8007568:	200015cc 	.word	0x200015cc
 800756c:	08008b24 	.word	0x08008b24

08007570 <Get_SerialNum>:
 8007570:	b580      	push	{r7, lr}
 8007572:	b084      	sub	sp, #16
 8007574:	af00      	add	r7, sp, #0
 8007576:	4b0f      	ldr	r3, [pc, #60]	; (80075b4 <Get_SerialNum+0x44>)
 8007578:	681b      	ldr	r3, [r3, #0]
 800757a:	60fb      	str	r3, [r7, #12]
 800757c:	4b0e      	ldr	r3, [pc, #56]	; (80075b8 <Get_SerialNum+0x48>)
 800757e:	681b      	ldr	r3, [r3, #0]
 8007580:	60bb      	str	r3, [r7, #8]
 8007582:	4b0e      	ldr	r3, [pc, #56]	; (80075bc <Get_SerialNum+0x4c>)
 8007584:	681b      	ldr	r3, [r3, #0]
 8007586:	607b      	str	r3, [r7, #4]
 8007588:	68fa      	ldr	r2, [r7, #12]
 800758a:	687b      	ldr	r3, [r7, #4]
 800758c:	4413      	add	r3, r2
 800758e:	60fb      	str	r3, [r7, #12]
 8007590:	68fb      	ldr	r3, [r7, #12]
 8007592:	2b00      	cmp	r3, #0
 8007594:	d009      	beq.n	80075aa <Get_SerialNum+0x3a>
 8007596:	2208      	movs	r2, #8
 8007598:	4909      	ldr	r1, [pc, #36]	; (80075c0 <Get_SerialNum+0x50>)
 800759a:	68f8      	ldr	r0, [r7, #12]
 800759c:	f000 f814 	bl	80075c8 <IntToUnicode>
 80075a0:	2204      	movs	r2, #4
 80075a2:	4908      	ldr	r1, [pc, #32]	; (80075c4 <Get_SerialNum+0x54>)
 80075a4:	68b8      	ldr	r0, [r7, #8]
 80075a6:	f000 f80f 	bl	80075c8 <IntToUnicode>
 80075aa:	bf00      	nop
 80075ac:	3710      	adds	r7, #16
 80075ae:	46bd      	mov	sp, r7
 80075b0:	bd80      	pop	{r7, pc}
 80075b2:	bf00      	nop
 80075b4:	1ffff7e8 	.word	0x1ffff7e8
 80075b8:	1ffff7ec 	.word	0x1ffff7ec
 80075bc:	1ffff7f0 	.word	0x1ffff7f0
 80075c0:	200000e6 	.word	0x200000e6
 80075c4:	200000f6 	.word	0x200000f6

080075c8 <IntToUnicode>:
 80075c8:	b480      	push	{r7}
 80075ca:	b087      	sub	sp, #28
 80075cc:	af00      	add	r7, sp, #0
 80075ce:	60f8      	str	r0, [r7, #12]
 80075d0:	60b9      	str	r1, [r7, #8]
 80075d2:	4613      	mov	r3, r2
 80075d4:	71fb      	strb	r3, [r7, #7]
 80075d6:	2300      	movs	r3, #0
 80075d8:	75fb      	strb	r3, [r7, #23]
 80075da:	2300      	movs	r3, #0
 80075dc:	75fb      	strb	r3, [r7, #23]
 80075de:	e027      	b.n	8007630 <IntToUnicode+0x68>
 80075e0:	68fb      	ldr	r3, [r7, #12]
 80075e2:	0f1b      	lsrs	r3, r3, #28
 80075e4:	2b09      	cmp	r3, #9
 80075e6:	d80b      	bhi.n	8007600 <IntToUnicode+0x38>
 80075e8:	68fb      	ldr	r3, [r7, #12]
 80075ea:	0f1b      	lsrs	r3, r3, #28
 80075ec:	b2da      	uxtb	r2, r3
 80075ee:	7dfb      	ldrb	r3, [r7, #23]
 80075f0:	005b      	lsls	r3, r3, #1
 80075f2:	4619      	mov	r1, r3
 80075f4:	68bb      	ldr	r3, [r7, #8]
 80075f6:	440b      	add	r3, r1
 80075f8:	3230      	adds	r2, #48	; 0x30
 80075fa:	b2d2      	uxtb	r2, r2
 80075fc:	701a      	strb	r2, [r3, #0]
 80075fe:	e00a      	b.n	8007616 <IntToUnicode+0x4e>
 8007600:	68fb      	ldr	r3, [r7, #12]
 8007602:	0f1b      	lsrs	r3, r3, #28
 8007604:	b2da      	uxtb	r2, r3
 8007606:	7dfb      	ldrb	r3, [r7, #23]
 8007608:	005b      	lsls	r3, r3, #1
 800760a:	4619      	mov	r1, r3
 800760c:	68bb      	ldr	r3, [r7, #8]
 800760e:	440b      	add	r3, r1
 8007610:	3237      	adds	r2, #55	; 0x37
 8007612:	b2d2      	uxtb	r2, r2
 8007614:	701a      	strb	r2, [r3, #0]
 8007616:	68fb      	ldr	r3, [r7, #12]
 8007618:	011b      	lsls	r3, r3, #4
 800761a:	60fb      	str	r3, [r7, #12]
 800761c:	7dfb      	ldrb	r3, [r7, #23]
 800761e:	005b      	lsls	r3, r3, #1
 8007620:	3301      	adds	r3, #1
 8007622:	68ba      	ldr	r2, [r7, #8]
 8007624:	4413      	add	r3, r2
 8007626:	2200      	movs	r2, #0
 8007628:	701a      	strb	r2, [r3, #0]
 800762a:	7dfb      	ldrb	r3, [r7, #23]
 800762c:	3301      	adds	r3, #1
 800762e:	75fb      	strb	r3, [r7, #23]
 8007630:	7dfa      	ldrb	r2, [r7, #23]
 8007632:	79fb      	ldrb	r3, [r7, #7]
 8007634:	429a      	cmp	r2, r3
 8007636:	d3d3      	bcc.n	80075e0 <IntToUnicode+0x18>
 8007638:	bf00      	nop
 800763a:	bf00      	nop
 800763c:	371c      	adds	r7, #28
 800763e:	46bd      	mov	sp, r7
 8007640:	bc80      	pop	{r7}
 8007642:	4770      	bx	lr

08007644 <HAL_PCD_MspInit>:
 8007644:	b580      	push	{r7, lr}
 8007646:	b084      	sub	sp, #16
 8007648:	af00      	add	r7, sp, #0
 800764a:	6078      	str	r0, [r7, #4]
 800764c:	687b      	ldr	r3, [r7, #4]
 800764e:	681b      	ldr	r3, [r3, #0]
 8007650:	4a0d      	ldr	r2, [pc, #52]	; (8007688 <HAL_PCD_MspInit+0x44>)
 8007652:	4293      	cmp	r3, r2
 8007654:	d113      	bne.n	800767e <HAL_PCD_MspInit+0x3a>
 8007656:	4b0d      	ldr	r3, [pc, #52]	; (800768c <HAL_PCD_MspInit+0x48>)
 8007658:	69db      	ldr	r3, [r3, #28]
 800765a:	4a0c      	ldr	r2, [pc, #48]	; (800768c <HAL_PCD_MspInit+0x48>)
 800765c:	f443 0300 	orr.w	r3, r3, #8388608	; 0x800000
 8007660:	61d3      	str	r3, [r2, #28]
 8007662:	4b0a      	ldr	r3, [pc, #40]	; (800768c <HAL_PCD_MspInit+0x48>)
 8007664:	69db      	ldr	r3, [r3, #28]
 8007666:	f403 0300 	and.w	r3, r3, #8388608	; 0x800000
 800766a:	60fb      	str	r3, [r7, #12]
 800766c:	68fb      	ldr	r3, [r7, #12]
 800766e:	2200      	movs	r2, #0
 8007670:	2100      	movs	r1, #0
 8007672:	2014      	movs	r0, #20
 8007674:	f7fa fa1d 	bl	8001ab2 <HAL_NVIC_SetPriority>
 8007678:	2014      	movs	r0, #20
 800767a:	f7fa fa36 	bl	8001aea <HAL_NVIC_EnableIRQ>
 800767e:	bf00      	nop
 8007680:	3710      	adds	r7, #16
 8007682:	46bd      	mov	sp, r7
 8007684:	bd80      	pop	{r7, pc}
 8007686:	bf00      	nop
 8007688:	40005c00 	.word	0x40005c00
 800768c:	40021000 	.word	0x40021000

08007690 <HAL_PCD_SetupStageCallback>:
 8007690:	b580      	push	{r7, lr}
 8007692:	b082      	sub	sp, #8
 8007694:	af00      	add	r7, sp, #0
 8007696:	6078      	str	r0, [r7, #4]
 8007698:	687b      	ldr	r3, [r7, #4]
 800769a:	f8d3 22e8 	ldr.w	r2, [r3, #744]	; 0x2e8
 800769e:	687b      	ldr	r3, [r7, #4]
 80076a0:	f503 732c 	add.w	r3, r3, #688	; 0x2b0
 80076a4:	4619      	mov	r1, r3
 80076a6:	4610      	mov	r0, r2
 80076a8:	f7fe fe9d 	bl	80063e6 <USBD_LL_SetupStage>
 80076ac:	bf00      	nop
 80076ae:	3708      	adds	r7, #8
 80076b0:	46bd      	mov	sp, r7
 80076b2:	bd80      	pop	{r7, pc}

080076b4 <HAL_PCD_DataOutStageCallback>:
 80076b4:	b580      	push	{r7, lr}
 80076b6:	b082      	sub	sp, #8
 80076b8:	af00      	add	r7, sp, #0
 80076ba:	6078      	str	r0, [r7, #4]
 80076bc:	460b      	mov	r3, r1
 80076be:	70fb      	strb	r3, [r7, #3]
 80076c0:	687b      	ldr	r3, [r7, #4]
 80076c2:	f8d3 02e8 	ldr.w	r0, [r3, #744]	; 0x2e8
 80076c6:	78fa      	ldrb	r2, [r7, #3]
 80076c8:	6879      	ldr	r1, [r7, #4]
 80076ca:	4613      	mov	r3, r2
 80076cc:	009b      	lsls	r3, r3, #2
 80076ce:	4413      	add	r3, r2
 80076d0:	00db      	lsls	r3, r3, #3
 80076d2:	440b      	add	r3, r1
 80076d4:	f503 73be 	add.w	r3, r3, #380	; 0x17c
 80076d8:	681a      	ldr	r2, [r3, #0]
 80076da:	78fb      	ldrb	r3, [r7, #3]
 80076dc:	4619      	mov	r1, r3
 80076de:	f7fe fecf 	bl	8006480 <USBD_LL_DataOutStage>
 80076e2:	bf00      	nop
 80076e4:	3708      	adds	r7, #8
 80076e6:	46bd      	mov	sp, r7
 80076e8:	bd80      	pop	{r7, pc}

080076ea <HAL_PCD_DataInStageCallback>:
 80076ea:	b580      	push	{r7, lr}
 80076ec:	b082      	sub	sp, #8
 80076ee:	af00      	add	r7, sp, #0
 80076f0:	6078      	str	r0, [r7, #4]
 80076f2:	460b      	mov	r3, r1
 80076f4:	70fb      	strb	r3, [r7, #3]
 80076f6:	687b      	ldr	r3, [r7, #4]
 80076f8:	f8d3 02e8 	ldr.w	r0, [r3, #744]	; 0x2e8
 80076fc:	78fa      	ldrb	r2, [r7, #3]
 80076fe:	6879      	ldr	r1, [r7, #4]
 8007700:	4613      	mov	r3, r2
 8007702:	009b      	lsls	r3, r3, #2
 8007704:	4413      	add	r3, r2
 8007706:	00db      	lsls	r3, r3, #3
 8007708:	440b      	add	r3, r1
 800770a:	333c      	adds	r3, #60	; 0x3c
 800770c:	681a      	ldr	r2, [r3, #0]
 800770e:	78fb      	ldrb	r3, [r7, #3]
 8007710:	4619      	mov	r1, r3
 8007712:	f7fe ff26 	bl	8006562 <USBD_LL_DataInStage>
 8007716:	bf00      	nop
 8007718:	3708      	adds	r7, #8
 800771a:	46bd      	mov	sp, r7
 800771c:	bd80      	pop	{r7, pc}

0800771e <HAL_PCD_SOFCallback>:
 800771e:	b580      	push	{r7, lr}
 8007720:	b082      	sub	sp, #8
 8007722:	af00      	add	r7, sp, #0
 8007724:	6078      	str	r0, [r7, #4]
 8007726:	687b      	ldr	r3, [r7, #4]
 8007728:	f8d3 32e8 	ldr.w	r3, [r3, #744]	; 0x2e8
 800772c:	4618      	mov	r0, r3
 800772e:	f7ff f836 	bl	800679e <USBD_LL_SOF>
 8007732:	bf00      	nop
 8007734:	3708      	adds	r7, #8
 8007736:	46bd      	mov	sp, r7
 8007738:	bd80      	pop	{r7, pc}

0800773a <HAL_PCD_ResetCallback>:
 800773a:	b580      	push	{r7, lr}
 800773c:	b084      	sub	sp, #16
 800773e:	af00      	add	r7, sp, #0
 8007740:	6078      	str	r0, [r7, #4]
 8007742:	2301      	movs	r3, #1
 8007744:	73fb      	strb	r3, [r7, #15]
 8007746:	687b      	ldr	r3, [r7, #4]
 8007748:	689b      	ldr	r3, [r3, #8]
 800774a:	2b02      	cmp	r3, #2
 800774c:	d001      	beq.n	8007752 <HAL_PCD_ResetCallback+0x18>
 800774e:	f7f9 fd09 	bl	8001164 <Error_Handler>
 8007752:	687b      	ldr	r3, [r7, #4]
 8007754:	f8d3 32e8 	ldr.w	r3, [r3, #744]	; 0x2e8
 8007758:	7bfa      	ldrb	r2, [r7, #15]
 800775a:	4611      	mov	r1, r2
 800775c:	4618      	mov	r0, r3
 800775e:	f7fe ffe6 	bl	800672e <USBD_LL_SetSpeed>
 8007762:	687b      	ldr	r3, [r7, #4]
 8007764:	f8d3 32e8 	ldr.w	r3, [r3, #744]	; 0x2e8
 8007768:	4618      	mov	r0, r3
 800776a:	f7fe ff9f 	bl	80066ac <USBD_LL_Reset>
 800776e:	bf00      	nop
 8007770:	3710      	adds	r7, #16
 8007772:	46bd      	mov	sp, r7
 8007774:	bd80      	pop	{r7, pc}
	...

08007778 <HAL_PCD_SuspendCallback>:
 8007778:	b580      	push	{r7, lr}
 800777a:	b082      	sub	sp, #8
 800777c:	af00      	add	r7, sp, #0
 800777e:	6078      	str	r0, [r7, #4]
 8007780:	687b      	ldr	r3, [r7, #4]
 8007782:	f8d3 32e8 	ldr.w	r3, [r3, #744]	; 0x2e8
 8007786:	4618      	mov	r0, r3
 8007788:	f7fe ffe0 	bl	800674c <USBD_LL_Suspend>
 800778c:	687b      	ldr	r3, [r7, #4]
 800778e:	699b      	ldr	r3, [r3, #24]
 8007790:	2b00      	cmp	r3, #0
 8007792:	d005      	beq.n	80077a0 <HAL_PCD_SuspendCallback+0x28>
 8007794:	4b04      	ldr	r3, [pc, #16]	; (80077a8 <HAL_PCD_SuspendCallback+0x30>)
 8007796:	691b      	ldr	r3, [r3, #16]
 8007798:	4a03      	ldr	r2, [pc, #12]	; (80077a8 <HAL_PCD_SuspendCallback+0x30>)
 800779a:	f043 0306 	orr.w	r3, r3, #6
 800779e:	6113      	str	r3, [r2, #16]
 80077a0:	bf00      	nop
 80077a2:	3708      	adds	r7, #8
 80077a4:	46bd      	mov	sp, r7
 80077a6:	bd80      	pop	{r7, pc}
 80077a8:	e000ed00 	.word	0xe000ed00

080077ac <HAL_PCD_ResumeCallback>:
 80077ac:	b580      	push	{r7, lr}
 80077ae:	b082      	sub	sp, #8
 80077b0:	af00      	add	r7, sp, #0
 80077b2:	6078      	str	r0, [r7, #4]
 80077b4:	687b      	ldr	r3, [r7, #4]
 80077b6:	f8d3 32e8 	ldr.w	r3, [r3, #744]	; 0x2e8
 80077ba:	4618      	mov	r0, r3
 80077bc:	f7fe ffda 	bl	8006774 <USBD_LL_Resume>
 80077c0:	bf00      	nop
 80077c2:	3708      	adds	r7, #8
 80077c4:	46bd      	mov	sp, r7
 80077c6:	bd80      	pop	{r7, pc}

080077c8 <USBD_LL_Init>:
 80077c8:	b580      	push	{r7, lr}
 80077ca:	b082      	sub	sp, #8
 80077cc:	af00      	add	r7, sp, #0
 80077ce:	6078      	str	r0, [r7, #4]
 80077d0:	4a28      	ldr	r2, [pc, #160]	; (8007874 <USBD_LL_Init+0xac>)
 80077d2:	687b      	ldr	r3, [r7, #4]
 80077d4:	f8c2 32e8 	str.w	r3, [r2, #744]	; 0x2e8
 80077d8:	687b      	ldr	r3, [r7, #4]
 80077da:	4a26      	ldr	r2, [pc, #152]	; (8007874 <USBD_LL_Init+0xac>)
 80077dc:	f8c3 22c0 	str.w	r2, [r3, #704]	; 0x2c0
 80077e0:	4b24      	ldr	r3, [pc, #144]	; (8007874 <USBD_LL_Init+0xac>)
 80077e2:	4a25      	ldr	r2, [pc, #148]	; (8007878 <USBD_LL_Init+0xb0>)
 80077e4:	601a      	str	r2, [r3, #0]
 80077e6:	4b23      	ldr	r3, [pc, #140]	; (8007874 <USBD_LL_Init+0xac>)
 80077e8:	2208      	movs	r2, #8
 80077ea:	605a      	str	r2, [r3, #4]
 80077ec:	4b21      	ldr	r3, [pc, #132]	; (8007874 <USBD_LL_Init+0xac>)
 80077ee:	2202      	movs	r2, #2
 80077f0:	609a      	str	r2, [r3, #8]
 80077f2:	4b20      	ldr	r3, [pc, #128]	; (8007874 <USBD_LL_Init+0xac>)
 80077f4:	2200      	movs	r2, #0
 80077f6:	619a      	str	r2, [r3, #24]
 80077f8:	4b1e      	ldr	r3, [pc, #120]	; (8007874 <USBD_LL_Init+0xac>)
 80077fa:	2200      	movs	r2, #0
 80077fc:	61da      	str	r2, [r3, #28]
 80077fe:	4b1d      	ldr	r3, [pc, #116]	; (8007874 <USBD_LL_Init+0xac>)
 8007800:	2200      	movs	r2, #0
 8007802:	621a      	str	r2, [r3, #32]
 8007804:	481b      	ldr	r0, [pc, #108]	; (8007874 <USBD_LL_Init+0xac>)
 8007806:	f7fa f98a 	bl	8001b1e <HAL_PCD_Init>
 800780a:	4603      	mov	r3, r0
 800780c:	2b00      	cmp	r3, #0
 800780e:	d001      	beq.n	8007814 <USBD_LL_Init+0x4c>
 8007810:	f7f9 fca8 	bl	8001164 <Error_Handler>
 8007814:	687b      	ldr	r3, [r7, #4]
 8007816:	f8d3 02c0 	ldr.w	r0, [r3, #704]	; 0x2c0
 800781a:	2318      	movs	r3, #24
 800781c:	2200      	movs	r2, #0
 800781e:	2100      	movs	r1, #0
 8007820:	f7fb fde9 	bl	80033f6 <HAL_PCDEx_PMAConfig>
 8007824:	687b      	ldr	r3, [r7, #4]
 8007826:	f8d3 02c0 	ldr.w	r0, [r3, #704]	; 0x2c0
 800782a:	2358      	movs	r3, #88	; 0x58
 800782c:	2200      	movs	r2, #0
 800782e:	2180      	movs	r1, #128	; 0x80
 8007830:	f7fb fde1 	bl	80033f6 <HAL_PCDEx_PMAConfig>
 8007834:	687b      	ldr	r3, [r7, #4]
 8007836:	f8d3 02c0 	ldr.w	r0, [r3, #704]	; 0x2c0
 800783a:	23c0      	movs	r3, #192	; 0xc0
 800783c:	2200      	movs	r2, #0
 800783e:	2181      	movs	r1, #129	; 0x81
 8007840:	f7fb fdd9 	bl	80033f6 <HAL_PCDEx_PMAConfig>
 8007844:	687b      	ldr	r3, [r7, #4]
 8007846:	f8d3 02c0 	ldr.w	r0, [r3, #704]	; 0x2c0
 800784a:	f44f 7388 	mov.w	r3, #272	; 0x110
 800784e:	2200      	movs	r2, #0
 8007850:	2101      	movs	r1, #1
 8007852:	f7fb fdd0 	bl	80033f6 <HAL_PCDEx_PMAConfig>
 8007856:	687b      	ldr	r3, [r7, #4]
 8007858:	f8d3 02c0 	ldr.w	r0, [r3, #704]	; 0x2c0
 800785c:	f44f 7380 	mov.w	r3, #256	; 0x100
 8007860:	2200      	movs	r2, #0
 8007862:	2182      	movs	r1, #130	; 0x82
 8007864:	f7fb fdc7 	bl	80033f6 <HAL_PCDEx_PMAConfig>
 8007868:	2300      	movs	r3, #0
 800786a:	4618      	mov	r0, r3
 800786c:	3708      	adds	r7, #8
 800786e:	46bd      	mov	sp, r7
 8007870:	bd80      	pop	{r7, pc}
 8007872:	bf00      	nop
 8007874:	200017cc 	.word	0x200017cc
 8007878:	40005c00 	.word	0x40005c00

0800787c <USBD_LL_Start>:
 800787c:	b580      	push	{r7, lr}
 800787e:	b084      	sub	sp, #16
 8007880:	af00      	add	r7, sp, #0
 8007882:	6078      	str	r0, [r7, #4]
 8007884:	2300      	movs	r3, #0
 8007886:	73fb      	strb	r3, [r7, #15]
 8007888:	2300      	movs	r3, #0
 800788a:	73bb      	strb	r3, [r7, #14]
 800788c:	687b      	ldr	r3, [r7, #4]
 800788e:	f8d3 32c0 	ldr.w	r3, [r3, #704]	; 0x2c0
 8007892:	4618      	mov	r0, r3
 8007894:	f7fa fa4e 	bl	8001d34 <HAL_PCD_Start>
 8007898:	4603      	mov	r3, r0
 800789a:	73fb      	strb	r3, [r7, #15]
 800789c:	7bfb      	ldrb	r3, [r7, #15]
 800789e:	4618      	mov	r0, r3
 80078a0:	f000 f926 	bl	8007af0 <USBD_Get_USB_Status>
 80078a4:	4603      	mov	r3, r0
 80078a6:	73bb      	strb	r3, [r7, #14]
 80078a8:	7bbb      	ldrb	r3, [r7, #14]
 80078aa:	4618      	mov	r0, r3
 80078ac:	3710      	adds	r7, #16
 80078ae:	46bd      	mov	sp, r7
 80078b0:	bd80      	pop	{r7, pc}

080078b2 <USBD_LL_OpenEP>:
 80078b2:	b580      	push	{r7, lr}
 80078b4:	b084      	sub	sp, #16
 80078b6:	af00      	add	r7, sp, #0
 80078b8:	6078      	str	r0, [r7, #4]
 80078ba:	4608      	mov	r0, r1
 80078bc:	4611      	mov	r1, r2
 80078be:	461a      	mov	r2, r3
 80078c0:	4603      	mov	r3, r0
 80078c2:	70fb      	strb	r3, [r7, #3]
 80078c4:	460b      	mov	r3, r1
 80078c6:	70bb      	strb	r3, [r7, #2]
 80078c8:	4613      	mov	r3, r2
 80078ca:	803b      	strh	r3, [r7, #0]
 80078cc:	2300      	movs	r3, #0
 80078ce:	73fb      	strb	r3, [r7, #15]
 80078d0:	2300      	movs	r3, #0
 80078d2:	73bb      	strb	r3, [r7, #14]
 80078d4:	687b      	ldr	r3, [r7, #4]
 80078d6:	f8d3 02c0 	ldr.w	r0, [r3, #704]	; 0x2c0
 80078da:	78bb      	ldrb	r3, [r7, #2]
 80078dc:	883a      	ldrh	r2, [r7, #0]
 80078de:	78f9      	ldrb	r1, [r7, #3]
 80078e0:	f7fa fbc8 	bl	8002074 <HAL_PCD_EP_Open>
 80078e4:	4603      	mov	r3, r0
 80078e6:	73fb      	strb	r3, [r7, #15]
 80078e8:	7bfb      	ldrb	r3, [r7, #15]
 80078ea:	4618      	mov	r0, r3
 80078ec:	f000 f900 	bl	8007af0 <USBD_Get_USB_Status>
 80078f0:	4603      	mov	r3, r0
 80078f2:	73bb      	strb	r3, [r7, #14]
 80078f4:	7bbb      	ldrb	r3, [r7, #14]
 80078f6:	4618      	mov	r0, r3
 80078f8:	3710      	adds	r7, #16
 80078fa:	46bd      	mov	sp, r7
 80078fc:	bd80      	pop	{r7, pc}

080078fe <USBD_LL_CloseEP>:
 80078fe:	b580      	push	{r7, lr}
 8007900:	b084      	sub	sp, #16
 8007902:	af00      	add	r7, sp, #0
 8007904:	6078      	str	r0, [r7, #4]
 8007906:	460b      	mov	r3, r1
 8007908:	70fb      	strb	r3, [r7, #3]
 800790a:	2300      	movs	r3, #0
 800790c:	73fb      	strb	r3, [r7, #15]
 800790e:	2300      	movs	r3, #0
 8007910:	73bb      	strb	r3, [r7, #14]
 8007912:	687b      	ldr	r3, [r7, #4]
 8007914:	f8d3 32c0 	ldr.w	r3, [r3, #704]	; 0x2c0
 8007918:	78fa      	ldrb	r2, [r7, #3]
 800791a:	4611      	mov	r1, r2
 800791c:	4618      	mov	r0, r3
 800791e:	f7fa fc0f 	bl	8002140 <HAL_PCD_EP_Close>
 8007922:	4603      	mov	r3, r0
 8007924:	73fb      	strb	r3, [r7, #15]
 8007926:	7bfb      	ldrb	r3, [r7, #15]
 8007928:	4618      	mov	r0, r3
 800792a:	f000 f8e1 	bl	8007af0 <USBD_Get_USB_Status>
 800792e:	4603      	mov	r3, r0
 8007930:	73bb      	strb	r3, [r7, #14]
 8007932:	7bbb      	ldrb	r3, [r7, #14]
 8007934:	4618      	mov	r0, r3
 8007936:	3710      	adds	r7, #16
 8007938:	46bd      	mov	sp, r7
 800793a:	bd80      	pop	{r7, pc}

0800793c <USBD_LL_StallEP>:
 800793c:	b580      	push	{r7, lr}
 800793e:	b084      	sub	sp, #16
 8007940:	af00      	add	r7, sp, #0
 8007942:	6078      	str	r0, [r7, #4]
 8007944:	460b      	mov	r3, r1
 8007946:	70fb      	strb	r3, [r7, #3]
 8007948:	2300      	movs	r3, #0
 800794a:	73fb      	strb	r3, [r7, #15]
 800794c:	2300      	movs	r3, #0
 800794e:	73bb      	strb	r3, [r7, #14]
 8007950:	687b      	ldr	r3, [r7, #4]
 8007952:	f8d3 32c0 	ldr.w	r3, [r3, #704]	; 0x2c0
 8007956:	78fa      	ldrb	r2, [r7, #3]
 8007958:	4611      	mov	r1, r2
 800795a:	4618      	mov	r0, r3
 800795c:	f7fa fcb8 	bl	80022d0 <HAL_PCD_EP_SetStall>
 8007960:	4603      	mov	r3, r0
 8007962:	73fb      	strb	r3, [r7, #15]
 8007964:	7bfb      	ldrb	r3, [r7, #15]
 8007966:	4618      	mov	r0, r3
 8007968:	f000 f8c2 	bl	8007af0 <USBD_Get_USB_Status>
 800796c:	4603      	mov	r3, r0
 800796e:	73bb      	strb	r3, [r7, #14]
 8007970:	7bbb      	ldrb	r3, [r7, #14]
 8007972:	4618      	mov	r0, r3
 8007974:	3710      	adds	r7, #16
 8007976:	46bd      	mov	sp, r7
 8007978:	bd80      	pop	{r7, pc}

0800797a <USBD_LL_ClearStallEP>:
 800797a:	b580      	push	{r7, lr}
 800797c:	b084      	sub	sp, #16
 800797e:	af00      	add	r7, sp, #0
 8007980:	6078      	str	r0, [r7, #4]
 8007982:	460b      	mov	r3, r1
 8007984:	70fb      	strb	r3, [r7, #3]
 8007986:	2300      	movs	r3, #0
 8007988:	73fb      	strb	r3, [r7, #15]
 800798a:	2300      	movs	r3, #0
 800798c:	73bb      	strb	r3, [r7, #14]
 800798e:	687b      	ldr	r3, [r7, #4]
 8007990:	f8d3 32c0 	ldr.w	r3, [r3, #704]	; 0x2c0
 8007994:	78fa      	ldrb	r2, [r7, #3]
 8007996:	4611      	mov	r1, r2
 8007998:	4618      	mov	r0, r3
 800799a:	f7fa fcf9 	bl	8002390 <HAL_PCD_EP_ClrStall>
 800799e:	4603      	mov	r3, r0
 80079a0:	73fb      	strb	r3, [r7, #15]
 80079a2:	7bfb      	ldrb	r3, [r7, #15]
 80079a4:	4618      	mov	r0, r3
 80079a6:	f000 f8a3 	bl	8007af0 <USBD_Get_USB_Status>
 80079aa:	4603      	mov	r3, r0
 80079ac:	73bb      	strb	r3, [r7, #14]
 80079ae:	7bbb      	ldrb	r3, [r7, #14]
 80079b0:	4618      	mov	r0, r3
 80079b2:	3710      	adds	r7, #16
 80079b4:	46bd      	mov	sp, r7
 80079b6:	bd80      	pop	{r7, pc}

080079b8 <USBD_LL_IsStallEP>:
 80079b8:	b480      	push	{r7}
 80079ba:	b085      	sub	sp, #20
 80079bc:	af00      	add	r7, sp, #0
 80079be:	6078      	str	r0, [r7, #4]
 80079c0:	460b      	mov	r3, r1
 80079c2:	70fb      	strb	r3, [r7, #3]
 80079c4:	687b      	ldr	r3, [r7, #4]
 80079c6:	f8d3 32c0 	ldr.w	r3, [r3, #704]	; 0x2c0
 80079ca:	60fb      	str	r3, [r7, #12]
 80079cc:	f997 3003 	ldrsb.w	r3, [r7, #3]
 80079d0:	2b00      	cmp	r3, #0
 80079d2:	da0c      	bge.n	80079ee <USBD_LL_IsStallEP+0x36>
 80079d4:	78fb      	ldrb	r3, [r7, #3]
 80079d6:	f003 037f 	and.w	r3, r3, #127	; 0x7f
 80079da:	68f9      	ldr	r1, [r7, #12]
 80079dc:	1c5a      	adds	r2, r3, #1
 80079de:	4613      	mov	r3, r2
 80079e0:	009b      	lsls	r3, r3, #2
 80079e2:	4413      	add	r3, r2
 80079e4:	00db      	lsls	r3, r3, #3
 80079e6:	440b      	add	r3, r1
 80079e8:	3302      	adds	r3, #2
 80079ea:	781b      	ldrb	r3, [r3, #0]
 80079ec:	e00b      	b.n	8007a06 <USBD_LL_IsStallEP+0x4e>
 80079ee:	78fb      	ldrb	r3, [r7, #3]
 80079f0:	f003 027f 	and.w	r2, r3, #127	; 0x7f
 80079f4:	68f9      	ldr	r1, [r7, #12]
 80079f6:	4613      	mov	r3, r2
 80079f8:	009b      	lsls	r3, r3, #2
 80079fa:	4413      	add	r3, r2
 80079fc:	00db      	lsls	r3, r3, #3
 80079fe:	440b      	add	r3, r1
 8007a00:	f503 73b5 	add.w	r3, r3, #362	; 0x16a
 8007a04:	781b      	ldrb	r3, [r3, #0]
 8007a06:	4618      	mov	r0, r3
 8007a08:	3714      	adds	r7, #20
 8007a0a:	46bd      	mov	sp, r7
 8007a0c:	bc80      	pop	{r7}
 8007a0e:	4770      	bx	lr

08007a10 <USBD_LL_SetUSBAddress>:
 8007a10:	b580      	push	{r7, lr}
 8007a12:	b084      	sub	sp, #16
 8007a14:	af00      	add	r7, sp, #0
 8007a16:	6078      	str	r0, [r7, #4]
 8007a18:	460b      	mov	r3, r1
 8007a1a:	70fb      	strb	r3, [r7, #3]
 8007a1c:	2300      	movs	r3, #0
 8007a1e:	73fb      	strb	r3, [r7, #15]
 8007a20:	2300      	movs	r3, #0
 8007a22:	73bb      	strb	r3, [r7, #14]
 8007a24:	687b      	ldr	r3, [r7, #4]
 8007a26:	f8d3 32c0 	ldr.w	r3, [r3, #704]	; 0x2c0
 8007a2a:	78fa      	ldrb	r2, [r7, #3]
 8007a2c:	4611      	mov	r1, r2
 8007a2e:	4618      	mov	r0, r3
 8007a30:	f7fa fafb 	bl	800202a <HAL_PCD_SetAddress>
 8007a34:	4603      	mov	r3, r0
 8007a36:	73fb      	strb	r3, [r7, #15]
 8007a38:	7bfb      	ldrb	r3, [r7, #15]
 8007a3a:	4618      	mov	r0, r3
 8007a3c:	f000 f858 	bl	8007af0 <USBD_Get_USB_Status>
 8007a40:	4603      	mov	r3, r0
 8007a42:	73bb      	strb	r3, [r7, #14]
 8007a44:	7bbb      	ldrb	r3, [r7, #14]
 8007a46:	4618      	mov	r0, r3
 8007a48:	3710      	adds	r7, #16
 8007a4a:	46bd      	mov	sp, r7
 8007a4c:	bd80      	pop	{r7, pc}

08007a4e <USBD_LL_Transmit>:
 8007a4e:	b580      	push	{r7, lr}
 8007a50:	b086      	sub	sp, #24
 8007a52:	af00      	add	r7, sp, #0
 8007a54:	60f8      	str	r0, [r7, #12]
 8007a56:	607a      	str	r2, [r7, #4]
 8007a58:	461a      	mov	r2, r3
 8007a5a:	460b      	mov	r3, r1
 8007a5c:	72fb      	strb	r3, [r7, #11]
 8007a5e:	4613      	mov	r3, r2
 8007a60:	813b      	strh	r3, [r7, #8]
 8007a62:	2300      	movs	r3, #0
 8007a64:	75fb      	strb	r3, [r7, #23]
 8007a66:	2300      	movs	r3, #0
 8007a68:	75bb      	strb	r3, [r7, #22]
 8007a6a:	68fb      	ldr	r3, [r7, #12]
 8007a6c:	f8d3 02c0 	ldr.w	r0, [r3, #704]	; 0x2c0
 8007a70:	893b      	ldrh	r3, [r7, #8]
 8007a72:	7af9      	ldrb	r1, [r7, #11]
 8007a74:	687a      	ldr	r2, [r7, #4]
 8007a76:	f7fa fbe8 	bl	800224a <HAL_PCD_EP_Transmit>
 8007a7a:	4603      	mov	r3, r0
 8007a7c:	75fb      	strb	r3, [r7, #23]
 8007a7e:	7dfb      	ldrb	r3, [r7, #23]
 8007a80:	4618      	mov	r0, r3
 8007a82:	f000 f835 	bl	8007af0 <USBD_Get_USB_Status>
 8007a86:	4603      	mov	r3, r0
 8007a88:	75bb      	strb	r3, [r7, #22]
 8007a8a:	7dbb      	ldrb	r3, [r7, #22]
 8007a8c:	4618      	mov	r0, r3
 8007a8e:	3718      	adds	r7, #24
 8007a90:	46bd      	mov	sp, r7
 8007a92:	bd80      	pop	{r7, pc}

08007a94 <USBD_LL_PrepareReceive>:
 8007a94:	b580      	push	{r7, lr}
 8007a96:	b086      	sub	sp, #24
 8007a98:	af00      	add	r7, sp, #0
 8007a9a:	60f8      	str	r0, [r7, #12]
 8007a9c:	607a      	str	r2, [r7, #4]
 8007a9e:	461a      	mov	r2, r3
 8007aa0:	460b      	mov	r3, r1
 8007aa2:	72fb      	strb	r3, [r7, #11]
 8007aa4:	4613      	mov	r3, r2
 8007aa6:	813b      	strh	r3, [r7, #8]
 8007aa8:	2300      	movs	r3, #0
 8007aaa:	75fb      	strb	r3, [r7, #23]
 8007aac:	2300      	movs	r3, #0
 8007aae:	75bb      	strb	r3, [r7, #22]
 8007ab0:	68fb      	ldr	r3, [r7, #12]
 8007ab2:	f8d3 02c0 	ldr.w	r0, [r3, #704]	; 0x2c0
 8007ab6:	893b      	ldrh	r3, [r7, #8]
 8007ab8:	7af9      	ldrb	r1, [r7, #11]
 8007aba:	687a      	ldr	r2, [r7, #4]
 8007abc:	f7fa fb88 	bl	80021d0 <HAL_PCD_EP_Receive>
 8007ac0:	4603      	mov	r3, r0
 8007ac2:	75fb      	strb	r3, [r7, #23]
 8007ac4:	7dfb      	ldrb	r3, [r7, #23]
 8007ac6:	4618      	mov	r0, r3
 8007ac8:	f000 f812 	bl	8007af0 <USBD_Get_USB_Status>
 8007acc:	4603      	mov	r3, r0
 8007ace:	75bb      	strb	r3, [r7, #22]
 8007ad0:	7dbb      	ldrb	r3, [r7, #22]
 8007ad2:	4618      	mov	r0, r3
 8007ad4:	3718      	adds	r7, #24
 8007ad6:	46bd      	mov	sp, r7
 8007ad8:	bd80      	pop	{r7, pc}

08007ada <HAL_PCDEx_SetConnectionState>:
 8007ada:	b480      	push	{r7}
 8007adc:	b083      	sub	sp, #12
 8007ade:	af00      	add	r7, sp, #0
 8007ae0:	6078      	str	r0, [r7, #4]
 8007ae2:	460b      	mov	r3, r1
 8007ae4:	70fb      	strb	r3, [r7, #3]
 8007ae6:	bf00      	nop
 8007ae8:	370c      	adds	r7, #12
 8007aea:	46bd      	mov	sp, r7
 8007aec:	bc80      	pop	{r7}
 8007aee:	4770      	bx	lr

08007af0 <USBD_Get_USB_Status>:
 8007af0:	b480      	push	{r7}
 8007af2:	b085      	sub	sp, #20
 8007af4:	af00      	add	r7, sp, #0
 8007af6:	4603      	mov	r3, r0
 8007af8:	71fb      	strb	r3, [r7, #7]
 8007afa:	2300      	movs	r3, #0
 8007afc:	73fb      	strb	r3, [r7, #15]
 8007afe:	79fb      	ldrb	r3, [r7, #7]
 8007b00:	2b03      	cmp	r3, #3
 8007b02:	d817      	bhi.n	8007b34 <USBD_Get_USB_Status+0x44>
 8007b04:	a201      	add	r2, pc, #4	; (adr r2, 8007b0c <USBD_Get_USB_Status+0x1c>)
 8007b06:	f852 f023 	ldr.w	pc, [r2, r3, lsl #2]
 8007b0a:	bf00      	nop
 8007b0c:	08007b1d 	.word	0x08007b1d
 8007b10:	08007b23 	.word	0x08007b23
 8007b14:	08007b29 	.word	0x08007b29
 8007b18:	08007b2f 	.word	0x08007b2f
 8007b1c:	2300      	movs	r3, #0
 8007b1e:	73fb      	strb	r3, [r7, #15]
 8007b20:	e00b      	b.n	8007b3a <USBD_Get_USB_Status+0x4a>
 8007b22:	2302      	movs	r3, #2
 8007b24:	73fb      	strb	r3, [r7, #15]
 8007b26:	e008      	b.n	8007b3a <USBD_Get_USB_Status+0x4a>
 8007b28:	2301      	movs	r3, #1
 8007b2a:	73fb      	strb	r3, [r7, #15]
 8007b2c:	e005      	b.n	8007b3a <USBD_Get_USB_Status+0x4a>
 8007b2e:	2302      	movs	r3, #2
 8007b30:	73fb      	strb	r3, [r7, #15]
 8007b32:	e002      	b.n	8007b3a <USBD_Get_USB_Status+0x4a>
 8007b34:	2302      	movs	r3, #2
 8007b36:	73fb      	strb	r3, [r7, #15]
 8007b38:	bf00      	nop
 8007b3a:	7bfb      	ldrb	r3, [r7, #15]
 8007b3c:	4618      	mov	r0, r3
 8007b3e:	3714      	adds	r7, #20
 8007b40:	46bd      	mov	sp, r7
 8007b42:	bc80      	pop	{r7}
 8007b44:	4770      	bx	lr
 8007b46:	bf00      	nop

08007b48 <__errno>:
 8007b48:	4b01      	ldr	r3, [pc, #4]	; (8007b50 <__errno+0x8>)
 8007b4a:	6818      	ldr	r0, [r3, #0]
 8007b4c:	4770      	bx	lr
 8007b4e:	bf00      	nop
 8007b50:	20000100 	.word	0x20000100

08007b54 <__libc_init_array>:
 8007b54:	b570      	push	{r4, r5, r6, lr}
 8007b56:	2600      	movs	r6, #0
 8007b58:	4d0c      	ldr	r5, [pc, #48]	; (8007b8c <__libc_init_array+0x38>)
 8007b5a:	4c0d      	ldr	r4, [pc, #52]	; (8007b90 <__libc_init_array+0x3c>)
 8007b5c:	1b64      	subs	r4, r4, r5
 8007b5e:	10a4      	asrs	r4, r4, #2
 8007b60:	42a6      	cmp	r6, r4
 8007b62:	d109      	bne.n	8007b78 <__libc_init_array+0x24>
 8007b64:	f000 ffb2 	bl	8008acc <_init>
 8007b68:	2600      	movs	r6, #0
 8007b6a:	4d0a      	ldr	r5, [pc, #40]	; (8007b94 <__libc_init_array+0x40>)
 8007b6c:	4c0a      	ldr	r4, [pc, #40]	; (8007b98 <__libc_init_array+0x44>)
 8007b6e:	1b64      	subs	r4, r4, r5
 8007b70:	10a4      	asrs	r4, r4, #2
 8007b72:	42a6      	cmp	r6, r4
 8007b74:	d105      	bne.n	8007b82 <__libc_init_array+0x2e>
 8007b76:	bd70      	pop	{r4, r5, r6, pc}
 8007b78:	f855 3b04 	ldr.w	r3, [r5], #4
 8007b7c:	4798      	blx	r3
 8007b7e:	3601      	adds	r6, #1
 8007b80:	e7ee      	b.n	8007b60 <__libc_init_array+0xc>
 8007b82:	f855 3b04 	ldr.w	r3, [r5], #4
 8007b86:	4798      	blx	r3
 8007b88:	3601      	adds	r6, #1
 8007b8a:	e7f2      	b.n	8007b72 <__libc_init_array+0x1e>
 8007b8c:	08008b88 	.word	0x08008b88
 8007b90:	08008b88 	.word	0x08008b88
 8007b94:	08008b88 	.word	0x08008b88
 8007b98:	08008b8c 	.word	0x08008b8c

08007b9c <memset>:
 8007b9c:	4603      	mov	r3, r0
 8007b9e:	4402      	add	r2, r0
 8007ba0:	4293      	cmp	r3, r2
 8007ba2:	d100      	bne.n	8007ba6 <memset+0xa>
 8007ba4:	4770      	bx	lr
 8007ba6:	f803 1b01 	strb.w	r1, [r3], #1
 8007baa:	e7f9      	b.n	8007ba0 <memset+0x4>

08007bac <pow>:
 8007bac:	e92d 43f8 	stmdb	sp!, {r3, r4, r5, r6, r7, r8, r9, lr}
 8007bb0:	461f      	mov	r7, r3
 8007bb2:	4680      	mov	r8, r0
 8007bb4:	4689      	mov	r9, r1
 8007bb6:	4616      	mov	r6, r2
 8007bb8:	f000 f8a6 	bl	8007d08 <__ieee754_pow>
 8007bbc:	4b4d      	ldr	r3, [pc, #308]	; (8007cf4 <pow+0x148>)
 8007bbe:	4604      	mov	r4, r0
 8007bc0:	f993 3000 	ldrsb.w	r3, [r3]
 8007bc4:	460d      	mov	r5, r1
 8007bc6:	3301      	adds	r3, #1
 8007bc8:	d015      	beq.n	8007bf6 <pow+0x4a>
 8007bca:	4632      	mov	r2, r6
 8007bcc:	463b      	mov	r3, r7
 8007bce:	4630      	mov	r0, r6
 8007bd0:	4639      	mov	r1, r7
 8007bd2:	f7f8 ff13 	bl	80009fc <__aeabi_dcmpun>
 8007bd6:	b970      	cbnz	r0, 8007bf6 <pow+0x4a>
 8007bd8:	4642      	mov	r2, r8
 8007bda:	464b      	mov	r3, r9
 8007bdc:	4640      	mov	r0, r8
 8007bde:	4649      	mov	r1, r9
 8007be0:	f7f8 ff0c 	bl	80009fc <__aeabi_dcmpun>
 8007be4:	2200      	movs	r2, #0
 8007be6:	2300      	movs	r3, #0
 8007be8:	b148      	cbz	r0, 8007bfe <pow+0x52>
 8007bea:	4630      	mov	r0, r6
 8007bec:	4639      	mov	r1, r7
 8007bee:	f7f8 fed3 	bl	8000998 <__aeabi_dcmpeq>
 8007bf2:	2800      	cmp	r0, #0
 8007bf4:	d17b      	bne.n	8007cee <pow+0x142>
 8007bf6:	4620      	mov	r0, r4
 8007bf8:	4629      	mov	r1, r5
 8007bfa:	e8bd 83f8 	ldmia.w	sp!, {r3, r4, r5, r6, r7, r8, r9, pc}
 8007bfe:	4640      	mov	r0, r8
 8007c00:	4649      	mov	r1, r9
 8007c02:	f7f8 fec9 	bl	8000998 <__aeabi_dcmpeq>
 8007c06:	b1e0      	cbz	r0, 8007c42 <pow+0x96>
 8007c08:	2200      	movs	r2, #0
 8007c0a:	2300      	movs	r3, #0
 8007c0c:	4630      	mov	r0, r6
 8007c0e:	4639      	mov	r1, r7
 8007c10:	f7f8 fec2 	bl	8000998 <__aeabi_dcmpeq>
 8007c14:	2800      	cmp	r0, #0
 8007c16:	d16a      	bne.n	8007cee <pow+0x142>
 8007c18:	4630      	mov	r0, r6
 8007c1a:	4639      	mov	r1, r7
 8007c1c:	f000 fe39 	bl	8008892 <finite>
 8007c20:	2800      	cmp	r0, #0
 8007c22:	d0e8      	beq.n	8007bf6 <pow+0x4a>
 8007c24:	2200      	movs	r2, #0
 8007c26:	2300      	movs	r3, #0
 8007c28:	4630      	mov	r0, r6
 8007c2a:	4639      	mov	r1, r7
 8007c2c:	f7f8 febe 	bl	80009ac <__aeabi_dcmplt>
 8007c30:	2800      	cmp	r0, #0
 8007c32:	d0e0      	beq.n	8007bf6 <pow+0x4a>
 8007c34:	f7ff ff88 	bl	8007b48 <__errno>
 8007c38:	2321      	movs	r3, #33	; 0x21
 8007c3a:	2400      	movs	r4, #0
 8007c3c:	6003      	str	r3, [r0, #0]
 8007c3e:	4d2e      	ldr	r5, [pc, #184]	; (8007cf8 <pow+0x14c>)
 8007c40:	e7d9      	b.n	8007bf6 <pow+0x4a>
 8007c42:	4620      	mov	r0, r4
 8007c44:	4629      	mov	r1, r5
 8007c46:	f000 fe24 	bl	8008892 <finite>
 8007c4a:	bba8      	cbnz	r0, 8007cb8 <pow+0x10c>
 8007c4c:	4640      	mov	r0, r8
 8007c4e:	4649      	mov	r1, r9
 8007c50:	f000 fe1f 	bl	8008892 <finite>
 8007c54:	b380      	cbz	r0, 8007cb8 <pow+0x10c>
 8007c56:	4630      	mov	r0, r6
 8007c58:	4639      	mov	r1, r7
 8007c5a:	f000 fe1a 	bl	8008892 <finite>
 8007c5e:	b358      	cbz	r0, 8007cb8 <pow+0x10c>
 8007c60:	4622      	mov	r2, r4
 8007c62:	462b      	mov	r3, r5
 8007c64:	4620      	mov	r0, r4
 8007c66:	4629      	mov	r1, r5
 8007c68:	f7f8 fec8 	bl	80009fc <__aeabi_dcmpun>
 8007c6c:	b160      	cbz	r0, 8007c88 <pow+0xdc>
 8007c6e:	f7ff ff6b 	bl	8007b48 <__errno>
 8007c72:	2321      	movs	r3, #33	; 0x21
 8007c74:	2200      	movs	r2, #0
 8007c76:	6003      	str	r3, [r0, #0]
 8007c78:	2300      	movs	r3, #0
 8007c7a:	4610      	mov	r0, r2
 8007c7c:	4619      	mov	r1, r3
 8007c7e:	f7f8 fd4d 	bl	800071c <__aeabi_ddiv>
 8007c82:	4604      	mov	r4, r0
 8007c84:	460d      	mov	r5, r1
 8007c86:	e7b6      	b.n	8007bf6 <pow+0x4a>
 8007c88:	f7ff ff5e 	bl	8007b48 <__errno>
 8007c8c:	2322      	movs	r3, #34	; 0x22
 8007c8e:	2200      	movs	r2, #0
 8007c90:	6003      	str	r3, [r0, #0]
 8007c92:	4649      	mov	r1, r9
 8007c94:	2300      	movs	r3, #0
 8007c96:	4640      	mov	r0, r8
 8007c98:	f7f8 fe88 	bl	80009ac <__aeabi_dcmplt>
 8007c9c:	2400      	movs	r4, #0
 8007c9e:	b148      	cbz	r0, 8007cb4 <pow+0x108>
 8007ca0:	4630      	mov	r0, r6
 8007ca2:	4639      	mov	r1, r7
 8007ca4:	f000 fe02 	bl	80088ac <rint>
 8007ca8:	4632      	mov	r2, r6
 8007caa:	463b      	mov	r3, r7
 8007cac:	f7f8 fe74 	bl	8000998 <__aeabi_dcmpeq>
 8007cb0:	2800      	cmp	r0, #0
 8007cb2:	d0c4      	beq.n	8007c3e <pow+0x92>
 8007cb4:	4d11      	ldr	r5, [pc, #68]	; (8007cfc <pow+0x150>)
 8007cb6:	e79e      	b.n	8007bf6 <pow+0x4a>
 8007cb8:	2200      	movs	r2, #0
 8007cba:	2300      	movs	r3, #0
 8007cbc:	4620      	mov	r0, r4
 8007cbe:	4629      	mov	r1, r5
 8007cc0:	f7f8 fe6a 	bl	8000998 <__aeabi_dcmpeq>
 8007cc4:	2800      	cmp	r0, #0
 8007cc6:	d096      	beq.n	8007bf6 <pow+0x4a>
 8007cc8:	4640      	mov	r0, r8
 8007cca:	4649      	mov	r1, r9
 8007ccc:	f000 fde1 	bl	8008892 <finite>
 8007cd0:	2800      	cmp	r0, #0
 8007cd2:	d090      	beq.n	8007bf6 <pow+0x4a>
 8007cd4:	4630      	mov	r0, r6
 8007cd6:	4639      	mov	r1, r7
 8007cd8:	f000 fddb 	bl	8008892 <finite>
 8007cdc:	2800      	cmp	r0, #0
 8007cde:	d08a      	beq.n	8007bf6 <pow+0x4a>
 8007ce0:	f7ff ff32 	bl	8007b48 <__errno>
 8007ce4:	2322      	movs	r3, #34	; 0x22
 8007ce6:	2400      	movs	r4, #0
 8007ce8:	2500      	movs	r5, #0
 8007cea:	6003      	str	r3, [r0, #0]
 8007cec:	e783      	b.n	8007bf6 <pow+0x4a>
 8007cee:	2400      	movs	r4, #0
 8007cf0:	4d03      	ldr	r5, [pc, #12]	; (8007d00 <pow+0x154>)
 8007cf2:	e780      	b.n	8007bf6 <pow+0x4a>
 8007cf4:	20000164 	.word	0x20000164
 8007cf8:	fff00000 	.word	0xfff00000
 8007cfc:	7ff00000 	.word	0x7ff00000
 8007d00:	3ff00000 	.word	0x3ff00000
 8007d04:	00000000 	.word	0x00000000

08007d08 <__ieee754_pow>:
 8007d08:	e92d 4ff0 	stmdb	sp!, {r4, r5, r6, r7, r8, r9, sl, fp, lr}
 8007d0c:	b093      	sub	sp, #76	; 0x4c
 8007d0e:	e9cd 2302 	strd	r2, r3, [sp, #8]
 8007d12:	e9dd 2602 	ldrd	r2, r6, [sp, #8]
 8007d16:	f026 4500 	bic.w	r5, r6, #2147483648	; 0x80000000
 8007d1a:	ea55 0302 	orrs.w	r3, r5, r2
 8007d1e:	4607      	mov	r7, r0
 8007d20:	4688      	mov	r8, r1
 8007d22:	f000 84bf 	beq.w	80086a4 <__ieee754_pow+0x99c>
 8007d26:	4b7e      	ldr	r3, [pc, #504]	; (8007f20 <__ieee754_pow+0x218>)
 8007d28:	f021 4400 	bic.w	r4, r1, #2147483648	; 0x80000000
 8007d2c:	429c      	cmp	r4, r3
 8007d2e:	4689      	mov	r9, r1
 8007d30:	4682      	mov	sl, r0
 8007d32:	dc09      	bgt.n	8007d48 <__ieee754_pow+0x40>
 8007d34:	d103      	bne.n	8007d3e <__ieee754_pow+0x36>
 8007d36:	b978      	cbnz	r0, 8007d58 <__ieee754_pow+0x50>
 8007d38:	42a5      	cmp	r5, r4
 8007d3a:	dd02      	ble.n	8007d42 <__ieee754_pow+0x3a>
 8007d3c:	e00c      	b.n	8007d58 <__ieee754_pow+0x50>
 8007d3e:	429d      	cmp	r5, r3
 8007d40:	dc02      	bgt.n	8007d48 <__ieee754_pow+0x40>
 8007d42:	429d      	cmp	r5, r3
 8007d44:	d10e      	bne.n	8007d64 <__ieee754_pow+0x5c>
 8007d46:	b16a      	cbz	r2, 8007d64 <__ieee754_pow+0x5c>
 8007d48:	f104 4440 	add.w	r4, r4, #3221225472	; 0xc0000000
 8007d4c:	f504 1480 	add.w	r4, r4, #1048576	; 0x100000
 8007d50:	ea54 030a 	orrs.w	r3, r4, sl
 8007d54:	f000 84a6 	beq.w	80086a4 <__ieee754_pow+0x99c>
 8007d58:	4872      	ldr	r0, [pc, #456]	; (8007f24 <__ieee754_pow+0x21c>)
 8007d5a:	b013      	add	sp, #76	; 0x4c
 8007d5c:	e8bd 4ff0 	ldmia.w	sp!, {r4, r5, r6, r7, r8, r9, sl, fp, lr}
 8007d60:	f000 bd9e 	b.w	80088a0 <nan>
 8007d64:	f1b9 0f00 	cmp.w	r9, #0
 8007d68:	da39      	bge.n	8007dde <__ieee754_pow+0xd6>
 8007d6a:	4b6f      	ldr	r3, [pc, #444]	; (8007f28 <__ieee754_pow+0x220>)
 8007d6c:	429d      	cmp	r5, r3
 8007d6e:	dc54      	bgt.n	8007e1a <__ieee754_pow+0x112>
 8007d70:	f1a3 7354 	sub.w	r3, r3, #55574528	; 0x3500000
 8007d74:	429d      	cmp	r5, r3
 8007d76:	f340 84a6 	ble.w	80086c6 <__ieee754_pow+0x9be>
 8007d7a:	152b      	asrs	r3, r5, #20
 8007d7c:	f2a3 33ff 	subw	r3, r3, #1023	; 0x3ff
 8007d80:	2b14      	cmp	r3, #20
 8007d82:	dd0f      	ble.n	8007da4 <__ieee754_pow+0x9c>
 8007d84:	f1c3 0334 	rsb	r3, r3, #52	; 0x34
 8007d88:	fa22 f103 	lsr.w	r1, r2, r3
 8007d8c:	fa01 f303 	lsl.w	r3, r1, r3
 8007d90:	4293      	cmp	r3, r2
 8007d92:	f040 8498 	bne.w	80086c6 <__ieee754_pow+0x9be>
 8007d96:	f001 0101 	and.w	r1, r1, #1
 8007d9a:	f1c1 0302 	rsb	r3, r1, #2
 8007d9e:	9300      	str	r3, [sp, #0]
 8007da0:	b182      	cbz	r2, 8007dc4 <__ieee754_pow+0xbc>
 8007da2:	e05e      	b.n	8007e62 <__ieee754_pow+0x15a>
 8007da4:	2a00      	cmp	r2, #0
 8007da6:	d15a      	bne.n	8007e5e <__ieee754_pow+0x156>
 8007da8:	f1c3 0314 	rsb	r3, r3, #20
 8007dac:	fa45 f103 	asr.w	r1, r5, r3
 8007db0:	fa01 f303 	lsl.w	r3, r1, r3
 8007db4:	42ab      	cmp	r3, r5
 8007db6:	f040 8483 	bne.w	80086c0 <__ieee754_pow+0x9b8>
 8007dba:	f001 0101 	and.w	r1, r1, #1
 8007dbe:	f1c1 0302 	rsb	r3, r1, #2
 8007dc2:	9300      	str	r3, [sp, #0]
 8007dc4:	4b59      	ldr	r3, [pc, #356]	; (8007f2c <__ieee754_pow+0x224>)
 8007dc6:	429d      	cmp	r5, r3
 8007dc8:	d130      	bne.n	8007e2c <__ieee754_pow+0x124>
 8007dca:	2e00      	cmp	r6, #0
 8007dcc:	f280 8474 	bge.w	80086b8 <__ieee754_pow+0x9b0>
 8007dd0:	463a      	mov	r2, r7
 8007dd2:	4643      	mov	r3, r8
 8007dd4:	2000      	movs	r0, #0
 8007dd6:	4955      	ldr	r1, [pc, #340]	; (8007f2c <__ieee754_pow+0x224>)
 8007dd8:	f7f8 fca0 	bl	800071c <__aeabi_ddiv>
 8007ddc:	e02f      	b.n	8007e3e <__ieee754_pow+0x136>
 8007dde:	2300      	movs	r3, #0
 8007de0:	9300      	str	r3, [sp, #0]
 8007de2:	2a00      	cmp	r2, #0
 8007de4:	d13d      	bne.n	8007e62 <__ieee754_pow+0x15a>
 8007de6:	4b4e      	ldr	r3, [pc, #312]	; (8007f20 <__ieee754_pow+0x218>)
 8007de8:	429d      	cmp	r5, r3
 8007dea:	d1eb      	bne.n	8007dc4 <__ieee754_pow+0xbc>
 8007dec:	f104 4340 	add.w	r3, r4, #3221225472	; 0xc0000000
 8007df0:	f503 1380 	add.w	r3, r3, #1048576	; 0x100000
 8007df4:	ea53 030a 	orrs.w	r3, r3, sl
 8007df8:	f000 8454 	beq.w	80086a4 <__ieee754_pow+0x99c>
 8007dfc:	4b4c      	ldr	r3, [pc, #304]	; (8007f30 <__ieee754_pow+0x228>)
 8007dfe:	429c      	cmp	r4, r3
 8007e00:	dd0d      	ble.n	8007e1e <__ieee754_pow+0x116>
 8007e02:	2e00      	cmp	r6, #0
 8007e04:	f280 8454 	bge.w	80086b0 <__ieee754_pow+0x9a8>
 8007e08:	f04f 0b00 	mov.w	fp, #0
 8007e0c:	f04f 0c00 	mov.w	ip, #0
 8007e10:	4658      	mov	r0, fp
 8007e12:	4661      	mov	r1, ip
 8007e14:	b013      	add	sp, #76	; 0x4c
 8007e16:	e8bd 8ff0 	ldmia.w	sp!, {r4, r5, r6, r7, r8, r9, sl, fp, pc}
 8007e1a:	2302      	movs	r3, #2
 8007e1c:	e7e0      	b.n	8007de0 <__ieee754_pow+0xd8>
 8007e1e:	2e00      	cmp	r6, #0
 8007e20:	daf2      	bge.n	8007e08 <__ieee754_pow+0x100>
 8007e22:	e9dd b302 	ldrd	fp, r3, [sp, #8]
 8007e26:	f103 4c00 	add.w	ip, r3, #2147483648	; 0x80000000
 8007e2a:	e7f1      	b.n	8007e10 <__ieee754_pow+0x108>
 8007e2c:	f1b6 4f80 	cmp.w	r6, #1073741824	; 0x40000000
 8007e30:	d108      	bne.n	8007e44 <__ieee754_pow+0x13c>
 8007e32:	463a      	mov	r2, r7
 8007e34:	4643      	mov	r3, r8
 8007e36:	4638      	mov	r0, r7
 8007e38:	4641      	mov	r1, r8
 8007e3a:	f7f8 fb45 	bl	80004c8 <__aeabi_dmul>
 8007e3e:	4683      	mov	fp, r0
 8007e40:	468c      	mov	ip, r1
 8007e42:	e7e5      	b.n	8007e10 <__ieee754_pow+0x108>
 8007e44:	4b3b      	ldr	r3, [pc, #236]	; (8007f34 <__ieee754_pow+0x22c>)
 8007e46:	429e      	cmp	r6, r3
 8007e48:	d10b      	bne.n	8007e62 <__ieee754_pow+0x15a>
 8007e4a:	f1b9 0f00 	cmp.w	r9, #0
 8007e4e:	db08      	blt.n	8007e62 <__ieee754_pow+0x15a>
 8007e50:	4638      	mov	r0, r7
 8007e52:	4641      	mov	r1, r8
 8007e54:	b013      	add	sp, #76	; 0x4c
 8007e56:	e8bd 4ff0 	ldmia.w	sp!, {r4, r5, r6, r7, r8, r9, sl, fp, lr}
 8007e5a:	f000 bc6b 	b.w	8008734 <__ieee754_sqrt>
 8007e5e:	2300      	movs	r3, #0
 8007e60:	9300      	str	r3, [sp, #0]
 8007e62:	4638      	mov	r0, r7
 8007e64:	4641      	mov	r1, r8
 8007e66:	f000 fd11 	bl	800888c <fabs>
 8007e6a:	4683      	mov	fp, r0
 8007e6c:	468c      	mov	ip, r1
 8007e6e:	f1ba 0f00 	cmp.w	sl, #0
 8007e72:	d129      	bne.n	8007ec8 <__ieee754_pow+0x1c0>
 8007e74:	b124      	cbz	r4, 8007e80 <__ieee754_pow+0x178>
 8007e76:	4b2d      	ldr	r3, [pc, #180]	; (8007f2c <__ieee754_pow+0x224>)
 8007e78:	f029 4240 	bic.w	r2, r9, #3221225472	; 0xc0000000
 8007e7c:	429a      	cmp	r2, r3
 8007e7e:	d123      	bne.n	8007ec8 <__ieee754_pow+0x1c0>
 8007e80:	2e00      	cmp	r6, #0
 8007e82:	da07      	bge.n	8007e94 <__ieee754_pow+0x18c>
 8007e84:	465a      	mov	r2, fp
 8007e86:	4663      	mov	r3, ip
 8007e88:	2000      	movs	r0, #0
 8007e8a:	4928      	ldr	r1, [pc, #160]	; (8007f2c <__ieee754_pow+0x224>)
 8007e8c:	f7f8 fc46 	bl	800071c <__aeabi_ddiv>
 8007e90:	4683      	mov	fp, r0
 8007e92:	468c      	mov	ip, r1
 8007e94:	f1b9 0f00 	cmp.w	r9, #0
 8007e98:	daba      	bge.n	8007e10 <__ieee754_pow+0x108>
 8007e9a:	9b00      	ldr	r3, [sp, #0]
 8007e9c:	f104 4440 	add.w	r4, r4, #3221225472	; 0xc0000000
 8007ea0:	f504 1480 	add.w	r4, r4, #1048576	; 0x100000
 8007ea4:	4323      	orrs	r3, r4
 8007ea6:	d108      	bne.n	8007eba <__ieee754_pow+0x1b2>
 8007ea8:	465a      	mov	r2, fp
 8007eaa:	4663      	mov	r3, ip
 8007eac:	4658      	mov	r0, fp
 8007eae:	4661      	mov	r1, ip
 8007eb0:	f7f8 f952 	bl	8000158 <__aeabi_dsub>
 8007eb4:	4602      	mov	r2, r0
 8007eb6:	460b      	mov	r3, r1
 8007eb8:	e78e      	b.n	8007dd8 <__ieee754_pow+0xd0>
 8007eba:	9b00      	ldr	r3, [sp, #0]
 8007ebc:	2b01      	cmp	r3, #1
 8007ebe:	d1a7      	bne.n	8007e10 <__ieee754_pow+0x108>
 8007ec0:	f10c 4300 	add.w	r3, ip, #2147483648	; 0x80000000
 8007ec4:	469c      	mov	ip, r3
 8007ec6:	e7a3      	b.n	8007e10 <__ieee754_pow+0x108>
 8007ec8:	ea4f 73d9 	mov.w	r3, r9, lsr #31
 8007ecc:	3b01      	subs	r3, #1
 8007ece:	930c      	str	r3, [sp, #48]	; 0x30
 8007ed0:	9a0c      	ldr	r2, [sp, #48]	; 0x30
 8007ed2:	9b00      	ldr	r3, [sp, #0]
 8007ed4:	4313      	orrs	r3, r2
 8007ed6:	d104      	bne.n	8007ee2 <__ieee754_pow+0x1da>
 8007ed8:	463a      	mov	r2, r7
 8007eda:	4643      	mov	r3, r8
 8007edc:	4638      	mov	r0, r7
 8007ede:	4641      	mov	r1, r8
 8007ee0:	e7e6      	b.n	8007eb0 <__ieee754_pow+0x1a8>
 8007ee2:	4b15      	ldr	r3, [pc, #84]	; (8007f38 <__ieee754_pow+0x230>)
 8007ee4:	429d      	cmp	r5, r3
 8007ee6:	f340 80f9 	ble.w	80080dc <__ieee754_pow+0x3d4>
 8007eea:	f103 7304 	add.w	r3, r3, #34603008	; 0x2100000
 8007eee:	429d      	cmp	r5, r3
 8007ef0:	4b0f      	ldr	r3, [pc, #60]	; (8007f30 <__ieee754_pow+0x228>)
 8007ef2:	dd09      	ble.n	8007f08 <__ieee754_pow+0x200>
 8007ef4:	429c      	cmp	r4, r3
 8007ef6:	dc0c      	bgt.n	8007f12 <__ieee754_pow+0x20a>
 8007ef8:	2e00      	cmp	r6, #0
 8007efa:	da85      	bge.n	8007e08 <__ieee754_pow+0x100>
 8007efc:	a306      	add	r3, pc, #24	; (adr r3, 8007f18 <__ieee754_pow+0x210>)
 8007efe:	e9d3 2300 	ldrd	r2, r3, [r3]
 8007f02:	4610      	mov	r0, r2
 8007f04:	4619      	mov	r1, r3
 8007f06:	e798      	b.n	8007e3a <__ieee754_pow+0x132>
 8007f08:	429c      	cmp	r4, r3
 8007f0a:	dbf5      	blt.n	8007ef8 <__ieee754_pow+0x1f0>
 8007f0c:	4b07      	ldr	r3, [pc, #28]	; (8007f2c <__ieee754_pow+0x224>)
 8007f0e:	429c      	cmp	r4, r3
 8007f10:	dd14      	ble.n	8007f3c <__ieee754_pow+0x234>
 8007f12:	2e00      	cmp	r6, #0
 8007f14:	dcf2      	bgt.n	8007efc <__ieee754_pow+0x1f4>
 8007f16:	e777      	b.n	8007e08 <__ieee754_pow+0x100>
 8007f18:	8800759c 	.word	0x8800759c
 8007f1c:	7e37e43c 	.word	0x7e37e43c
 8007f20:	7ff00000 	.word	0x7ff00000
 8007f24:	08008b44 	.word	0x08008b44
 8007f28:	433fffff 	.word	0x433fffff
 8007f2c:	3ff00000 	.word	0x3ff00000
 8007f30:	3fefffff 	.word	0x3fefffff
 8007f34:	3fe00000 	.word	0x3fe00000
 8007f38:	41e00000 	.word	0x41e00000
 8007f3c:	4661      	mov	r1, ip
 8007f3e:	2200      	movs	r2, #0
 8007f40:	4658      	mov	r0, fp
 8007f42:	4b61      	ldr	r3, [pc, #388]	; (80080c8 <__ieee754_pow+0x3c0>)
 8007f44:	f7f8 f908 	bl	8000158 <__aeabi_dsub>
 8007f48:	a355      	add	r3, pc, #340	; (adr r3, 80080a0 <__ieee754_pow+0x398>)
 8007f4a:	e9d3 2300 	ldrd	r2, r3, [r3]
 8007f4e:	4604      	mov	r4, r0
 8007f50:	460d      	mov	r5, r1
 8007f52:	f7f8 fab9 	bl	80004c8 <__aeabi_dmul>
 8007f56:	a354      	add	r3, pc, #336	; (adr r3, 80080a8 <__ieee754_pow+0x3a0>)
 8007f58:	e9d3 2300 	ldrd	r2, r3, [r3]
 8007f5c:	4606      	mov	r6, r0
 8007f5e:	460f      	mov	r7, r1
 8007f60:	4620      	mov	r0, r4
 8007f62:	4629      	mov	r1, r5
 8007f64:	f7f8 fab0 	bl	80004c8 <__aeabi_dmul>
 8007f68:	2200      	movs	r2, #0
 8007f6a:	4682      	mov	sl, r0
 8007f6c:	468b      	mov	fp, r1
 8007f6e:	4620      	mov	r0, r4
 8007f70:	4629      	mov	r1, r5
 8007f72:	4b56      	ldr	r3, [pc, #344]	; (80080cc <__ieee754_pow+0x3c4>)
 8007f74:	f7f8 faa8 	bl	80004c8 <__aeabi_dmul>
 8007f78:	4602      	mov	r2, r0
 8007f7a:	460b      	mov	r3, r1
 8007f7c:	a14c      	add	r1, pc, #304	; (adr r1, 80080b0 <__ieee754_pow+0x3a8>)
 8007f7e:	e9d1 0100 	ldrd	r0, r1, [r1]
 8007f82:	f7f8 f8e9 	bl	8000158 <__aeabi_dsub>
 8007f86:	4622      	mov	r2, r4
 8007f88:	462b      	mov	r3, r5
 8007f8a:	f7f8 fa9d 	bl	80004c8 <__aeabi_dmul>
 8007f8e:	4602      	mov	r2, r0
 8007f90:	460b      	mov	r3, r1
 8007f92:	2000      	movs	r0, #0
 8007f94:	494e      	ldr	r1, [pc, #312]	; (80080d0 <__ieee754_pow+0x3c8>)
 8007f96:	f7f8 f8df 	bl	8000158 <__aeabi_dsub>
 8007f9a:	4622      	mov	r2, r4
 8007f9c:	462b      	mov	r3, r5
 8007f9e:	4680      	mov	r8, r0
 8007fa0:	4689      	mov	r9, r1
 8007fa2:	4620      	mov	r0, r4
 8007fa4:	4629      	mov	r1, r5
 8007fa6:	f7f8 fa8f 	bl	80004c8 <__aeabi_dmul>
 8007faa:	4602      	mov	r2, r0
 8007fac:	460b      	mov	r3, r1
 8007fae:	4640      	mov	r0, r8
 8007fb0:	4649      	mov	r1, r9
 8007fb2:	f7f8 fa89 	bl	80004c8 <__aeabi_dmul>
 8007fb6:	a340      	add	r3, pc, #256	; (adr r3, 80080b8 <__ieee754_pow+0x3b0>)
 8007fb8:	e9d3 2300 	ldrd	r2, r3, [r3]
 8007fbc:	f7f8 fa84 	bl	80004c8 <__aeabi_dmul>
 8007fc0:	4602      	mov	r2, r0
 8007fc2:	460b      	mov	r3, r1
 8007fc4:	4650      	mov	r0, sl
 8007fc6:	4659      	mov	r1, fp
 8007fc8:	f7f8 f8c6 	bl	8000158 <__aeabi_dsub>
 8007fcc:	f04f 0a00 	mov.w	sl, #0
 8007fd0:	4602      	mov	r2, r0
 8007fd2:	460b      	mov	r3, r1
 8007fd4:	4604      	mov	r4, r0
 8007fd6:	460d      	mov	r5, r1
 8007fd8:	4630      	mov	r0, r6
 8007fda:	4639      	mov	r1, r7
 8007fdc:	f7f8 f8be 	bl	800015c <__adddf3>
 8007fe0:	4632      	mov	r2, r6
 8007fe2:	463b      	mov	r3, r7
 8007fe4:	4650      	mov	r0, sl
 8007fe6:	468b      	mov	fp, r1
 8007fe8:	f7f8 f8b6 	bl	8000158 <__aeabi_dsub>
 8007fec:	4602      	mov	r2, r0
 8007fee:	460b      	mov	r3, r1
 8007ff0:	4620      	mov	r0, r4
 8007ff2:	4629      	mov	r1, r5
 8007ff4:	f7f8 f8b0 	bl	8000158 <__aeabi_dsub>
 8007ff8:	e9dd 6702 	ldrd	r6, r7, [sp, #8]
 8007ffc:	9b00      	ldr	r3, [sp, #0]
 8007ffe:	9a0c      	ldr	r2, [sp, #48]	; 0x30
 8008000:	3b01      	subs	r3, #1
 8008002:	4313      	orrs	r3, r2
 8008004:	f04f 0600 	mov.w	r6, #0
 8008008:	f04f 0200 	mov.w	r2, #0
 800800c:	bf0c      	ite	eq
 800800e:	4b31      	ldreq	r3, [pc, #196]	; (80080d4 <__ieee754_pow+0x3cc>)
 8008010:	4b2d      	ldrne	r3, [pc, #180]	; (80080c8 <__ieee754_pow+0x3c0>)
 8008012:	4604      	mov	r4, r0
 8008014:	460d      	mov	r5, r1
 8008016:	e9dd 0102 	ldrd	r0, r1, [sp, #8]
 800801a:	e9cd 2300 	strd	r2, r3, [sp]
 800801e:	4632      	mov	r2, r6
 8008020:	463b      	mov	r3, r7
 8008022:	f7f8 f899 	bl	8000158 <__aeabi_dsub>
 8008026:	4652      	mov	r2, sl
 8008028:	465b      	mov	r3, fp
 800802a:	f7f8 fa4d 	bl	80004c8 <__aeabi_dmul>
 800802e:	e9dd 2302 	ldrd	r2, r3, [sp, #8]
 8008032:	4680      	mov	r8, r0
 8008034:	4689      	mov	r9, r1
 8008036:	4620      	mov	r0, r4
 8008038:	4629      	mov	r1, r5
 800803a:	f7f8 fa45 	bl	80004c8 <__aeabi_dmul>
 800803e:	4602      	mov	r2, r0
 8008040:	460b      	mov	r3, r1
 8008042:	4640      	mov	r0, r8
 8008044:	4649      	mov	r1, r9
 8008046:	f7f8 f889 	bl	800015c <__adddf3>
 800804a:	4632      	mov	r2, r6
 800804c:	463b      	mov	r3, r7
 800804e:	4680      	mov	r8, r0
 8008050:	4689      	mov	r9, r1
 8008052:	4650      	mov	r0, sl
 8008054:	4659      	mov	r1, fp
 8008056:	f7f8 fa37 	bl	80004c8 <__aeabi_dmul>
 800805a:	4604      	mov	r4, r0
 800805c:	460d      	mov	r5, r1
 800805e:	460b      	mov	r3, r1
 8008060:	4602      	mov	r2, r0
 8008062:	4649      	mov	r1, r9
 8008064:	4640      	mov	r0, r8
 8008066:	e9cd 4502 	strd	r4, r5, [sp, #8]
 800806a:	f7f8 f877 	bl	800015c <__adddf3>
 800806e:	4b1a      	ldr	r3, [pc, #104]	; (80080d8 <__ieee754_pow+0x3d0>)
 8008070:	4682      	mov	sl, r0
 8008072:	4299      	cmp	r1, r3
 8008074:	460f      	mov	r7, r1
 8008076:	460e      	mov	r6, r1
 8008078:	f340 82ed 	ble.w	8008656 <__ieee754_pow+0x94e>
 800807c:	f101 433f 	add.w	r3, r1, #3204448256	; 0xbf000000
 8008080:	f503 03e0 	add.w	r3, r3, #7340032	; 0x700000
 8008084:	4303      	orrs	r3, r0
 8008086:	f000 81e7 	beq.w	8008458 <__ieee754_pow+0x750>
 800808a:	a30d      	add	r3, pc, #52	; (adr r3, 80080c0 <__ieee754_pow+0x3b8>)
 800808c:	e9d3 2300 	ldrd	r2, r3, [r3]
 8008090:	e9dd 0100 	ldrd	r0, r1, [sp]
 8008094:	f7f8 fa18 	bl	80004c8 <__aeabi_dmul>
 8008098:	a309      	add	r3, pc, #36	; (adr r3, 80080c0 <__ieee754_pow+0x3b8>)
 800809a:	e9d3 2300 	ldrd	r2, r3, [r3]
 800809e:	e6cc      	b.n	8007e3a <__ieee754_pow+0x132>
 80080a0:	60000000 	.word	0x60000000
 80080a4:	3ff71547 	.word	0x3ff71547
 80080a8:	f85ddf44 	.word	0xf85ddf44
 80080ac:	3e54ae0b 	.word	0x3e54ae0b
 80080b0:	55555555 	.word	0x55555555
 80080b4:	3fd55555 	.word	0x3fd55555
 80080b8:	652b82fe 	.word	0x652b82fe
 80080bc:	3ff71547 	.word	0x3ff71547
 80080c0:	8800759c 	.word	0x8800759c
 80080c4:	7e37e43c 	.word	0x7e37e43c
 80080c8:	3ff00000 	.word	0x3ff00000
 80080cc:	3fd00000 	.word	0x3fd00000
 80080d0:	3fe00000 	.word	0x3fe00000
 80080d4:	bff00000 	.word	0xbff00000
 80080d8:	408fffff 	.word	0x408fffff
 80080dc:	4bd4      	ldr	r3, [pc, #848]	; (8008430 <__ieee754_pow+0x728>)
 80080de:	2200      	movs	r2, #0
 80080e0:	ea09 0303 	and.w	r3, r9, r3
 80080e4:	b943      	cbnz	r3, 80080f8 <__ieee754_pow+0x3f0>
 80080e6:	4658      	mov	r0, fp
 80080e8:	4661      	mov	r1, ip
 80080ea:	4bd2      	ldr	r3, [pc, #840]	; (8008434 <__ieee754_pow+0x72c>)
 80080ec:	f7f8 f9ec 	bl	80004c8 <__aeabi_dmul>
 80080f0:	f06f 0234 	mvn.w	r2, #52	; 0x34
 80080f4:	4683      	mov	fp, r0
 80080f6:	460c      	mov	r4, r1
 80080f8:	1523      	asrs	r3, r4, #20
 80080fa:	f2a3 33ff 	subw	r3, r3, #1023	; 0x3ff
 80080fe:	4413      	add	r3, r2
 8008100:	930b      	str	r3, [sp, #44]	; 0x2c
 8008102:	4bcd      	ldr	r3, [pc, #820]	; (8008438 <__ieee754_pow+0x730>)
 8008104:	f3c4 0413 	ubfx	r4, r4, #0, #20
 8008108:	f044 557f 	orr.w	r5, r4, #1069547520	; 0x3fc00000
 800810c:	429c      	cmp	r4, r3
 800810e:	f445 1540 	orr.w	r5, r5, #3145728	; 0x300000
 8008112:	dd08      	ble.n	8008126 <__ieee754_pow+0x41e>
 8008114:	4bc9      	ldr	r3, [pc, #804]	; (800843c <__ieee754_pow+0x734>)
 8008116:	429c      	cmp	r4, r3
 8008118:	f340 819c 	ble.w	8008454 <__ieee754_pow+0x74c>
 800811c:	9b0b      	ldr	r3, [sp, #44]	; 0x2c
 800811e:	f5a5 1580 	sub.w	r5, r5, #1048576	; 0x100000
 8008122:	3301      	adds	r3, #1
 8008124:	930b      	str	r3, [sp, #44]	; 0x2c
 8008126:	2600      	movs	r6, #0
 8008128:	00f3      	lsls	r3, r6, #3
 800812a:	930d      	str	r3, [sp, #52]	; 0x34
 800812c:	4bc4      	ldr	r3, [pc, #784]	; (8008440 <__ieee754_pow+0x738>)
 800812e:	4658      	mov	r0, fp
 8008130:	eb03 03c6 	add.w	r3, r3, r6, lsl #3
 8008134:	e9d3 3400 	ldrd	r3, r4, [r3]
 8008138:	4629      	mov	r1, r5
 800813a:	461a      	mov	r2, r3
 800813c:	e9cd 3408 	strd	r3, r4, [sp, #32]
 8008140:	4623      	mov	r3, r4
 8008142:	f7f8 f809 	bl	8000158 <__aeabi_dsub>
 8008146:	46da      	mov	sl, fp
 8008148:	462b      	mov	r3, r5
 800814a:	4652      	mov	r2, sl
 800814c:	e9cd 010e 	strd	r0, r1, [sp, #56]	; 0x38
 8008150:	e9dd 0108 	ldrd	r0, r1, [sp, #32]
 8008154:	f7f8 f802 	bl	800015c <__adddf3>
 8008158:	4602      	mov	r2, r0
 800815a:	460b      	mov	r3, r1
 800815c:	2000      	movs	r0, #0
 800815e:	49b9      	ldr	r1, [pc, #740]	; (8008444 <__ieee754_pow+0x73c>)
 8008160:	f7f8 fadc 	bl	800071c <__aeabi_ddiv>
 8008164:	4602      	mov	r2, r0
 8008166:	460b      	mov	r3, r1
 8008168:	e9cd 0110 	strd	r0, r1, [sp, #64]	; 0x40
 800816c:	e9dd 010e 	ldrd	r0, r1, [sp, #56]	; 0x38
 8008170:	f7f8 f9aa 	bl	80004c8 <__aeabi_dmul>
 8008174:	e9cd 0106 	strd	r0, r1, [sp, #24]
 8008178:	e9dd 3406 	ldrd	r3, r4, [sp, #24]
 800817c:	e9cd 3404 	strd	r3, r4, [sp, #16]
 8008180:	2300      	movs	r3, #0
 8008182:	2200      	movs	r2, #0
 8008184:	46ab      	mov	fp, r5
 8008186:	106d      	asrs	r5, r5, #1
 8008188:	f045 5500 	orr.w	r5, r5, #536870912	; 0x20000000
 800818c:	9304      	str	r3, [sp, #16]
 800818e:	f505 2500 	add.w	r5, r5, #524288	; 0x80000
 8008192:	e9dd 8904 	ldrd	r8, r9, [sp, #16]
 8008196:	eb05 4386 	add.w	r3, r5, r6, lsl #18
 800819a:	4640      	mov	r0, r8
 800819c:	4649      	mov	r1, r9
 800819e:	4614      	mov	r4, r2
 80081a0:	461d      	mov	r5, r3
 80081a2:	f7f8 f991 	bl	80004c8 <__aeabi_dmul>
 80081a6:	4602      	mov	r2, r0
 80081a8:	460b      	mov	r3, r1
 80081aa:	e9dd 010e 	ldrd	r0, r1, [sp, #56]	; 0x38
 80081ae:	f7f7 ffd3 	bl	8000158 <__aeabi_dsub>
 80081b2:	e9dd 2308 	ldrd	r2, r3, [sp, #32]
 80081b6:	4606      	mov	r6, r0
 80081b8:	460f      	mov	r7, r1
 80081ba:	4620      	mov	r0, r4
 80081bc:	4629      	mov	r1, r5
 80081be:	f7f7 ffcb 	bl	8000158 <__aeabi_dsub>
 80081c2:	4602      	mov	r2, r0
 80081c4:	460b      	mov	r3, r1
 80081c6:	4650      	mov	r0, sl
 80081c8:	4659      	mov	r1, fp
 80081ca:	f7f7 ffc5 	bl	8000158 <__aeabi_dsub>
 80081ce:	4642      	mov	r2, r8
 80081d0:	464b      	mov	r3, r9
 80081d2:	f7f8 f979 	bl	80004c8 <__aeabi_dmul>
 80081d6:	4602      	mov	r2, r0
 80081d8:	460b      	mov	r3, r1
 80081da:	4630      	mov	r0, r6
 80081dc:	4639      	mov	r1, r7
 80081de:	f7f7 ffbb 	bl	8000158 <__aeabi_dsub>
 80081e2:	e9dd 2310 	ldrd	r2, r3, [sp, #64]	; 0x40
 80081e6:	f7f8 f96f 	bl	80004c8 <__aeabi_dmul>
 80081ea:	e9dd 2306 	ldrd	r2, r3, [sp, #24]
 80081ee:	e9cd 0108 	strd	r0, r1, [sp, #32]
 80081f2:	4610      	mov	r0, r2
 80081f4:	4619      	mov	r1, r3
 80081f6:	f7f8 f967 	bl	80004c8 <__aeabi_dmul>
 80081fa:	a37b      	add	r3, pc, #492	; (adr r3, 80083e8 <__ieee754_pow+0x6e0>)
 80081fc:	e9d3 2300 	ldrd	r2, r3, [r3]
 8008200:	4604      	mov	r4, r0
 8008202:	460d      	mov	r5, r1
 8008204:	f7f8 f960 	bl	80004c8 <__aeabi_dmul>
 8008208:	a379      	add	r3, pc, #484	; (adr r3, 80083f0 <__ieee754_pow+0x6e8>)
 800820a:	e9d3 2300 	ldrd	r2, r3, [r3]
 800820e:	f7f7 ffa5 	bl	800015c <__adddf3>
 8008212:	4622      	mov	r2, r4
 8008214:	462b      	mov	r3, r5
 8008216:	f7f8 f957 	bl	80004c8 <__aeabi_dmul>
 800821a:	a377      	add	r3, pc, #476	; (adr r3, 80083f8 <__ieee754_pow+0x6f0>)
 800821c:	e9d3 2300 	ldrd	r2, r3, [r3]
 8008220:	f7f7 ff9c 	bl	800015c <__adddf3>
 8008224:	4622      	mov	r2, r4
 8008226:	462b      	mov	r3, r5
 8008228:	f7f8 f94e 	bl	80004c8 <__aeabi_dmul>
 800822c:	a374      	add	r3, pc, #464	; (adr r3, 8008400 <__ieee754_pow+0x6f8>)
 800822e:	e9d3 2300 	ldrd	r2, r3, [r3]
 8008232:	f7f7 ff93 	bl	800015c <__adddf3>
 8008236:	4622      	mov	r2, r4
 8008238:	462b      	mov	r3, r5
 800823a:	f7f8 f945 	bl	80004c8 <__aeabi_dmul>
 800823e:	a372      	add	r3, pc, #456	; (adr r3, 8008408 <__ieee754_pow+0x700>)
 8008240:	e9d3 2300 	ldrd	r2, r3, [r3]
 8008244:	f7f7 ff8a 	bl	800015c <__adddf3>
 8008248:	4622      	mov	r2, r4
 800824a:	462b      	mov	r3, r5
 800824c:	f7f8 f93c 	bl	80004c8 <__aeabi_dmul>
 8008250:	a36f      	add	r3, pc, #444	; (adr r3, 8008410 <__ieee754_pow+0x708>)
 8008252:	e9d3 2300 	ldrd	r2, r3, [r3]
 8008256:	f7f7 ff81 	bl	800015c <__adddf3>
 800825a:	4622      	mov	r2, r4
 800825c:	4606      	mov	r6, r0
 800825e:	460f      	mov	r7, r1
 8008260:	462b      	mov	r3, r5
 8008262:	4620      	mov	r0, r4
 8008264:	4629      	mov	r1, r5
 8008266:	f7f8 f92f 	bl	80004c8 <__aeabi_dmul>
 800826a:	4602      	mov	r2, r0
 800826c:	460b      	mov	r3, r1
 800826e:	4630      	mov	r0, r6
 8008270:	4639      	mov	r1, r7
 8008272:	f7f8 f929 	bl	80004c8 <__aeabi_dmul>
 8008276:	4604      	mov	r4, r0
 8008278:	460d      	mov	r5, r1
 800827a:	e9dd 0106 	ldrd	r0, r1, [sp, #24]
 800827e:	4642      	mov	r2, r8
 8008280:	464b      	mov	r3, r9
 8008282:	f7f7 ff6b 	bl	800015c <__adddf3>
 8008286:	e9dd 2308 	ldrd	r2, r3, [sp, #32]
 800828a:	f7f8 f91d 	bl	80004c8 <__aeabi_dmul>
 800828e:	4622      	mov	r2, r4
 8008290:	462b      	mov	r3, r5
 8008292:	f7f7 ff63 	bl	800015c <__adddf3>
 8008296:	4642      	mov	r2, r8
 8008298:	4606      	mov	r6, r0
 800829a:	460f      	mov	r7, r1
 800829c:	464b      	mov	r3, r9
 800829e:	4640      	mov	r0, r8
 80082a0:	4649      	mov	r1, r9
 80082a2:	f7f8 f911 	bl	80004c8 <__aeabi_dmul>
 80082a6:	2200      	movs	r2, #0
 80082a8:	4b67      	ldr	r3, [pc, #412]	; (8008448 <__ieee754_pow+0x740>)
 80082aa:	4682      	mov	sl, r0
 80082ac:	468b      	mov	fp, r1
 80082ae:	f7f7 ff55 	bl	800015c <__adddf3>
 80082b2:	4632      	mov	r2, r6
 80082b4:	463b      	mov	r3, r7
 80082b6:	f7f7 ff51 	bl	800015c <__adddf3>
 80082ba:	9c04      	ldr	r4, [sp, #16]
 80082bc:	460d      	mov	r5, r1
 80082be:	4622      	mov	r2, r4
 80082c0:	460b      	mov	r3, r1
 80082c2:	4640      	mov	r0, r8
 80082c4:	4649      	mov	r1, r9
 80082c6:	f7f8 f8ff 	bl	80004c8 <__aeabi_dmul>
 80082ca:	2200      	movs	r2, #0
 80082cc:	4680      	mov	r8, r0
 80082ce:	4689      	mov	r9, r1
 80082d0:	4620      	mov	r0, r4
 80082d2:	4629      	mov	r1, r5
 80082d4:	4b5c      	ldr	r3, [pc, #368]	; (8008448 <__ieee754_pow+0x740>)
 80082d6:	f7f7 ff3f 	bl	8000158 <__aeabi_dsub>
 80082da:	4652      	mov	r2, sl
 80082dc:	465b      	mov	r3, fp
 80082de:	f7f7 ff3b 	bl	8000158 <__aeabi_dsub>
 80082e2:	4602      	mov	r2, r0
 80082e4:	460b      	mov	r3, r1
 80082e6:	4630      	mov	r0, r6
 80082e8:	4639      	mov	r1, r7
 80082ea:	f7f7 ff35 	bl	8000158 <__aeabi_dsub>
 80082ee:	e9dd 2306 	ldrd	r2, r3, [sp, #24]
 80082f2:	f7f8 f8e9 	bl	80004c8 <__aeabi_dmul>
 80082f6:	4622      	mov	r2, r4
 80082f8:	4606      	mov	r6, r0
 80082fa:	460f      	mov	r7, r1
 80082fc:	e9dd 0108 	ldrd	r0, r1, [sp, #32]
 8008300:	462b      	mov	r3, r5
 8008302:	f7f8 f8e1 	bl	80004c8 <__aeabi_dmul>
 8008306:	4602      	mov	r2, r0
 8008308:	460b      	mov	r3, r1
 800830a:	4630      	mov	r0, r6
 800830c:	4639      	mov	r1, r7
 800830e:	f7f7 ff25 	bl	800015c <__adddf3>
 8008312:	4606      	mov	r6, r0
 8008314:	460f      	mov	r7, r1
 8008316:	4602      	mov	r2, r0
 8008318:	460b      	mov	r3, r1
 800831a:	4640      	mov	r0, r8
 800831c:	4649      	mov	r1, r9
 800831e:	f7f7 ff1d 	bl	800015c <__adddf3>
 8008322:	a33d      	add	r3, pc, #244	; (adr r3, 8008418 <__ieee754_pow+0x710>)
 8008324:	e9d3 2300 	ldrd	r2, r3, [r3]
 8008328:	9c04      	ldr	r4, [sp, #16]
 800832a:	460d      	mov	r5, r1
 800832c:	4620      	mov	r0, r4
 800832e:	f7f8 f8cb 	bl	80004c8 <__aeabi_dmul>
 8008332:	4642      	mov	r2, r8
 8008334:	464b      	mov	r3, r9
 8008336:	e9cd 0106 	strd	r0, r1, [sp, #24]
 800833a:	4620      	mov	r0, r4
 800833c:	4629      	mov	r1, r5
 800833e:	f7f7 ff0b 	bl	8000158 <__aeabi_dsub>
 8008342:	4602      	mov	r2, r0
 8008344:	460b      	mov	r3, r1
 8008346:	4630      	mov	r0, r6
 8008348:	4639      	mov	r1, r7
 800834a:	f7f7 ff05 	bl	8000158 <__aeabi_dsub>
 800834e:	a334      	add	r3, pc, #208	; (adr r3, 8008420 <__ieee754_pow+0x718>)
 8008350:	e9d3 2300 	ldrd	r2, r3, [r3]
 8008354:	f7f8 f8b8 	bl	80004c8 <__aeabi_dmul>
 8008358:	a333      	add	r3, pc, #204	; (adr r3, 8008428 <__ieee754_pow+0x720>)
 800835a:	e9d3 2300 	ldrd	r2, r3, [r3]
 800835e:	4606      	mov	r6, r0
 8008360:	460f      	mov	r7, r1
 8008362:	4620      	mov	r0, r4
 8008364:	4629      	mov	r1, r5
 8008366:	f7f8 f8af 	bl	80004c8 <__aeabi_dmul>
 800836a:	4602      	mov	r2, r0
 800836c:	460b      	mov	r3, r1
 800836e:	4630      	mov	r0, r6
 8008370:	4639      	mov	r1, r7
 8008372:	f7f7 fef3 	bl	800015c <__adddf3>
 8008376:	9a0d      	ldr	r2, [sp, #52]	; 0x34
 8008378:	4b34      	ldr	r3, [pc, #208]	; (800844c <__ieee754_pow+0x744>)
 800837a:	4413      	add	r3, r2
 800837c:	e9d3 2300 	ldrd	r2, r3, [r3]
 8008380:	f7f7 feec 	bl	800015c <__adddf3>
 8008384:	4680      	mov	r8, r0
 8008386:	980b      	ldr	r0, [sp, #44]	; 0x2c
 8008388:	4689      	mov	r9, r1
 800838a:	f7f8 f833 	bl	80003f4 <__aeabi_i2d>
 800838e:	4604      	mov	r4, r0
 8008390:	460d      	mov	r5, r1
 8008392:	9a0d      	ldr	r2, [sp, #52]	; 0x34
 8008394:	4b2e      	ldr	r3, [pc, #184]	; (8008450 <__ieee754_pow+0x748>)
 8008396:	e9dd 0106 	ldrd	r0, r1, [sp, #24]
 800839a:	4413      	add	r3, r2
 800839c:	e9d3 6700 	ldrd	r6, r7, [r3]
 80083a0:	4642      	mov	r2, r8
 80083a2:	464b      	mov	r3, r9
 80083a4:	f7f7 feda 	bl	800015c <__adddf3>
 80083a8:	4632      	mov	r2, r6
 80083aa:	463b      	mov	r3, r7
 80083ac:	f7f7 fed6 	bl	800015c <__adddf3>
 80083b0:	4622      	mov	r2, r4
 80083b2:	462b      	mov	r3, r5
 80083b4:	f7f7 fed2 	bl	800015c <__adddf3>
 80083b8:	f8dd a010 	ldr.w	sl, [sp, #16]
 80083bc:	4622      	mov	r2, r4
 80083be:	462b      	mov	r3, r5
 80083c0:	4650      	mov	r0, sl
 80083c2:	468b      	mov	fp, r1
 80083c4:	f7f7 fec8 	bl	8000158 <__aeabi_dsub>
 80083c8:	4632      	mov	r2, r6
 80083ca:	463b      	mov	r3, r7
 80083cc:	f7f7 fec4 	bl	8000158 <__aeabi_dsub>
 80083d0:	e9dd 2306 	ldrd	r2, r3, [sp, #24]
 80083d4:	f7f7 fec0 	bl	8000158 <__aeabi_dsub>
 80083d8:	4602      	mov	r2, r0
 80083da:	460b      	mov	r3, r1
 80083dc:	4640      	mov	r0, r8
 80083de:	4649      	mov	r1, r9
 80083e0:	e608      	b.n	8007ff4 <__ieee754_pow+0x2ec>
 80083e2:	bf00      	nop
 80083e4:	f3af 8000 	nop.w
 80083e8:	4a454eef 	.word	0x4a454eef
 80083ec:	3fca7e28 	.word	0x3fca7e28
 80083f0:	93c9db65 	.word	0x93c9db65
 80083f4:	3fcd864a 	.word	0x3fcd864a
 80083f8:	a91d4101 	.word	0xa91d4101
 80083fc:	3fd17460 	.word	0x3fd17460
 8008400:	518f264d 	.word	0x518f264d
 8008404:	3fd55555 	.word	0x3fd55555
 8008408:	db6fabff 	.word	0xdb6fabff
 800840c:	3fdb6db6 	.word	0x3fdb6db6
 8008410:	33333303 	.word	0x33333303
 8008414:	3fe33333 	.word	0x3fe33333
 8008418:	e0000000 	.word	0xe0000000
 800841c:	3feec709 	.word	0x3feec709
 8008420:	dc3a03fd 	.word	0xdc3a03fd
 8008424:	3feec709 	.word	0x3feec709
 8008428:	145b01f5 	.word	0x145b01f5
 800842c:	be3e2fe0 	.word	0xbe3e2fe0
 8008430:	7ff00000 	.word	0x7ff00000
 8008434:	43400000 	.word	0x43400000
 8008438:	0003988e 	.word	0x0003988e
 800843c:	000bb679 	.word	0x000bb679
 8008440:	08008b48 	.word	0x08008b48
 8008444:	3ff00000 	.word	0x3ff00000
 8008448:	40080000 	.word	0x40080000
 800844c:	08008b68 	.word	0x08008b68
 8008450:	08008b58 	.word	0x08008b58
 8008454:	2601      	movs	r6, #1
 8008456:	e667      	b.n	8008128 <__ieee754_pow+0x420>
 8008458:	a39d      	add	r3, pc, #628	; (adr r3, 80086d0 <__ieee754_pow+0x9c8>)
 800845a:	e9d3 2300 	ldrd	r2, r3, [r3]
 800845e:	4640      	mov	r0, r8
 8008460:	4649      	mov	r1, r9
 8008462:	f7f7 fe7b 	bl	800015c <__adddf3>
 8008466:	4622      	mov	r2, r4
 8008468:	e9cd 0104 	strd	r0, r1, [sp, #16]
 800846c:	462b      	mov	r3, r5
 800846e:	4650      	mov	r0, sl
 8008470:	4639      	mov	r1, r7
 8008472:	f7f7 fe71 	bl	8000158 <__aeabi_dsub>
 8008476:	4602      	mov	r2, r0
 8008478:	460b      	mov	r3, r1
 800847a:	e9dd 0104 	ldrd	r0, r1, [sp, #16]
 800847e:	f7f8 fab3 	bl	80009e8 <__aeabi_dcmpgt>
 8008482:	2800      	cmp	r0, #0
 8008484:	f47f ae01 	bne.w	800808a <__ieee754_pow+0x382>
 8008488:	4aa5      	ldr	r2, [pc, #660]	; (8008720 <__ieee754_pow+0xa18>)
 800848a:	f026 4300 	bic.w	r3, r6, #2147483648	; 0x80000000
 800848e:	4293      	cmp	r3, r2
 8008490:	f340 8103 	ble.w	800869a <__ieee754_pow+0x992>
 8008494:	f44f 1a80 	mov.w	sl, #1048576	; 0x100000
 8008498:	2000      	movs	r0, #0
 800849a:	151b      	asrs	r3, r3, #20
 800849c:	f2a3 33fe 	subw	r3, r3, #1022	; 0x3fe
 80084a0:	fa4a f303 	asr.w	r3, sl, r3
 80084a4:	4433      	add	r3, r6
 80084a6:	f3c3 520a 	ubfx	r2, r3, #20, #11
 80084aa:	4f9e      	ldr	r7, [pc, #632]	; (8008724 <__ieee754_pow+0xa1c>)
 80084ac:	f2a2 32ff 	subw	r2, r2, #1023	; 0x3ff
 80084b0:	4117      	asrs	r7, r2
 80084b2:	f3c3 0a13 	ubfx	sl, r3, #0, #20
 80084b6:	ea23 0107 	bic.w	r1, r3, r7
 80084ba:	f1c2 0214 	rsb	r2, r2, #20
 80084be:	f44a 1a80 	orr.w	sl, sl, #1048576	; 0x100000
 80084c2:	460b      	mov	r3, r1
 80084c4:	fa4a fa02 	asr.w	sl, sl, r2
 80084c8:	2e00      	cmp	r6, #0
 80084ca:	4602      	mov	r2, r0
 80084cc:	4629      	mov	r1, r5
 80084ce:	4620      	mov	r0, r4
 80084d0:	bfb8      	it	lt
 80084d2:	f1ca 0a00 	rsblt	sl, sl, #0
 80084d6:	f7f7 fe3f 	bl	8000158 <__aeabi_dsub>
 80084da:	e9cd 0102 	strd	r0, r1, [sp, #8]
 80084de:	e9dd 0102 	ldrd	r0, r1, [sp, #8]
 80084e2:	2400      	movs	r4, #0
 80084e4:	4642      	mov	r2, r8
 80084e6:	464b      	mov	r3, r9
 80084e8:	f7f7 fe38 	bl	800015c <__adddf3>
 80084ec:	a37a      	add	r3, pc, #488	; (adr r3, 80086d8 <__ieee754_pow+0x9d0>)
 80084ee:	e9d3 2300 	ldrd	r2, r3, [r3]
 80084f2:	4620      	mov	r0, r4
 80084f4:	460d      	mov	r5, r1
 80084f6:	f7f7 ffe7 	bl	80004c8 <__aeabi_dmul>
 80084fa:	e9dd 2302 	ldrd	r2, r3, [sp, #8]
 80084fe:	4606      	mov	r6, r0
 8008500:	460f      	mov	r7, r1
 8008502:	4620      	mov	r0, r4
 8008504:	4629      	mov	r1, r5
 8008506:	f7f7 fe27 	bl	8000158 <__aeabi_dsub>
 800850a:	4602      	mov	r2, r0
 800850c:	460b      	mov	r3, r1
 800850e:	4640      	mov	r0, r8
 8008510:	4649      	mov	r1, r9
 8008512:	f7f7 fe21 	bl	8000158 <__aeabi_dsub>
 8008516:	a372      	add	r3, pc, #456	; (adr r3, 80086e0 <__ieee754_pow+0x9d8>)
 8008518:	e9d3 2300 	ldrd	r2, r3, [r3]
 800851c:	f7f7 ffd4 	bl	80004c8 <__aeabi_dmul>
 8008520:	a371      	add	r3, pc, #452	; (adr r3, 80086e8 <__ieee754_pow+0x9e0>)
 8008522:	e9d3 2300 	ldrd	r2, r3, [r3]
 8008526:	4680      	mov	r8, r0
 8008528:	4689      	mov	r9, r1
 800852a:	4620      	mov	r0, r4
 800852c:	4629      	mov	r1, r5
 800852e:	f7f7 ffcb 	bl	80004c8 <__aeabi_dmul>
 8008532:	4602      	mov	r2, r0
 8008534:	460b      	mov	r3, r1
 8008536:	4640      	mov	r0, r8
 8008538:	4649      	mov	r1, r9
 800853a:	f7f7 fe0f 	bl	800015c <__adddf3>
 800853e:	4604      	mov	r4, r0
 8008540:	460d      	mov	r5, r1
 8008542:	4602      	mov	r2, r0
 8008544:	460b      	mov	r3, r1
 8008546:	4630      	mov	r0, r6
 8008548:	4639      	mov	r1, r7
 800854a:	f7f7 fe07 	bl	800015c <__adddf3>
 800854e:	4632      	mov	r2, r6
 8008550:	463b      	mov	r3, r7
 8008552:	4680      	mov	r8, r0
 8008554:	4689      	mov	r9, r1
 8008556:	f7f7 fdff 	bl	8000158 <__aeabi_dsub>
 800855a:	4602      	mov	r2, r0
 800855c:	460b      	mov	r3, r1
 800855e:	4620      	mov	r0, r4
 8008560:	4629      	mov	r1, r5
 8008562:	f7f7 fdf9 	bl	8000158 <__aeabi_dsub>
 8008566:	4642      	mov	r2, r8
 8008568:	4606      	mov	r6, r0
 800856a:	460f      	mov	r7, r1
 800856c:	464b      	mov	r3, r9
 800856e:	4640      	mov	r0, r8
 8008570:	4649      	mov	r1, r9
 8008572:	f7f7 ffa9 	bl	80004c8 <__aeabi_dmul>
 8008576:	a35e      	add	r3, pc, #376	; (adr r3, 80086f0 <__ieee754_pow+0x9e8>)
 8008578:	e9d3 2300 	ldrd	r2, r3, [r3]
 800857c:	4604      	mov	r4, r0
 800857e:	460d      	mov	r5, r1
 8008580:	f7f7 ffa2 	bl	80004c8 <__aeabi_dmul>
 8008584:	a35c      	add	r3, pc, #368	; (adr r3, 80086f8 <__ieee754_pow+0x9f0>)
 8008586:	e9d3 2300 	ldrd	r2, r3, [r3]
 800858a:	f7f7 fde5 	bl	8000158 <__aeabi_dsub>
 800858e:	4622      	mov	r2, r4
 8008590:	462b      	mov	r3, r5
 8008592:	f7f7 ff99 	bl	80004c8 <__aeabi_dmul>
 8008596:	a35a      	add	r3, pc, #360	; (adr r3, 8008700 <__ieee754_pow+0x9f8>)
 8008598:	e9d3 2300 	ldrd	r2, r3, [r3]
 800859c:	f7f7 fdde 	bl	800015c <__adddf3>
 80085a0:	4622      	mov	r2, r4
 80085a2:	462b      	mov	r3, r5
 80085a4:	f7f7 ff90 	bl	80004c8 <__aeabi_dmul>
 80085a8:	a357      	add	r3, pc, #348	; (adr r3, 8008708 <__ieee754_pow+0xa00>)
 80085aa:	e9d3 2300 	ldrd	r2, r3, [r3]
 80085ae:	f7f7 fdd3 	bl	8000158 <__aeabi_dsub>
 80085b2:	4622      	mov	r2, r4
 80085b4:	462b      	mov	r3, r5
 80085b6:	f7f7 ff87 	bl	80004c8 <__aeabi_dmul>
 80085ba:	a355      	add	r3, pc, #340	; (adr r3, 8008710 <__ieee754_pow+0xa08>)
 80085bc:	e9d3 2300 	ldrd	r2, r3, [r3]
 80085c0:	f7f7 fdcc 	bl	800015c <__adddf3>
 80085c4:	4622      	mov	r2, r4
 80085c6:	462b      	mov	r3, r5
 80085c8:	f7f7 ff7e 	bl	80004c8 <__aeabi_dmul>
 80085cc:	4602      	mov	r2, r0
 80085ce:	460b      	mov	r3, r1
 80085d0:	4640      	mov	r0, r8
 80085d2:	4649      	mov	r1, r9
 80085d4:	f7f7 fdc0 	bl	8000158 <__aeabi_dsub>
 80085d8:	4604      	mov	r4, r0
 80085da:	460d      	mov	r5, r1
 80085dc:	4602      	mov	r2, r0
 80085de:	460b      	mov	r3, r1
 80085e0:	4640      	mov	r0, r8
 80085e2:	4649      	mov	r1, r9
 80085e4:	f7f7 ff70 	bl	80004c8 <__aeabi_dmul>
 80085e8:	2200      	movs	r2, #0
 80085ea:	e9cd 0102 	strd	r0, r1, [sp, #8]
 80085ee:	f04f 4380 	mov.w	r3, #1073741824	; 0x40000000
 80085f2:	4620      	mov	r0, r4
 80085f4:	4629      	mov	r1, r5
 80085f6:	f7f7 fdaf 	bl	8000158 <__aeabi_dsub>
 80085fa:	4602      	mov	r2, r0
 80085fc:	460b      	mov	r3, r1
 80085fe:	e9dd 0102 	ldrd	r0, r1, [sp, #8]
 8008602:	f7f8 f88b 	bl	800071c <__aeabi_ddiv>
 8008606:	4632      	mov	r2, r6
 8008608:	4604      	mov	r4, r0
 800860a:	460d      	mov	r5, r1
 800860c:	463b      	mov	r3, r7
 800860e:	4640      	mov	r0, r8
 8008610:	4649      	mov	r1, r9
 8008612:	f7f7 ff59 	bl	80004c8 <__aeabi_dmul>
 8008616:	4632      	mov	r2, r6
 8008618:	463b      	mov	r3, r7
 800861a:	f7f7 fd9f 	bl	800015c <__adddf3>
 800861e:	4602      	mov	r2, r0
 8008620:	460b      	mov	r3, r1
 8008622:	4620      	mov	r0, r4
 8008624:	4629      	mov	r1, r5
 8008626:	f7f7 fd97 	bl	8000158 <__aeabi_dsub>
 800862a:	4642      	mov	r2, r8
 800862c:	464b      	mov	r3, r9
 800862e:	f7f7 fd93 	bl	8000158 <__aeabi_dsub>
 8008632:	4602      	mov	r2, r0
 8008634:	460b      	mov	r3, r1
 8008636:	2000      	movs	r0, #0
 8008638:	493b      	ldr	r1, [pc, #236]	; (8008728 <__ieee754_pow+0xa20>)
 800863a:	f7f7 fd8d 	bl	8000158 <__aeabi_dsub>
 800863e:	eb01 540a 	add.w	r4, r1, sl, lsl #20
 8008642:	f5b4 1f80 	cmp.w	r4, #1048576	; 0x100000
 8008646:	da2b      	bge.n	80086a0 <__ieee754_pow+0x998>
 8008648:	4652      	mov	r2, sl
 800864a:	f000 f9b9 	bl	80089c0 <scalbn>
 800864e:	e9dd 2300 	ldrd	r2, r3, [sp]
 8008652:	f7ff bbf2 	b.w	8007e3a <__ieee754_pow+0x132>
 8008656:	4b35      	ldr	r3, [pc, #212]	; (800872c <__ieee754_pow+0xa24>)
 8008658:	f021 4700 	bic.w	r7, r1, #2147483648	; 0x80000000
 800865c:	429f      	cmp	r7, r3
 800865e:	f77f af13 	ble.w	8008488 <__ieee754_pow+0x780>
 8008662:	4b33      	ldr	r3, [pc, #204]	; (8008730 <__ieee754_pow+0xa28>)
 8008664:	440b      	add	r3, r1
 8008666:	4303      	orrs	r3, r0
 8008668:	d00b      	beq.n	8008682 <__ieee754_pow+0x97a>
 800866a:	a32b      	add	r3, pc, #172	; (adr r3, 8008718 <__ieee754_pow+0xa10>)
 800866c:	e9d3 2300 	ldrd	r2, r3, [r3]
 8008670:	e9dd 0100 	ldrd	r0, r1, [sp]
 8008674:	f7f7 ff28 	bl	80004c8 <__aeabi_dmul>
 8008678:	a327      	add	r3, pc, #156	; (adr r3, 8008718 <__ieee754_pow+0xa10>)
 800867a:	e9d3 2300 	ldrd	r2, r3, [r3]
 800867e:	f7ff bbdc 	b.w	8007e3a <__ieee754_pow+0x132>
 8008682:	4622      	mov	r2, r4
 8008684:	462b      	mov	r3, r5
 8008686:	f7f7 fd67 	bl	8000158 <__aeabi_dsub>
 800868a:	4642      	mov	r2, r8
 800868c:	464b      	mov	r3, r9
 800868e:	f7f8 f9a1 	bl	80009d4 <__aeabi_dcmpge>
 8008692:	2800      	cmp	r0, #0
 8008694:	f43f aef8 	beq.w	8008488 <__ieee754_pow+0x780>
 8008698:	e7e7      	b.n	800866a <__ieee754_pow+0x962>
 800869a:	f04f 0a00 	mov.w	sl, #0
 800869e:	e71e      	b.n	80084de <__ieee754_pow+0x7d6>
 80086a0:	4621      	mov	r1, r4
 80086a2:	e7d4      	b.n	800864e <__ieee754_pow+0x946>
 80086a4:	f04f 0b00 	mov.w	fp, #0
 80086a8:	f8df c07c 	ldr.w	ip, [pc, #124]	; 8008728 <__ieee754_pow+0xa20>
 80086ac:	f7ff bbb0 	b.w	8007e10 <__ieee754_pow+0x108>
 80086b0:	e9dd bc02 	ldrd	fp, ip, [sp, #8]
 80086b4:	f7ff bbac 	b.w	8007e10 <__ieee754_pow+0x108>
 80086b8:	4638      	mov	r0, r7
 80086ba:	4641      	mov	r1, r8
 80086bc:	f7ff bbbf 	b.w	8007e3e <__ieee754_pow+0x136>
 80086c0:	9200      	str	r2, [sp, #0]
 80086c2:	f7ff bb7f 	b.w	8007dc4 <__ieee754_pow+0xbc>
 80086c6:	2300      	movs	r3, #0
 80086c8:	f7ff bb69 	b.w	8007d9e <__ieee754_pow+0x96>
 80086cc:	f3af 8000 	nop.w
 80086d0:	652b82fe 	.word	0x652b82fe
 80086d4:	3c971547 	.word	0x3c971547
 80086d8:	00000000 	.word	0x00000000
 80086dc:	3fe62e43 	.word	0x3fe62e43
 80086e0:	fefa39ef 	.word	0xfefa39ef
 80086e4:	3fe62e42 	.word	0x3fe62e42
 80086e8:	0ca86c39 	.word	0x0ca86c39
 80086ec:	be205c61 	.word	0xbe205c61
 80086f0:	72bea4d0 	.word	0x72bea4d0
 80086f4:	3e663769 	.word	0x3e663769
 80086f8:	c5d26bf1 	.word	0xc5d26bf1
 80086fc:	3ebbbd41 	.word	0x3ebbbd41
 8008700:	af25de2c 	.word	0xaf25de2c
 8008704:	3f11566a 	.word	0x3f11566a
 8008708:	16bebd93 	.word	0x16bebd93
 800870c:	3f66c16c 	.word	0x3f66c16c
 8008710:	5555553e 	.word	0x5555553e
 8008714:	3fc55555 	.word	0x3fc55555
 8008718:	c2f8f359 	.word	0xc2f8f359
 800871c:	01a56e1f 	.word	0x01a56e1f
 8008720:	3fe00000 	.word	0x3fe00000
 8008724:	000fffff 	.word	0x000fffff
 8008728:	3ff00000 	.word	0x3ff00000
 800872c:	4090cbff 	.word	0x4090cbff
 8008730:	3f6f3400 	.word	0x3f6f3400

08008734 <__ieee754_sqrt>:
 8008734:	f8df c150 	ldr.w	ip, [pc, #336]	; 8008888 <__ieee754_sqrt+0x154>
 8008738:	e92d 41f0 	stmdb	sp!, {r4, r5, r6, r7, r8, lr}
 800873c:	ea3c 0c01 	bics.w	ip, ip, r1
 8008740:	460b      	mov	r3, r1
 8008742:	4606      	mov	r6, r0
 8008744:	460d      	mov	r5, r1
 8008746:	460a      	mov	r2, r1
 8008748:	4607      	mov	r7, r0
 800874a:	4604      	mov	r4, r0
 800874c:	d10e      	bne.n	800876c <__ieee754_sqrt+0x38>
 800874e:	4602      	mov	r2, r0
 8008750:	f7f7 feba 	bl	80004c8 <__aeabi_dmul>
 8008754:	4602      	mov	r2, r0
 8008756:	460b      	mov	r3, r1
 8008758:	4630      	mov	r0, r6
 800875a:	4629      	mov	r1, r5
 800875c:	f7f7 fcfe 	bl	800015c <__adddf3>
 8008760:	4606      	mov	r6, r0
 8008762:	460d      	mov	r5, r1
 8008764:	4630      	mov	r0, r6
 8008766:	4629      	mov	r1, r5
 8008768:	e8bd 81f0 	ldmia.w	sp!, {r4, r5, r6, r7, r8, pc}
 800876c:	2900      	cmp	r1, #0
 800876e:	dc0d      	bgt.n	800878c <__ieee754_sqrt+0x58>
 8008770:	f021 4c00 	bic.w	ip, r1, #2147483648	; 0x80000000
 8008774:	ea5c 0707 	orrs.w	r7, ip, r7
 8008778:	d0f4      	beq.n	8008764 <__ieee754_sqrt+0x30>
 800877a:	b139      	cbz	r1, 800878c <__ieee754_sqrt+0x58>
 800877c:	4602      	mov	r2, r0
 800877e:	f7f7 fceb 	bl	8000158 <__aeabi_dsub>
 8008782:	4602      	mov	r2, r0
 8008784:	460b      	mov	r3, r1
 8008786:	f7f7 ffc9 	bl	800071c <__aeabi_ddiv>
 800878a:	e7e9      	b.n	8008760 <__ieee754_sqrt+0x2c>
 800878c:	1512      	asrs	r2, r2, #20
 800878e:	d074      	beq.n	800887a <__ieee754_sqrt+0x146>
 8008790:	2000      	movs	r0, #0
 8008792:	07d5      	lsls	r5, r2, #31
 8008794:	f3c3 0313 	ubfx	r3, r3, #0, #20
 8008798:	f443 1180 	orr.w	r1, r3, #1048576	; 0x100000
 800879c:	bf5e      	ittt	pl
 800879e:	0fe3      	lsrpl	r3, r4, #31
 80087a0:	0064      	lslpl	r4, r4, #1
 80087a2:	eb03 0141 	addpl.w	r1, r3, r1, lsl #1
 80087a6:	0fe3      	lsrs	r3, r4, #31
 80087a8:	f2a2 36ff 	subw	r6, r2, #1023	; 0x3ff
 80087ac:	eb03 0341 	add.w	r3, r3, r1, lsl #1
 80087b0:	2516      	movs	r5, #22
 80087b2:	4601      	mov	r1, r0
 80087b4:	f44f 1200 	mov.w	r2, #2097152	; 0x200000
 80087b8:	1076      	asrs	r6, r6, #1
 80087ba:	0064      	lsls	r4, r4, #1
 80087bc:	188f      	adds	r7, r1, r2
 80087be:	429f      	cmp	r7, r3
 80087c0:	bfde      	ittt	le
 80087c2:	1bdb      	suble	r3, r3, r7
 80087c4:	18b9      	addle	r1, r7, r2
 80087c6:	1880      	addle	r0, r0, r2
 80087c8:	005b      	lsls	r3, r3, #1
 80087ca:	3d01      	subs	r5, #1
 80087cc:	eb03 73d4 	add.w	r3, r3, r4, lsr #31
 80087d0:	ea4f 0252 	mov.w	r2, r2, lsr #1
 80087d4:	ea4f 0444 	mov.w	r4, r4, lsl #1
 80087d8:	d1f0      	bne.n	80087bc <__ieee754_sqrt+0x88>
 80087da:	462a      	mov	r2, r5
 80087dc:	f04f 0e20 	mov.w	lr, #32
 80087e0:	f04f 4700 	mov.w	r7, #2147483648	; 0x80000000
 80087e4:	428b      	cmp	r3, r1
 80087e6:	eb07 0c05 	add.w	ip, r7, r5
 80087ea:	dc02      	bgt.n	80087f2 <__ieee754_sqrt+0xbe>
 80087ec:	d113      	bne.n	8008816 <__ieee754_sqrt+0xe2>
 80087ee:	45a4      	cmp	ip, r4
 80087f0:	d811      	bhi.n	8008816 <__ieee754_sqrt+0xe2>
 80087f2:	f1bc 0f00 	cmp.w	ip, #0
 80087f6:	eb0c 0507 	add.w	r5, ip, r7
 80087fa:	da43      	bge.n	8008884 <__ieee754_sqrt+0x150>
 80087fc:	2d00      	cmp	r5, #0
 80087fe:	db41      	blt.n	8008884 <__ieee754_sqrt+0x150>
 8008800:	f101 0801 	add.w	r8, r1, #1
 8008804:	1a5b      	subs	r3, r3, r1
 8008806:	4641      	mov	r1, r8
 8008808:	45a4      	cmp	ip, r4
 800880a:	bf88      	it	hi
 800880c:	f103 33ff 	addhi.w	r3, r3, #4294967295	; 0xffffffff
 8008810:	eba4 040c 	sub.w	r4, r4, ip
 8008814:	443a      	add	r2, r7
 8008816:	005b      	lsls	r3, r3, #1
 8008818:	f1be 0e01 	subs.w	lr, lr, #1
 800881c:	eb03 73d4 	add.w	r3, r3, r4, lsr #31
 8008820:	ea4f 0757 	mov.w	r7, r7, lsr #1
 8008824:	ea4f 0444 	mov.w	r4, r4, lsl #1
 8008828:	d1dc      	bne.n	80087e4 <__ieee754_sqrt+0xb0>
 800882a:	4323      	orrs	r3, r4
 800882c:	d006      	beq.n	800883c <__ieee754_sqrt+0x108>
 800882e:	1c54      	adds	r4, r2, #1
 8008830:	bf0b      	itete	eq
 8008832:	4672      	moveq	r2, lr
 8008834:	3201      	addne	r2, #1
 8008836:	3001      	addeq	r0, #1
 8008838:	f022 0201 	bicne.w	r2, r2, #1
 800883c:	1043      	asrs	r3, r0, #1
 800883e:	07c1      	lsls	r1, r0, #31
 8008840:	ea4f 0252 	mov.w	r2, r2, lsr #1
 8008844:	f103 537f 	add.w	r3, r3, #1069547520	; 0x3fc00000
 8008848:	f503 1300 	add.w	r3, r3, #2097152	; 0x200000
 800884c:	bf48      	it	mi
 800884e:	f042 4200 	orrmi.w	r2, r2, #2147483648	; 0x80000000
 8008852:	4610      	mov	r0, r2
 8008854:	eb03 5106 	add.w	r1, r3, r6, lsl #20
 8008858:	e782      	b.n	8008760 <__ieee754_sqrt+0x2c>
 800885a:	0ae3      	lsrs	r3, r4, #11
 800885c:	3915      	subs	r1, #21
 800885e:	0564      	lsls	r4, r4, #21
 8008860:	2b00      	cmp	r3, #0
 8008862:	d0fa      	beq.n	800885a <__ieee754_sqrt+0x126>
 8008864:	02de      	lsls	r6, r3, #11
 8008866:	d50a      	bpl.n	800887e <__ieee754_sqrt+0x14a>
 8008868:	f1c2 0020 	rsb	r0, r2, #32
 800886c:	fa24 f000 	lsr.w	r0, r4, r0
 8008870:	1e55      	subs	r5, r2, #1
 8008872:	4094      	lsls	r4, r2
 8008874:	4303      	orrs	r3, r0
 8008876:	1b4a      	subs	r2, r1, r5
 8008878:	e78a      	b.n	8008790 <__ieee754_sqrt+0x5c>
 800887a:	4611      	mov	r1, r2
 800887c:	e7f0      	b.n	8008860 <__ieee754_sqrt+0x12c>
 800887e:	005b      	lsls	r3, r3, #1
 8008880:	3201      	adds	r2, #1
 8008882:	e7ef      	b.n	8008864 <__ieee754_sqrt+0x130>
 8008884:	4688      	mov	r8, r1
 8008886:	e7bd      	b.n	8008804 <__ieee754_sqrt+0xd0>
 8008888:	7ff00000 	.word	0x7ff00000

0800888c <fabs>:
 800888c:	f021 4100 	bic.w	r1, r1, #2147483648	; 0x80000000
 8008890:	4770      	bx	lr

08008892 <finite>:
 8008892:	f041 4000 	orr.w	r0, r1, #2147483648	; 0x80000000
 8008896:	f500 1080 	add.w	r0, r0, #1048576	; 0x100000
 800889a:	0fc0      	lsrs	r0, r0, #31
 800889c:	4770      	bx	lr
	...

080088a0 <nan>:
 80088a0:	2000      	movs	r0, #0
 80088a2:	4901      	ldr	r1, [pc, #4]	; (80088a8 <nan+0x8>)
 80088a4:	4770      	bx	lr
 80088a6:	bf00      	nop
 80088a8:	7ff80000 	.word	0x7ff80000

080088ac <rint>:
 80088ac:	f3c1 5c0a 	ubfx	ip, r1, #20, #11
 80088b0:	b5f7      	push	{r0, r1, r2, r4, r5, r6, r7, lr}
 80088b2:	f2ac 37ff 	subw	r7, ip, #1023	; 0x3ff
 80088b6:	2f13      	cmp	r7, #19
 80088b8:	4602      	mov	r2, r0
 80088ba:	460b      	mov	r3, r1
 80088bc:	460c      	mov	r4, r1
 80088be:	4605      	mov	r5, r0
 80088c0:	ea4f 76d1 	mov.w	r6, r1, lsr #31
 80088c4:	dc59      	bgt.n	800897a <rint+0xce>
 80088c6:	2f00      	cmp	r7, #0
 80088c8:	da2a      	bge.n	8008920 <rint+0x74>
 80088ca:	f021 4100 	bic.w	r1, r1, #2147483648	; 0x80000000
 80088ce:	4301      	orrs	r1, r0
 80088d0:	d022      	beq.n	8008918 <rint+0x6c>
 80088d2:	f3c3 0113 	ubfx	r1, r3, #0, #20
 80088d6:	4301      	orrs	r1, r0
 80088d8:	424d      	negs	r5, r1
 80088da:	430d      	orrs	r5, r1
 80088dc:	4936      	ldr	r1, [pc, #216]	; (80089b8 <rint+0x10c>)
 80088de:	0c5c      	lsrs	r4, r3, #17
 80088e0:	0b2d      	lsrs	r5, r5, #12
 80088e2:	f405 2500 	and.w	r5, r5, #524288	; 0x80000
 80088e6:	0464      	lsls	r4, r4, #17
 80088e8:	eb01 01c6 	add.w	r1, r1, r6, lsl #3
 80088ec:	ea45 0304 	orr.w	r3, r5, r4
 80088f0:	e9d1 4500 	ldrd	r4, r5, [r1]
 80088f4:	4620      	mov	r0, r4
 80088f6:	4629      	mov	r1, r5
 80088f8:	f7f7 fc30 	bl	800015c <__adddf3>
 80088fc:	e9cd 0100 	strd	r0, r1, [sp]
 8008900:	e9dd 0100 	ldrd	r0, r1, [sp]
 8008904:	462b      	mov	r3, r5
 8008906:	4622      	mov	r2, r4
 8008908:	f7f7 fc26 	bl	8000158 <__aeabi_dsub>
 800890c:	f021 4300 	bic.w	r3, r1, #2147483648	; 0x80000000
 8008910:	ea43 71c6 	orr.w	r1, r3, r6, lsl #31
 8008914:	4602      	mov	r2, r0
 8008916:	460b      	mov	r3, r1
 8008918:	4610      	mov	r0, r2
 800891a:	4619      	mov	r1, r3
 800891c:	b003      	add	sp, #12
 800891e:	bdf0      	pop	{r4, r5, r6, r7, pc}
 8008920:	4926      	ldr	r1, [pc, #152]	; (80089bc <rint+0x110>)
 8008922:	4139      	asrs	r1, r7
 8008924:	ea03 0001 	and.w	r0, r3, r1
 8008928:	4310      	orrs	r0, r2
 800892a:	d0f5      	beq.n	8008918 <rint+0x6c>
 800892c:	084b      	lsrs	r3, r1, #1
 800892e:	ea04 0151 	and.w	r1, r4, r1, lsr #1
 8008932:	ea52 0501 	orrs.w	r5, r2, r1
 8008936:	d00c      	beq.n	8008952 <rint+0xa6>
 8008938:	ea24 0303 	bic.w	r3, r4, r3
 800893c:	f44f 2480 	mov.w	r4, #262144	; 0x40000
 8008940:	2f13      	cmp	r7, #19
 8008942:	bf0c      	ite	eq
 8008944:	f04f 4500 	moveq.w	r5, #2147483648	; 0x80000000
 8008948:	2500      	movne	r5, #0
 800894a:	fa44 f707 	asr.w	r7, r4, r7
 800894e:	ea43 0407 	orr.w	r4, r3, r7
 8008952:	4919      	ldr	r1, [pc, #100]	; (80089b8 <rint+0x10c>)
 8008954:	4623      	mov	r3, r4
 8008956:	eb01 06c6 	add.w	r6, r1, r6, lsl #3
 800895a:	462a      	mov	r2, r5
 800895c:	e9d6 4500 	ldrd	r4, r5, [r6]
 8008960:	4620      	mov	r0, r4
 8008962:	4629      	mov	r1, r5
 8008964:	f7f7 fbfa 	bl	800015c <__adddf3>
 8008968:	e9cd 0100 	strd	r0, r1, [sp]
 800896c:	e9dd 0100 	ldrd	r0, r1, [sp]
 8008970:	4622      	mov	r2, r4
 8008972:	462b      	mov	r3, r5
 8008974:	f7f7 fbf0 	bl	8000158 <__aeabi_dsub>
 8008978:	e7cc      	b.n	8008914 <rint+0x68>
 800897a:	2f33      	cmp	r7, #51	; 0x33
 800897c:	dd05      	ble.n	800898a <rint+0xde>
 800897e:	f5b7 6f80 	cmp.w	r7, #1024	; 0x400
 8008982:	d1c9      	bne.n	8008918 <rint+0x6c>
 8008984:	f7f7 fbea 	bl	800015c <__adddf3>
 8008988:	e7c4      	b.n	8008914 <rint+0x68>
 800898a:	f04f 31ff 	mov.w	r1, #4294967295	; 0xffffffff
 800898e:	f2ac 4c13 	subw	ip, ip, #1043	; 0x413
 8008992:	fa21 f10c 	lsr.w	r1, r1, ip
 8008996:	4208      	tst	r0, r1
 8008998:	d0be      	beq.n	8008918 <rint+0x6c>
 800899a:	ea10 0251 	ands.w	r2, r0, r1, lsr #1
 800899e:	bf18      	it	ne
 80089a0:	f04f 4580 	movne.w	r5, #1073741824	; 0x40000000
 80089a4:	ea4f 0351 	mov.w	r3, r1, lsr #1
 80089a8:	bf1e      	ittt	ne
 80089aa:	ea20 0303 	bicne.w	r3, r0, r3
 80089ae:	fa45 fc0c 	asrne.w	ip, r5, ip
 80089b2:	ea43 050c 	orrne.w	r5, r3, ip
 80089b6:	e7cc      	b.n	8008952 <rint+0xa6>
 80089b8:	08008b78 	.word	0x08008b78
 80089bc:	000fffff 	.word	0x000fffff

080089c0 <scalbn>:
 80089c0:	b5f8      	push	{r3, r4, r5, r6, r7, lr}
 80089c2:	f3c1 560a 	ubfx	r6, r1, #20, #11
 80089c6:	4604      	mov	r4, r0
 80089c8:	460d      	mov	r5, r1
 80089ca:	4617      	mov	r7, r2
 80089cc:	460b      	mov	r3, r1
 80089ce:	b996      	cbnz	r6, 80089f6 <scalbn+0x36>
 80089d0:	f021 4300 	bic.w	r3, r1, #2147483648	; 0x80000000
 80089d4:	4303      	orrs	r3, r0
 80089d6:	d039      	beq.n	8008a4c <scalbn+0x8c>
 80089d8:	4b35      	ldr	r3, [pc, #212]	; (8008ab0 <scalbn+0xf0>)
 80089da:	2200      	movs	r2, #0
 80089dc:	f7f7 fd74 	bl	80004c8 <__aeabi_dmul>
 80089e0:	4b34      	ldr	r3, [pc, #208]	; (8008ab4 <scalbn+0xf4>)
 80089e2:	4604      	mov	r4, r0
 80089e4:	429f      	cmp	r7, r3
 80089e6:	460d      	mov	r5, r1
 80089e8:	da0f      	bge.n	8008a0a <scalbn+0x4a>
 80089ea:	a32d      	add	r3, pc, #180	; (adr r3, 8008aa0 <scalbn+0xe0>)
 80089ec:	e9d3 2300 	ldrd	r2, r3, [r3]
 80089f0:	f7f7 fd6a 	bl	80004c8 <__aeabi_dmul>
 80089f4:	e006      	b.n	8008a04 <scalbn+0x44>
 80089f6:	f240 72ff 	movw	r2, #2047	; 0x7ff
 80089fa:	4296      	cmp	r6, r2
 80089fc:	d10a      	bne.n	8008a14 <scalbn+0x54>
 80089fe:	4602      	mov	r2, r0
 8008a00:	f7f7 fbac 	bl	800015c <__adddf3>
 8008a04:	4604      	mov	r4, r0
 8008a06:	460d      	mov	r5, r1
 8008a08:	e020      	b.n	8008a4c <scalbn+0x8c>
 8008a0a:	460b      	mov	r3, r1
 8008a0c:	f3c1 510a 	ubfx	r1, r1, #20, #11
 8008a10:	f1a1 0636 	sub.w	r6, r1, #54	; 0x36
 8008a14:	f240 72fe 	movw	r2, #2046	; 0x7fe
 8008a18:	19b9      	adds	r1, r7, r6
 8008a1a:	4291      	cmp	r1, r2
 8008a1c:	dd0e      	ble.n	8008a3c <scalbn+0x7c>
 8008a1e:	a322      	add	r3, pc, #136	; (adr r3, 8008aa8 <scalbn+0xe8>)
 8008a20:	e9d3 2300 	ldrd	r2, r3, [r3]
 8008a24:	f005 4400 	and.w	r4, r5, #2147483648	; 0x80000000
 8008a28:	f044 41fc 	orr.w	r1, r4, #2113929216	; 0x7e000000
 8008a2c:	f441 115f 	orr.w	r1, r1, #3653632	; 0x37c000
 8008a30:	f441 5110 	orr.w	r1, r1, #9216	; 0x2400
 8008a34:	4820      	ldr	r0, [pc, #128]	; (8008ab8 <scalbn+0xf8>)
 8008a36:	f041 013c 	orr.w	r1, r1, #60	; 0x3c
 8008a3a:	e7d9      	b.n	80089f0 <scalbn+0x30>
 8008a3c:	2900      	cmp	r1, #0
 8008a3e:	dd08      	ble.n	8008a52 <scalbn+0x92>
 8008a40:	f023 43ff 	bic.w	r3, r3, #2139095040	; 0x7f800000
 8008a44:	f423 03e0 	bic.w	r3, r3, #7340032	; 0x700000
 8008a48:	ea43 5501 	orr.w	r5, r3, r1, lsl #20
 8008a4c:	4620      	mov	r0, r4
 8008a4e:	4629      	mov	r1, r5
 8008a50:	bdf8      	pop	{r3, r4, r5, r6, r7, pc}
 8008a52:	f111 0f35 	cmn.w	r1, #53	; 0x35
 8008a56:	da16      	bge.n	8008a86 <scalbn+0xc6>
 8008a58:	f24c 3350 	movw	r3, #50000	; 0xc350
 8008a5c:	429f      	cmp	r7, r3
 8008a5e:	ea4f 73d5 	mov.w	r3, r5, lsr #31
 8008a62:	dd08      	ble.n	8008a76 <scalbn+0xb6>
 8008a64:	4c15      	ldr	r4, [pc, #84]	; (8008abc <scalbn+0xfc>)
 8008a66:	4814      	ldr	r0, [pc, #80]	; (8008ab8 <scalbn+0xf8>)
 8008a68:	f363 74df 	bfi	r4, r3, #31, #1
 8008a6c:	a30e      	add	r3, pc, #56	; (adr r3, 8008aa8 <scalbn+0xe8>)
 8008a6e:	e9d3 2300 	ldrd	r2, r3, [r3]
 8008a72:	4621      	mov	r1, r4
 8008a74:	e7bc      	b.n	80089f0 <scalbn+0x30>
 8008a76:	4c12      	ldr	r4, [pc, #72]	; (8008ac0 <scalbn+0x100>)
 8008a78:	4812      	ldr	r0, [pc, #72]	; (8008ac4 <scalbn+0x104>)
 8008a7a:	f363 74df 	bfi	r4, r3, #31, #1
 8008a7e:	a308      	add	r3, pc, #32	; (adr r3, 8008aa0 <scalbn+0xe0>)
 8008a80:	e9d3 2300 	ldrd	r2, r3, [r3]
 8008a84:	e7f5      	b.n	8008a72 <scalbn+0xb2>
 8008a86:	f023 43ff 	bic.w	r3, r3, #2139095040	; 0x7f800000
 8008a8a:	3136      	adds	r1, #54	; 0x36
 8008a8c:	f423 03e0 	bic.w	r3, r3, #7340032	; 0x700000
 8008a90:	ea43 5501 	orr.w	r5, r3, r1, lsl #20
 8008a94:	4620      	mov	r0, r4
 8008a96:	4629      	mov	r1, r5
 8008a98:	2200      	movs	r2, #0
 8008a9a:	4b0b      	ldr	r3, [pc, #44]	; (8008ac8 <scalbn+0x108>)
 8008a9c:	e7a8      	b.n	80089f0 <scalbn+0x30>
 8008a9e:	bf00      	nop
 8008aa0:	c2f8f359 	.word	0xc2f8f359
 8008aa4:	01a56e1f 	.word	0x01a56e1f
 8008aa8:	8800759c 	.word	0x8800759c
 8008aac:	7e37e43c 	.word	0x7e37e43c
 8008ab0:	43500000 	.word	0x43500000
 8008ab4:	ffff3cb0 	.word	0xffff3cb0
 8008ab8:	8800759c 	.word	0x8800759c
 8008abc:	7e37e43c 	.word	0x7e37e43c
 8008ac0:	01a56e1f 	.word	0x01a56e1f
 8008ac4:	c2f8f359 	.word	0xc2f8f359
 8008ac8:	3c900000 	.word	0x3c900000

08008acc <_init>:
 8008acc:	b5f8      	push	{r3, r4, r5, r6, r7, lr}
 8008ace:	bf00      	nop
 8008ad0:	bcf8      	pop	{r3, r4, r5, r6, r7}
 8008ad2:	bc08      	pop	{r3}
 8008ad4:	469e      	mov	lr, r3
 8008ad6:	4770      	bx	lr

08008ad8 <_fini>:
 8008ad8:	b5f8      	push	{r3, r4, r5, r6, r7, lr}
 8008ada:	bf00      	nop
 8008adc:	bcf8      	pop	{r3, r4, r5, r6, r7}
 8008ade:	bc08      	pop	{r3}
 8008ae0:	469e      	mov	lr, r3
 8008ae2:	4770      	bx	lr
