
Clean_Project.elf:     file format elf32-littlearm

Sections:
Idx Name          Size      VMA       LMA       File off  Algn
  0 .isr_vector   0000010c  08000000  08000000  00010000  2**0
                  CONTENTS, ALLOC, LOAD, READONLY, DATA
  1 .text         00004540  08000110  08000110  00010110  2**3
                  CONTENTS, ALLOC, LOAD, READONLY, CODE
  2 .rodata       00000064  08004650  08004650  00014650  2**2
                  CONTENTS, ALLOC, LOAD, READONLY, DATA
  3 .ARM.extab    00000000  080046b4  080046b4  00020100  2**0
                  CONTENTS
  4 .ARM          00000000  080046b4  080046b4  00020100  2**0
                  CONTENTS
  5 .preinit_array 00000000  080046b4  080046b4  00020100  2**0
                  CONTENTS, ALLOC, LOAD, DATA
  6 .init_array   00000004  080046b4  080046b4  000146b4  2**2
                  CONTENTS, ALLOC, LOAD, DATA
  7 .fini_array   00000004  080046b8  080046b8  000146b8  2**2
                  CONTENTS, ALLOC, LOAD, DATA
  8 .data         00000100  20000000  080046bc  00020000  2**2
                  CONTENTS, ALLOC, LOAD, DATA
  9 .bss          0000156c  20000100  080047bc  00020100  2**2
                  ALLOC
 10 ._user_heap_stack 00000604  2000166c  080047bc  0002166c  2**0
                  ALLOC
 11 .ARM.attributes 00000029  00000000  00000000  00020100  2**0
                  CONTENTS, READONLY
 12 .debug_info   00016853  00000000  00000000  00020129  2**0
                  CONTENTS, READONLY, DEBUGGING, OCTETS
 13 .debug_abbrev 00003dca  00000000  00000000  0003697c  2**0
                  CONTENTS, READONLY, DEBUGGING, OCTETS
 14 .debug_aranges 00000970  00000000  00000000  0003a748  2**3
                  CONTENTS, READONLY, DEBUGGING, OCTETS
 15 .debug_ranges 000018f0  00000000  00000000  0003b0b8  2**3
                  CONTENTS, READONLY, DEBUGGING, OCTETS
 16 .debug_macro  0001abfa  00000000  00000000  0003c9a8  2**0
                  CONTENTS, READONLY, DEBUGGING, OCTETS
 17 .debug_line   00013ae7  00000000  00000000  000575a2  2**0
                  CONTENTS, READONLY, DEBUGGING, OCTETS
 18 .debug_str    0008c79e  00000000  00000000  0006b089  2**0
                  CONTENTS, READONLY, DEBUGGING, OCTETS
 19 .comment      00000053  00000000  00000000  000f7827  2**0
                  CONTENTS, READONLY
 20 .debug_frame  00001880  00000000  00000000  000f787c  2**2
                  CONTENTS, READONLY, DEBUGGING, OCTETS
 21 .debug_loc    00009c51  00000000  00000000  000f90fc  2**0
                  CONTENTS, READONLY, DEBUGGING, OCTETS

Disassembly of section .text:

08000110 <__do_global_dtors_aux>:
 8000110:	b510      	push	{r4, lr}
 8000112:	4c05      	ldr	r4, [pc, #20]	; (8000128 <__do_global_dtors_aux+0x18>)
 8000114:	7823      	ldrb	r3, [r4, #0]
 8000116:	b933      	cbnz	r3, 8000126 <__do_global_dtors_aux+0x16>
 8000118:	4b04      	ldr	r3, [pc, #16]	; (800012c <__do_global_dtors_aux+0x1c>)
 800011a:	b113      	cbz	r3, 8000122 <__do_global_dtors_aux+0x12>
 800011c:	4804      	ldr	r0, [pc, #16]	; (8000130 <__do_global_dtors_aux+0x20>)
 800011e:	f3af 8000 	nop.w
 8000122:	2301      	movs	r3, #1
 8000124:	7023      	strb	r3, [r4, #0]
 8000126:	bd10      	pop	{r4, pc}
 8000128:	20000100 	.word	0x20000100
 800012c:	00000000 	.word	0x00000000
 8000130:	08004638 	.word	0x08004638

08000134 <frame_dummy>:
 8000134:	b508      	push	{r3, lr}
 8000136:	4b03      	ldr	r3, [pc, #12]	; (8000144 <frame_dummy+0x10>)
 8000138:	b11b      	cbz	r3, 8000142 <frame_dummy+0xe>
 800013a:	4903      	ldr	r1, [pc, #12]	; (8000148 <frame_dummy+0x14>)
 800013c:	4803      	ldr	r0, [pc, #12]	; (800014c <frame_dummy+0x18>)
 800013e:	f3af 8000 	nop.w
 8000142:	bd08      	pop	{r3, pc}
 8000144:	00000000 	.word	0x00000000
 8000148:	20000104 	.word	0x20000104
 800014c:	08004638 	.word	0x08004638

08000150 <__aeabi_dmul>:
 8000150:	b570      	push	{r4, r5, r6, lr}
 8000152:	f04f 0cff 	mov.w	ip, #255	; 0xff
 8000156:	f44c 6ce0 	orr.w	ip, ip, #1792	; 0x700
 800015a:	ea1c 5411 	ands.w	r4, ip, r1, lsr #20
 800015e:	bf1d      	ittte	ne
 8000160:	ea1c 5513 	andsne.w	r5, ip, r3, lsr #20
 8000164:	ea94 0f0c 	teqne	r4, ip
 8000168:	ea95 0f0c 	teqne	r5, ip
 800016c:	f000 f8de 	bleq	800032c <__aeabi_dmul+0x1dc>
 8000170:	442c      	add	r4, r5
 8000172:	ea81 0603 	eor.w	r6, r1, r3
 8000176:	ea21 514c 	bic.w	r1, r1, ip, lsl #21
 800017a:	ea23 534c 	bic.w	r3, r3, ip, lsl #21
 800017e:	ea50 3501 	orrs.w	r5, r0, r1, lsl #12
 8000182:	bf18      	it	ne
 8000184:	ea52 3503 	orrsne.w	r5, r2, r3, lsl #12
 8000188:	f441 1180 	orr.w	r1, r1, #1048576	; 0x100000
 800018c:	f443 1380 	orr.w	r3, r3, #1048576	; 0x100000
 8000190:	d038      	beq.n	8000204 <__aeabi_dmul+0xb4>
 8000192:	fba0 ce02 	umull	ip, lr, r0, r2
 8000196:	f04f 0500 	mov.w	r5, #0
 800019a:	fbe1 e502 	umlal	lr, r5, r1, r2
 800019e:	f006 4200 	and.w	r2, r6, #2147483648	; 0x80000000
 80001a2:	fbe0 e503 	umlal	lr, r5, r0, r3
 80001a6:	f04f 0600 	mov.w	r6, #0
 80001aa:	fbe1 5603 	umlal	r5, r6, r1, r3
 80001ae:	f09c 0f00 	teq	ip, #0
 80001b2:	bf18      	it	ne
 80001b4:	f04e 0e01 	orrne.w	lr, lr, #1
 80001b8:	f1a4 04ff 	sub.w	r4, r4, #255	; 0xff
 80001bc:	f5b6 7f00 	cmp.w	r6, #512	; 0x200
 80001c0:	f564 7440 	sbc.w	r4, r4, #768	; 0x300
 80001c4:	d204      	bcs.n	80001d0 <__aeabi_dmul+0x80>
 80001c6:	ea5f 0e4e 	movs.w	lr, lr, lsl #1
 80001ca:	416d      	adcs	r5, r5
 80001cc:	eb46 0606 	adc.w	r6, r6, r6
 80001d0:	ea42 21c6 	orr.w	r1, r2, r6, lsl #11
 80001d4:	ea41 5155 	orr.w	r1, r1, r5, lsr #21
 80001d8:	ea4f 20c5 	mov.w	r0, r5, lsl #11
 80001dc:	ea40 505e 	orr.w	r0, r0, lr, lsr #21
 80001e0:	ea4f 2ece 	mov.w	lr, lr, lsl #11
 80001e4:	f1b4 0cfd 	subs.w	ip, r4, #253	; 0xfd
 80001e8:	bf88      	it	hi
 80001ea:	f5bc 6fe0 	cmphi.w	ip, #1792	; 0x700
 80001ee:	d81e      	bhi.n	800022e <__aeabi_dmul+0xde>
 80001f0:	f1be 4f00 	cmp.w	lr, #2147483648	; 0x80000000
 80001f4:	bf08      	it	eq
 80001f6:	ea5f 0e50 	movseq.w	lr, r0, lsr #1
 80001fa:	f150 0000 	adcs.w	r0, r0, #0
 80001fe:	eb41 5104 	adc.w	r1, r1, r4, lsl #20
 8000202:	bd70      	pop	{r4, r5, r6, pc}
 8000204:	f006 4600 	and.w	r6, r6, #2147483648	; 0x80000000
 8000208:	ea46 0101 	orr.w	r1, r6, r1
 800020c:	ea40 0002 	orr.w	r0, r0, r2
 8000210:	ea81 0103 	eor.w	r1, r1, r3
 8000214:	ebb4 045c 	subs.w	r4, r4, ip, lsr #1
 8000218:	bfc2      	ittt	gt
 800021a:	ebd4 050c 	rsbsgt	r5, r4, ip
 800021e:	ea41 5104 	orrgt.w	r1, r1, r4, lsl #20
 8000222:	bd70      	popgt	{r4, r5, r6, pc}
 8000224:	f441 1180 	orr.w	r1, r1, #1048576	; 0x100000
 8000228:	f04f 0e00 	mov.w	lr, #0
 800022c:	3c01      	subs	r4, #1
 800022e:	f300 80ab 	bgt.w	8000388 <__aeabi_dmul+0x238>
 8000232:	f114 0f36 	cmn.w	r4, #54	; 0x36
 8000236:	bfde      	ittt	le
 8000238:	2000      	movle	r0, #0
 800023a:	f001 4100 	andle.w	r1, r1, #2147483648	; 0x80000000
 800023e:	bd70      	pople	{r4, r5, r6, pc}
 8000240:	f1c4 0400 	rsb	r4, r4, #0
 8000244:	3c20      	subs	r4, #32
 8000246:	da35      	bge.n	80002b4 <__aeabi_dmul+0x164>
 8000248:	340c      	adds	r4, #12
 800024a:	dc1b      	bgt.n	8000284 <__aeabi_dmul+0x134>
 800024c:	f104 0414 	add.w	r4, r4, #20
 8000250:	f1c4 0520 	rsb	r5, r4, #32
 8000254:	fa00 f305 	lsl.w	r3, r0, r5
 8000258:	fa20 f004 	lsr.w	r0, r0, r4
 800025c:	fa01 f205 	lsl.w	r2, r1, r5
 8000260:	ea40 0002 	orr.w	r0, r0, r2
 8000264:	f001 4200 	and.w	r2, r1, #2147483648	; 0x80000000
 8000268:	f021 4100 	bic.w	r1, r1, #2147483648	; 0x80000000
 800026c:	eb10 70d3 	adds.w	r0, r0, r3, lsr #31
 8000270:	fa21 f604 	lsr.w	r6, r1, r4
 8000274:	eb42 0106 	adc.w	r1, r2, r6
 8000278:	ea5e 0e43 	orrs.w	lr, lr, r3, lsl #1
 800027c:	bf08      	it	eq
 800027e:	ea20 70d3 	biceq.w	r0, r0, r3, lsr #31
 8000282:	bd70      	pop	{r4, r5, r6, pc}
 8000284:	f1c4 040c 	rsb	r4, r4, #12
 8000288:	f1c4 0520 	rsb	r5, r4, #32
 800028c:	fa00 f304 	lsl.w	r3, r0, r4
 8000290:	fa20 f005 	lsr.w	r0, r0, r5
 8000294:	fa01 f204 	lsl.w	r2, r1, r4
 8000298:	ea40 0002 	orr.w	r0, r0, r2
 800029c:	f001 4100 	and.w	r1, r1, #2147483648	; 0x80000000
 80002a0:	eb10 70d3 	adds.w	r0, r0, r3, lsr #31
 80002a4:	f141 0100 	adc.w	r1, r1, #0
 80002a8:	ea5e 0e43 	orrs.w	lr, lr, r3, lsl #1
 80002ac:	bf08      	it	eq
 80002ae:	ea20 70d3 	biceq.w	r0, r0, r3, lsr #31
 80002b2:	bd70      	pop	{r4, r5, r6, pc}
 80002b4:	f1c4 0520 	rsb	r5, r4, #32
 80002b8:	fa00 f205 	lsl.w	r2, r0, r5
 80002bc:	ea4e 0e02 	orr.w	lr, lr, r2
 80002c0:	fa20 f304 	lsr.w	r3, r0, r4
 80002c4:	fa01 f205 	lsl.w	r2, r1, r5
 80002c8:	ea43 0302 	orr.w	r3, r3, r2
 80002cc:	fa21 f004 	lsr.w	r0, r1, r4
 80002d0:	f001 4100 	and.w	r1, r1, #2147483648	; 0x80000000
 80002d4:	fa21 f204 	lsr.w	r2, r1, r4
 80002d8:	ea20 0002 	bic.w	r0, r0, r2
 80002dc:	eb00 70d3 	add.w	r0, r0, r3, lsr #31
 80002e0:	ea5e 0e43 	orrs.w	lr, lr, r3, lsl #1
 80002e4:	bf08      	it	eq
 80002e6:	ea20 70d3 	biceq.w	r0, r0, r3, lsr #31
 80002ea:	bd70      	pop	{r4, r5, r6, pc}
 80002ec:	f094 0f00 	teq	r4, #0
 80002f0:	d10f      	bne.n	8000312 <__aeabi_dmul+0x1c2>
 80002f2:	f001 4600 	and.w	r6, r1, #2147483648	; 0x80000000
 80002f6:	0040      	lsls	r0, r0, #1
 80002f8:	eb41 0101 	adc.w	r1, r1, r1
 80002fc:	f411 1f80 	tst.w	r1, #1048576	; 0x100000
 8000300:	bf08      	it	eq
 8000302:	3c01      	subeq	r4, #1
 8000304:	d0f7      	beq.n	80002f6 <__aeabi_dmul+0x1a6>
 8000306:	ea41 0106 	orr.w	r1, r1, r6
 800030a:	f095 0f00 	teq	r5, #0
 800030e:	bf18      	it	ne
 8000310:	4770      	bxne	lr
 8000312:	f003 4600 	and.w	r6, r3, #2147483648	; 0x80000000
 8000316:	0052      	lsls	r2, r2, #1
 8000318:	eb43 0303 	adc.w	r3, r3, r3
 800031c:	f413 1f80 	tst.w	r3, #1048576	; 0x100000
 8000320:	bf08      	it	eq
 8000322:	3d01      	subeq	r5, #1
 8000324:	d0f7      	beq.n	8000316 <__aeabi_dmul+0x1c6>
 8000326:	ea43 0306 	orr.w	r3, r3, r6
 800032a:	4770      	bx	lr
 800032c:	ea94 0f0c 	teq	r4, ip
 8000330:	ea0c 5513 	and.w	r5, ip, r3, lsr #20
 8000334:	bf18      	it	ne
 8000336:	ea95 0f0c 	teqne	r5, ip
 800033a:	d00c      	beq.n	8000356 <__aeabi_dmul+0x206>
 800033c:	ea50 0641 	orrs.w	r6, r0, r1, lsl #1
 8000340:	bf18      	it	ne
 8000342:	ea52 0643 	orrsne.w	r6, r2, r3, lsl #1
 8000346:	d1d1      	bne.n	80002ec <__aeabi_dmul+0x19c>
 8000348:	ea81 0103 	eor.w	r1, r1, r3
 800034c:	f001 4100 	and.w	r1, r1, #2147483648	; 0x80000000
 8000350:	f04f 0000 	mov.w	r0, #0
 8000354:	bd70      	pop	{r4, r5, r6, pc}
 8000356:	ea50 0641 	orrs.w	r6, r0, r1, lsl #1
 800035a:	bf06      	itte	eq
 800035c:	4610      	moveq	r0, r2
 800035e:	4619      	moveq	r1, r3
 8000360:	ea52 0643 	orrsne.w	r6, r2, r3, lsl #1
 8000364:	d019      	beq.n	800039a <__aeabi_dmul+0x24a>
 8000366:	ea94 0f0c 	teq	r4, ip
 800036a:	d102      	bne.n	8000372 <__aeabi_dmul+0x222>
 800036c:	ea50 3601 	orrs.w	r6, r0, r1, lsl #12
 8000370:	d113      	bne.n	800039a <__aeabi_dmul+0x24a>
 8000372:	ea95 0f0c 	teq	r5, ip
 8000376:	d105      	bne.n	8000384 <__aeabi_dmul+0x234>
 8000378:	ea52 3603 	orrs.w	r6, r2, r3, lsl #12
 800037c:	bf1c      	itt	ne
 800037e:	4610      	movne	r0, r2
 8000380:	4619      	movne	r1, r3
 8000382:	d10a      	bne.n	800039a <__aeabi_dmul+0x24a>
 8000384:	ea81 0103 	eor.w	r1, r1, r3
 8000388:	f001 4100 	and.w	r1, r1, #2147483648	; 0x80000000
 800038c:	f041 41fe 	orr.w	r1, r1, #2130706432	; 0x7f000000
 8000390:	f441 0170 	orr.w	r1, r1, #15728640	; 0xf00000
 8000394:	f04f 0000 	mov.w	r0, #0
 8000398:	bd70      	pop	{r4, r5, r6, pc}
 800039a:	f041 41fe 	orr.w	r1, r1, #2130706432	; 0x7f000000
 800039e:	f441 0178 	orr.w	r1, r1, #16252928	; 0xf80000
 80003a2:	bd70      	pop	{r4, r5, r6, pc}

080003a4 <__aeabi_drsub>:
 80003a4:	f081 4100 	eor.w	r1, r1, #2147483648	; 0x80000000
 80003a8:	e002      	b.n	80003b0 <__adddf3>
 80003aa:	bf00      	nop

080003ac <__aeabi_dsub>:
 80003ac:	f083 4300 	eor.w	r3, r3, #2147483648	; 0x80000000

080003b0 <__adddf3>:
 80003b0:	b530      	push	{r4, r5, lr}
 80003b2:	ea4f 0441 	mov.w	r4, r1, lsl #1
 80003b6:	ea4f 0543 	mov.w	r5, r3, lsl #1
 80003ba:	ea94 0f05 	teq	r4, r5
 80003be:	bf08      	it	eq
 80003c0:	ea90 0f02 	teqeq	r0, r2
 80003c4:	bf1f      	itttt	ne
 80003c6:	ea54 0c00 	orrsne.w	ip, r4, r0
 80003ca:	ea55 0c02 	orrsne.w	ip, r5, r2
 80003ce:	ea7f 5c64 	mvnsne.w	ip, r4, asr #21
 80003d2:	ea7f 5c65 	mvnsne.w	ip, r5, asr #21
 80003d6:	f000 80e2 	beq.w	800059e <__adddf3+0x1ee>
 80003da:	ea4f 5454 	mov.w	r4, r4, lsr #21
 80003de:	ebd4 5555 	rsbs	r5, r4, r5, lsr #21
 80003e2:	bfb8      	it	lt
 80003e4:	426d      	neglt	r5, r5
 80003e6:	dd0c      	ble.n	8000402 <__adddf3+0x52>
 80003e8:	442c      	add	r4, r5
 80003ea:	ea80 0202 	eor.w	r2, r0, r2
 80003ee:	ea81 0303 	eor.w	r3, r1, r3
 80003f2:	ea82 0000 	eor.w	r0, r2, r0
 80003f6:	ea83 0101 	eor.w	r1, r3, r1
 80003fa:	ea80 0202 	eor.w	r2, r0, r2
 80003fe:	ea81 0303 	eor.w	r3, r1, r3
 8000402:	2d36      	cmp	r5, #54	; 0x36
 8000404:	bf88      	it	hi
 8000406:	bd30      	pophi	{r4, r5, pc}
 8000408:	f011 4f00 	tst.w	r1, #2147483648	; 0x80000000
 800040c:	ea4f 3101 	mov.w	r1, r1, lsl #12
 8000410:	f44f 1c80 	mov.w	ip, #1048576	; 0x100000
 8000414:	ea4c 3111 	orr.w	r1, ip, r1, lsr #12
 8000418:	d002      	beq.n	8000420 <__adddf3+0x70>
 800041a:	4240      	negs	r0, r0
 800041c:	eb61 0141 	sbc.w	r1, r1, r1, lsl #1
 8000420:	f013 4f00 	tst.w	r3, #2147483648	; 0x80000000
 8000424:	ea4f 3303 	mov.w	r3, r3, lsl #12
 8000428:	ea4c 3313 	orr.w	r3, ip, r3, lsr #12
 800042c:	d002      	beq.n	8000434 <__adddf3+0x84>
 800042e:	4252      	negs	r2, r2
 8000430:	eb63 0343 	sbc.w	r3, r3, r3, lsl #1
 8000434:	ea94 0f05 	teq	r4, r5
 8000438:	f000 80a7 	beq.w	800058a <__adddf3+0x1da>
 800043c:	f1a4 0401 	sub.w	r4, r4, #1
 8000440:	f1d5 0e20 	rsbs	lr, r5, #32
 8000444:	db0d      	blt.n	8000462 <__adddf3+0xb2>
 8000446:	fa02 fc0e 	lsl.w	ip, r2, lr
 800044a:	fa22 f205 	lsr.w	r2, r2, r5
 800044e:	1880      	adds	r0, r0, r2
 8000450:	f141 0100 	adc.w	r1, r1, #0
 8000454:	fa03 f20e 	lsl.w	r2, r3, lr
 8000458:	1880      	adds	r0, r0, r2
 800045a:	fa43 f305 	asr.w	r3, r3, r5
 800045e:	4159      	adcs	r1, r3
 8000460:	e00e      	b.n	8000480 <__adddf3+0xd0>
 8000462:	f1a5 0520 	sub.w	r5, r5, #32
 8000466:	f10e 0e20 	add.w	lr, lr, #32
 800046a:	2a01      	cmp	r2, #1
 800046c:	fa03 fc0e 	lsl.w	ip, r3, lr
 8000470:	bf28      	it	cs
 8000472:	f04c 0c02 	orrcs.w	ip, ip, #2
 8000476:	fa43 f305 	asr.w	r3, r3, r5
 800047a:	18c0      	adds	r0, r0, r3
 800047c:	eb51 71e3 	adcs.w	r1, r1, r3, asr #31
 8000480:	f001 4500 	and.w	r5, r1, #2147483648	; 0x80000000
 8000484:	d507      	bpl.n	8000496 <__adddf3+0xe6>
 8000486:	f04f 0e00 	mov.w	lr, #0
 800048a:	f1dc 0c00 	rsbs	ip, ip, #0
 800048e:	eb7e 0000 	sbcs.w	r0, lr, r0
 8000492:	eb6e 0101 	sbc.w	r1, lr, r1
 8000496:	f5b1 1f80 	cmp.w	r1, #1048576	; 0x100000
 800049a:	d31b      	bcc.n	80004d4 <__adddf3+0x124>
 800049c:	f5b1 1f00 	cmp.w	r1, #2097152	; 0x200000
 80004a0:	d30c      	bcc.n	80004bc <__adddf3+0x10c>
 80004a2:	0849      	lsrs	r1, r1, #1
 80004a4:	ea5f 0030 	movs.w	r0, r0, rrx
 80004a8:	ea4f 0c3c 	mov.w	ip, ip, rrx
 80004ac:	f104 0401 	add.w	r4, r4, #1
 80004b0:	ea4f 5244 	mov.w	r2, r4, lsl #21
 80004b4:	f512 0f80 	cmn.w	r2, #4194304	; 0x400000
 80004b8:	f080 809a 	bcs.w	80005f0 <__adddf3+0x240>
 80004bc:	f1bc 4f00 	cmp.w	ip, #2147483648	; 0x80000000
 80004c0:	bf08      	it	eq
 80004c2:	ea5f 0c50 	movseq.w	ip, r0, lsr #1
 80004c6:	f150 0000 	adcs.w	r0, r0, #0
 80004ca:	eb41 5104 	adc.w	r1, r1, r4, lsl #20
 80004ce:	ea41 0105 	orr.w	r1, r1, r5
 80004d2:	bd30      	pop	{r4, r5, pc}
 80004d4:	ea5f 0c4c 	movs.w	ip, ip, lsl #1
 80004d8:	4140      	adcs	r0, r0
 80004da:	eb41 0101 	adc.w	r1, r1, r1
 80004de:	3c01      	subs	r4, #1
 80004e0:	bf28      	it	cs
 80004e2:	f5b1 1f80 	cmpcs.w	r1, #1048576	; 0x100000
 80004e6:	d2e9      	bcs.n	80004bc <__adddf3+0x10c>
 80004e8:	f091 0f00 	teq	r1, #0
 80004ec:	bf04      	itt	eq
 80004ee:	4601      	moveq	r1, r0
 80004f0:	2000      	moveq	r0, #0
 80004f2:	fab1 f381 	clz	r3, r1
 80004f6:	bf08      	it	eq
 80004f8:	3320      	addeq	r3, #32
 80004fa:	f1a3 030b 	sub.w	r3, r3, #11
 80004fe:	f1b3 0220 	subs.w	r2, r3, #32
 8000502:	da0c      	bge.n	800051e <__adddf3+0x16e>
 8000504:	320c      	adds	r2, #12
 8000506:	dd08      	ble.n	800051a <__adddf3+0x16a>
 8000508:	f102 0c14 	add.w	ip, r2, #20
 800050c:	f1c2 020c 	rsb	r2, r2, #12
 8000510:	fa01 f00c 	lsl.w	r0, r1, ip
 8000514:	fa21 f102 	lsr.w	r1, r1, r2
 8000518:	e00c      	b.n	8000534 <__adddf3+0x184>
 800051a:	f102 0214 	add.w	r2, r2, #20
 800051e:	bfd8      	it	le
 8000520:	f1c2 0c20 	rsble	ip, r2, #32
 8000524:	fa01 f102 	lsl.w	r1, r1, r2
 8000528:	fa20 fc0c 	lsr.w	ip, r0, ip
 800052c:	bfdc      	itt	le
 800052e:	ea41 010c 	orrle.w	r1, r1, ip
 8000532:	4090      	lslle	r0, r2
 8000534:	1ae4      	subs	r4, r4, r3
 8000536:	bfa2      	ittt	ge
 8000538:	eb01 5104 	addge.w	r1, r1, r4, lsl #20
 800053c:	4329      	orrge	r1, r5
 800053e:	bd30      	popge	{r4, r5, pc}
 8000540:	ea6f 0404 	mvn.w	r4, r4
 8000544:	3c1f      	subs	r4, #31
 8000546:	da1c      	bge.n	8000582 <__adddf3+0x1d2>
 8000548:	340c      	adds	r4, #12
 800054a:	dc0e      	bgt.n	800056a <__adddf3+0x1ba>
 800054c:	f104 0414 	add.w	r4, r4, #20
 8000550:	f1c4 0220 	rsb	r2, r4, #32
 8000554:	fa20 f004 	lsr.w	r0, r0, r4
 8000558:	fa01 f302 	lsl.w	r3, r1, r2
 800055c:	ea40 0003 	orr.w	r0, r0, r3
 8000560:	fa21 f304 	lsr.w	r3, r1, r4
 8000564:	ea45 0103 	orr.w	r1, r5, r3
 8000568:	bd30      	pop	{r4, r5, pc}
 800056a:	f1c4 040c 	rsb	r4, r4, #12
 800056e:	f1c4 0220 	rsb	r2, r4, #32
 8000572:	fa20 f002 	lsr.w	r0, r0, r2
 8000576:	fa01 f304 	lsl.w	r3, r1, r4
 800057a:	ea40 0003 	orr.w	r0, r0, r3
 800057e:	4629      	mov	r1, r5
 8000580:	bd30      	pop	{r4, r5, pc}
 8000582:	fa21 f004 	lsr.w	r0, r1, r4
 8000586:	4629      	mov	r1, r5
 8000588:	bd30      	pop	{r4, r5, pc}
 800058a:	f094 0f00 	teq	r4, #0
 800058e:	f483 1380 	eor.w	r3, r3, #1048576	; 0x100000
 8000592:	bf06      	itte	eq
 8000594:	f481 1180 	eoreq.w	r1, r1, #1048576	; 0x100000
 8000598:	3401      	addeq	r4, #1
 800059a:	3d01      	subne	r5, #1
 800059c:	e74e      	b.n	800043c <__adddf3+0x8c>
 800059e:	ea7f 5c64 	mvns.w	ip, r4, asr #21
 80005a2:	bf18      	it	ne
 80005a4:	ea7f 5c65 	mvnsne.w	ip, r5, asr #21
 80005a8:	d029      	beq.n	80005fe <__adddf3+0x24e>
 80005aa:	ea94 0f05 	teq	r4, r5
 80005ae:	bf08      	it	eq
 80005b0:	ea90 0f02 	teqeq	r0, r2
 80005b4:	d005      	beq.n	80005c2 <__adddf3+0x212>
 80005b6:	ea54 0c00 	orrs.w	ip, r4, r0
 80005ba:	bf04      	itt	eq
 80005bc:	4619      	moveq	r1, r3
 80005be:	4610      	moveq	r0, r2
 80005c0:	bd30      	pop	{r4, r5, pc}
 80005c2:	ea91 0f03 	teq	r1, r3
 80005c6:	bf1e      	ittt	ne
 80005c8:	2100      	movne	r1, #0
 80005ca:	2000      	movne	r0, #0
 80005cc:	bd30      	popne	{r4, r5, pc}
 80005ce:	ea5f 5c54 	movs.w	ip, r4, lsr #21
 80005d2:	d105      	bne.n	80005e0 <__adddf3+0x230>
 80005d4:	0040      	lsls	r0, r0, #1
 80005d6:	4149      	adcs	r1, r1
 80005d8:	bf28      	it	cs
 80005da:	f041 4100 	orrcs.w	r1, r1, #2147483648	; 0x80000000
 80005de:	bd30      	pop	{r4, r5, pc}
 80005e0:	f514 0480 	adds.w	r4, r4, #4194304	; 0x400000
 80005e4:	bf3c      	itt	cc
 80005e6:	f501 1180 	addcc.w	r1, r1, #1048576	; 0x100000
 80005ea:	bd30      	popcc	{r4, r5, pc}
 80005ec:	f001 4500 	and.w	r5, r1, #2147483648	; 0x80000000
 80005f0:	f045 41fe 	orr.w	r1, r5, #2130706432	; 0x7f000000
 80005f4:	f441 0170 	orr.w	r1, r1, #15728640	; 0xf00000
 80005f8:	f04f 0000 	mov.w	r0, #0
 80005fc:	bd30      	pop	{r4, r5, pc}
 80005fe:	ea7f 5c64 	mvns.w	ip, r4, asr #21
 8000602:	bf1a      	itte	ne
 8000604:	4619      	movne	r1, r3
 8000606:	4610      	movne	r0, r2
 8000608:	ea7f 5c65 	mvnseq.w	ip, r5, asr #21
 800060c:	bf1c      	itt	ne
 800060e:	460b      	movne	r3, r1
 8000610:	4602      	movne	r2, r0
 8000612:	ea50 3401 	orrs.w	r4, r0, r1, lsl #12
 8000616:	bf06      	itte	eq
 8000618:	ea52 3503 	orrseq.w	r5, r2, r3, lsl #12
 800061c:	ea91 0f03 	teqeq	r1, r3
 8000620:	f441 2100 	orrne.w	r1, r1, #524288	; 0x80000
 8000624:	bd30      	pop	{r4, r5, pc}
 8000626:	bf00      	nop

08000628 <__aeabi_ui2d>:
 8000628:	f090 0f00 	teq	r0, #0
 800062c:	bf04      	itt	eq
 800062e:	2100      	moveq	r1, #0
 8000630:	4770      	bxeq	lr
 8000632:	b530      	push	{r4, r5, lr}
 8000634:	f44f 6480 	mov.w	r4, #1024	; 0x400
 8000638:	f104 0432 	add.w	r4, r4, #50	; 0x32
 800063c:	f04f 0500 	mov.w	r5, #0
 8000640:	f04f 0100 	mov.w	r1, #0
 8000644:	e750      	b.n	80004e8 <__adddf3+0x138>
 8000646:	bf00      	nop

08000648 <__aeabi_i2d>:
 8000648:	f090 0f00 	teq	r0, #0
 800064c:	bf04      	itt	eq
 800064e:	2100      	moveq	r1, #0
 8000650:	4770      	bxeq	lr
 8000652:	b530      	push	{r4, r5, lr}
 8000654:	f44f 6480 	mov.w	r4, #1024	; 0x400
 8000658:	f104 0432 	add.w	r4, r4, #50	; 0x32
 800065c:	f010 4500 	ands.w	r5, r0, #2147483648	; 0x80000000
 8000660:	bf48      	it	mi
 8000662:	4240      	negmi	r0, r0
 8000664:	f04f 0100 	mov.w	r1, #0
 8000668:	e73e      	b.n	80004e8 <__adddf3+0x138>
 800066a:	bf00      	nop

0800066c <__aeabi_f2d>:
 800066c:	0042      	lsls	r2, r0, #1
 800066e:	ea4f 01e2 	mov.w	r1, r2, asr #3
 8000672:	ea4f 0131 	mov.w	r1, r1, rrx
 8000676:	ea4f 7002 	mov.w	r0, r2, lsl #28
 800067a:	bf1f      	itttt	ne
 800067c:	f012 437f 	andsne.w	r3, r2, #4278190080	; 0xff000000
 8000680:	f093 4f7f 	teqne	r3, #4278190080	; 0xff000000
 8000684:	f081 5160 	eorne.w	r1, r1, #939524096	; 0x38000000
 8000688:	4770      	bxne	lr
 800068a:	f032 427f 	bics.w	r2, r2, #4278190080	; 0xff000000
 800068e:	bf08      	it	eq
 8000690:	4770      	bxeq	lr
 8000692:	f093 4f7f 	teq	r3, #4278190080	; 0xff000000
 8000696:	bf04      	itt	eq
 8000698:	f441 2100 	orreq.w	r1, r1, #524288	; 0x80000
 800069c:	4770      	bxeq	lr
 800069e:	b530      	push	{r4, r5, lr}
 80006a0:	f44f 7460 	mov.w	r4, #896	; 0x380
 80006a4:	f001 4500 	and.w	r5, r1, #2147483648	; 0x80000000
 80006a8:	f021 4100 	bic.w	r1, r1, #2147483648	; 0x80000000
 80006ac:	e71c      	b.n	80004e8 <__adddf3+0x138>
 80006ae:	bf00      	nop

080006b0 <__aeabi_ul2d>:
 80006b0:	ea50 0201 	orrs.w	r2, r0, r1
 80006b4:	bf08      	it	eq
 80006b6:	4770      	bxeq	lr
 80006b8:	b530      	push	{r4, r5, lr}
 80006ba:	f04f 0500 	mov.w	r5, #0
 80006be:	e00a      	b.n	80006d6 <__aeabi_l2d+0x16>

080006c0 <__aeabi_l2d>:
 80006c0:	ea50 0201 	orrs.w	r2, r0, r1
 80006c4:	bf08      	it	eq
 80006c6:	4770      	bxeq	lr
 80006c8:	b530      	push	{r4, r5, lr}
 80006ca:	f011 4500 	ands.w	r5, r1, #2147483648	; 0x80000000
 80006ce:	d502      	bpl.n	80006d6 <__aeabi_l2d+0x16>
 80006d0:	4240      	negs	r0, r0
 80006d2:	eb61 0141 	sbc.w	r1, r1, r1, lsl #1
 80006d6:	f44f 6480 	mov.w	r4, #1024	; 0x400
 80006da:	f104 0432 	add.w	r4, r4, #50	; 0x32
 80006de:	ea5f 5c91 	movs.w	ip, r1, lsr #22
 80006e2:	f43f aed8 	beq.w	8000496 <__adddf3+0xe6>
 80006e6:	f04f 0203 	mov.w	r2, #3
 80006ea:	ea5f 0cdc 	movs.w	ip, ip, lsr #3
 80006ee:	bf18      	it	ne
 80006f0:	3203      	addne	r2, #3
 80006f2:	ea5f 0cdc 	movs.w	ip, ip, lsr #3
 80006f6:	bf18      	it	ne
 80006f8:	3203      	addne	r2, #3
 80006fa:	eb02 02dc 	add.w	r2, r2, ip, lsr #3
 80006fe:	f1c2 0320 	rsb	r3, r2, #32
 8000702:	fa00 fc03 	lsl.w	ip, r0, r3
 8000706:	fa20 f002 	lsr.w	r0, r0, r2
 800070a:	fa01 fe03 	lsl.w	lr, r1, r3
 800070e:	ea40 000e 	orr.w	r0, r0, lr
 8000712:	fa21 f102 	lsr.w	r1, r1, r2
 8000716:	4414      	add	r4, r2
 8000718:	e6bd      	b.n	8000496 <__adddf3+0xe6>
 800071a:	bf00      	nop

0800071c <__aeabi_d2f>:
 800071c:	ea4f 0241 	mov.w	r2, r1, lsl #1
 8000720:	f1b2 43e0 	subs.w	r3, r2, #1879048192	; 0x70000000
 8000724:	bf24      	itt	cs
 8000726:	f5b3 1c00 	subscs.w	ip, r3, #2097152	; 0x200000
 800072a:	f1dc 5cfe 	rsbscs	ip, ip, #532676608	; 0x1fc00000
 800072e:	d90d      	bls.n	800074c <__aeabi_d2f+0x30>
 8000730:	f001 4c00 	and.w	ip, r1, #2147483648	; 0x80000000
 8000734:	ea4f 02c0 	mov.w	r2, r0, lsl #3
 8000738:	ea4c 7050 	orr.w	r0, ip, r0, lsr #29
 800073c:	f1b2 4f00 	cmp.w	r2, #2147483648	; 0x80000000
 8000740:	eb40 0083 	adc.w	r0, r0, r3, lsl #2
 8000744:	bf08      	it	eq
 8000746:	f020 0001 	biceq.w	r0, r0, #1
 800074a:	4770      	bx	lr
 800074c:	f011 4f80 	tst.w	r1, #1073741824	; 0x40000000
 8000750:	d121      	bne.n	8000796 <__aeabi_d2f+0x7a>
 8000752:	f113 7238 	adds.w	r2, r3, #48234496	; 0x2e00000
 8000756:	bfbc      	itt	lt
 8000758:	f001 4000 	andlt.w	r0, r1, #2147483648	; 0x80000000
 800075c:	4770      	bxlt	lr
 800075e:	f441 1180 	orr.w	r1, r1, #1048576	; 0x100000
 8000762:	ea4f 5252 	mov.w	r2, r2, lsr #21
 8000766:	f1c2 0218 	rsb	r2, r2, #24
 800076a:	f1c2 0c20 	rsb	ip, r2, #32
 800076e:	fa10 f30c 	lsls.w	r3, r0, ip
 8000772:	fa20 f002 	lsr.w	r0, r0, r2
 8000776:	bf18      	it	ne
 8000778:	f040 0001 	orrne.w	r0, r0, #1
 800077c:	ea4f 23c1 	mov.w	r3, r1, lsl #11
 8000780:	ea4f 23d3 	mov.w	r3, r3, lsr #11
 8000784:	fa03 fc0c 	lsl.w	ip, r3, ip
 8000788:	ea40 000c 	orr.w	r0, r0, ip
 800078c:	fa23 f302 	lsr.w	r3, r3, r2
 8000790:	ea4f 0343 	mov.w	r3, r3, lsl #1
 8000794:	e7cc      	b.n	8000730 <__aeabi_d2f+0x14>
 8000796:	ea7f 5362 	mvns.w	r3, r2, asr #21
 800079a:	d107      	bne.n	80007ac <__aeabi_d2f+0x90>
 800079c:	ea50 3301 	orrs.w	r3, r0, r1, lsl #12
 80007a0:	bf1e      	ittt	ne
 80007a2:	f04f 40fe 	movne.w	r0, #2130706432	; 0x7f000000
 80007a6:	f440 0040 	orrne.w	r0, r0, #12582912	; 0xc00000
 80007aa:	4770      	bxne	lr
 80007ac:	f001 4000 	and.w	r0, r1, #2147483648	; 0x80000000
 80007b0:	f040 40fe 	orr.w	r0, r0, #2130706432	; 0x7f000000
 80007b4:	f440 0000 	orr.w	r0, r0, #8388608	; 0x800000
 80007b8:	4770      	bx	lr
 80007ba:	bf00      	nop

080007bc <__aeabi_f2uiz>:
 80007bc:	0042      	lsls	r2, r0, #1
 80007be:	d20e      	bcs.n	80007de <__aeabi_f2uiz+0x22>
 80007c0:	f1b2 4ffe 	cmp.w	r2, #2130706432	; 0x7f000000
 80007c4:	d30b      	bcc.n	80007de <__aeabi_f2uiz+0x22>
 80007c6:	f04f 039e 	mov.w	r3, #158	; 0x9e
 80007ca:	ebb3 6212 	subs.w	r2, r3, r2, lsr #24
 80007ce:	d409      	bmi.n	80007e4 <__aeabi_f2uiz+0x28>
 80007d0:	ea4f 2300 	mov.w	r3, r0, lsl #8
 80007d4:	f043 4300 	orr.w	r3, r3, #2147483648	; 0x80000000
 80007d8:	fa23 f002 	lsr.w	r0, r3, r2
 80007dc:	4770      	bx	lr
 80007de:	f04f 0000 	mov.w	r0, #0
 80007e2:	4770      	bx	lr
 80007e4:	f112 0f61 	cmn.w	r2, #97	; 0x61
 80007e8:	d101      	bne.n	80007ee <__aeabi_f2uiz+0x32>
 80007ea:	0242      	lsls	r2, r0, #9
 80007ec:	d102      	bne.n	80007f4 <__aeabi_f2uiz+0x38>
 80007ee:	f04f 30ff 	mov.w	r0, #4294967295	; 0xffffffff
 80007f2:	4770      	bx	lr
 80007f4:	f04f 0000 	mov.w	r0, #0
 80007f8:	4770      	bx	lr
 80007fa:	bf00      	nop

080007fc <TurnLedOn>:
#include "gpio.h"

// Onboard LED
void TurnLedOn(void)
{
    ResetPin(LED_PIN);
 80007fc:	210d      	movs	r1, #13
 80007fe:	4801      	ldr	r0, [pc, #4]	; (8000804 <TurnLedOn+0x8>)
 8000800:	f000 b86a 	b.w	80008d8 <ResetPin>
 8000804:	40011000 	.word	0x40011000

08000808 <TurnLedOff>:
}
void TurnLedOff(void)
{
    SetPin(LED_PIN);
 8000808:	210d      	movs	r1, #13
 800080a:	4801      	ldr	r0, [pc, #4]	; (8000810 <TurnLedOff+0x8>)
 800080c:	f000 b860 	b.w	80008d0 <SetPin>
 8000810:	40011000 	.word	0x40011000

08000814 <DMA1_Channel3_IRQHandler>:

// Interrupt handler
void DMA1_Channel3_IRQHandler()
{
    // Clear interrupt flag
    DMA1->IFCR |= DMA_IFCR_CTCIF3;
 8000814:	490b      	ldr	r1, [pc, #44]	; (8000844 <DMA1_Channel3_IRQHandler+0x30>)
 8000816:	4b0c      	ldr	r3, [pc, #48]	; (8000848 <DMA1_Channel3_IRQHandler+0x34>)
 8000818:	684a      	ldr	r2, [r1, #4]
{
 800081a:	b470      	push	{r4, r5, r6}
    DMA1->IFCR |= DMA_IFCR_CTCIF3;
 800081c:	f442 7200 	orr.w	r2, r2, #512	; 0x200
 8000820:	4e0a      	ldr	r6, [pc, #40]	; (800084c <DMA1_Channel3_IRQHandler+0x38>)
 8000822:	604a      	str	r2, [r1, #4]

    // Return data
    for (int i = 0; i < DMA_NUM_OF_TRANSACTIONS; i++) {
 8000824:	f103 0530 	add.w	r5, r3, #48	; 0x30
 8000828:	425c      	negs	r4, r3
        buf_ptr[i] = tmp_buf[i];
 800082a:	18e2      	adds	r2, r4, r3
 800082c:	f813 0f01 	ldrb.w	r0, [r3, #1]!
 8000830:	6831      	ldr	r1, [r6, #0]
    for (int i = 0; i < DMA_NUM_OF_TRANSACTIONS; i++) {
 8000832:	42ab      	cmp	r3, r5
        buf_ptr[i] = tmp_buf[i];
 8000834:	5488      	strb	r0, [r1, r2]
    for (int i = 0; i < DMA_NUM_OF_TRANSACTIONS; i++) {
 8000836:	d1f8      	bne.n	800082a <DMA1_Channel3_IRQHandler+0x16>
    }
    data_ready_flag = true;
 8000838:	2201      	movs	r2, #1

}
 800083a:	bc70      	pop	{r4, r5, r6}
    data_ready_flag = true;
 800083c:	4b04      	ldr	r3, [pc, #16]	; (8000850 <DMA1_Channel3_IRQHandler+0x3c>)
 800083e:	701a      	strb	r2, [r3, #0]
}
 8000840:	4770      	bx	lr
 8000842:	bf00      	nop
 8000844:	40020000 	.word	0x40020000
 8000848:	20000613 	.word	0x20000613
 800084c:	20000610 	.word	0x20000610
 8000850:	2000011c 	.word	0x2000011c

08000854 <InitDma>:
void InitDma(uint8_t * buf)
{
 8000854:	b430      	push	{r4, r5}
                            DMA_CCR_TCIE       * 1;    // transfer complete interrupt enable

    // Memory address
    DMA1_Channel3->CMAR = (uint32_t)tmp_buf;
    // Number of transactions
    DMA1_Channel3->CNDTR = DMA_NUM_OF_TRANSACTIONS;
 8000856:	2230      	movs	r2, #48	; 0x30
    DMA1_Channel3->CCR  =   DMA_CCR_MEM2MEM    * 0 |   // memory to memory mode
 8000858:	24a2      	movs	r4, #162	; 0xa2
    buf_ptr = buf;
 800085a:	4907      	ldr	r1, [pc, #28]	; (8000878 <InitDma+0x24>)
    DMA1_Channel3->CPAR = (uint32_t)&(PARALLEL_PORT->IDR);
 800085c:	4b07      	ldr	r3, [pc, #28]	; (800087c <InitDma+0x28>)
    buf_ptr = buf;
 800085e:	6008      	str	r0, [r1, #0]
    DMA1_Channel3->CPAR = (uint32_t)&(PARALLEL_PORT->IDR);
 8000860:	4d07      	ldr	r5, [pc, #28]	; (8000880 <InitDma+0x2c>)
    DMA1_Channel3->CMAR = (uint32_t)tmp_buf;
 8000862:	4908      	ldr	r1, [pc, #32]	; (8000884 <InitDma+0x30>)
    DMA1_Channel3->CPAR = (uint32_t)&(PARALLEL_PORT->IDR);
 8000864:	609d      	str	r5, [r3, #8]
    DMA1_Channel3->CCR  =   DMA_CCR_MEM2MEM    * 0 |   // memory to memory mode
 8000866:	601c      	str	r4, [r3, #0]
    DMA1_Channel3->CMAR = (uint32_t)tmp_buf;
 8000868:	60d9      	str	r1, [r3, #12]
    DMA1_Channel3->CNDTR = DMA_NUM_OF_TRANSACTIONS;
 800086a:	605a      	str	r2, [r3, #4]

    // Channel enable
    DMA1_Channel3->CCR |= DMA_CCR_EN;
 800086c:	681a      	ldr	r2, [r3, #0]
}
 800086e:	bc30      	pop	{r4, r5}
    DMA1_Channel3->CCR |= DMA_CCR_EN;
 8000870:	f042 0201 	orr.w	r2, r2, #1
 8000874:	601a      	str	r2, [r3, #0]
}
 8000876:	4770      	bx	lr
 8000878:	20000610 	.word	0x20000610
 800087c:	40020030 	.word	0x40020030
 8000880:	40010808 	.word	0x40010808
 8000884:	20000614 	.word	0x20000614

08000888 <IsDataReady>:

// function to check if data were copied to the buffer and reset flag
bool IsDataReady(void)
{
    if (data_ready_flag == true) {
 8000888:	4b02      	ldr	r3, [pc, #8]	; (8000894 <IsDataReady+0xc>)
 800088a:	7818      	ldrb	r0, [r3, #0]
 800088c:	b108      	cbz	r0, 8000892 <IsDataReady+0xa>

        data_ready_flag = false;
 800088e:	2200      	movs	r2, #0
 8000890:	701a      	strb	r2, [r3, #0]
        return true;
    }
    else
        return false;
}
 8000892:	4770      	bx	lr
 8000894:	2000011c 	.word	0x2000011c

08000898 <SetGpioMode>:
//user
#include "gpio.h"

void SetGpioMode(GPIO_TypeDef* port, int pin, int mode)
{
    if (pin > 7)
 8000898:	2907      	cmp	r1, #7
{
 800089a:	b410      	push	{r4}
        port->CRH = (port->CRH & ~(0x0f << (pin-8)*4)) | (mode << (pin-8)*4);
 800089c:	f04f 040f 	mov.w	r4, #15
    if (pin > 7)
 80008a0:	dd0a      	ble.n	80008b8 <SetGpioMode+0x20>
        port->CRH = (port->CRH & ~(0x0f << (pin-8)*4)) | (mode << (pin-8)*4);
 80008a2:	3908      	subs	r1, #8
 80008a4:	008b      	lsls	r3, r1, #2
 80008a6:	6841      	ldr	r1, [r0, #4]
 80008a8:	409c      	lsls	r4, r3
 80008aa:	409a      	lsls	r2, r3
 80008ac:	ea21 0304 	bic.w	r3, r1, r4
 80008b0:	431a      	orrs	r2, r3
    else
        port->CRL = (port->CRL & ~(0x0f << pin*4)) | (mode << pin*4);
}
 80008b2:	bc10      	pop	{r4}
        port->CRH = (port->CRH & ~(0x0f << (pin-8)*4)) | (mode << (pin-8)*4);
 80008b4:	6042      	str	r2, [r0, #4]
}
 80008b6:	4770      	bx	lr
        port->CRL = (port->CRL & ~(0x0f << pin*4)) | (mode << pin*4);
 80008b8:	6803      	ldr	r3, [r0, #0]
 80008ba:	0089      	lsls	r1, r1, #2
 80008bc:	408c      	lsls	r4, r1
 80008be:	fa02 f101 	lsl.w	r1, r2, r1
 80008c2:	ea23 0204 	bic.w	r2, r3, r4
 80008c6:	4311      	orrs	r1, r2
}
 80008c8:	bc10      	pop	{r4}
        port->CRL = (port->CRL & ~(0x0f << pin*4)) | (mode << pin*4);
 80008ca:	6001      	str	r1, [r0, #0]
}
 80008cc:	4770      	bx	lr
 80008ce:	bf00      	nop

080008d0 <SetPin>:
{
    return ((port->IDR & (1 << pin)) != 0);
}
void SetPin(GPIO_TypeDef* port, int pin)
{
    port->BSRR = (1 << pin);
 80008d0:	2301      	movs	r3, #1
 80008d2:	408b      	lsls	r3, r1
 80008d4:	6103      	str	r3, [r0, #16]
}
 80008d6:	4770      	bx	lr

080008d8 <ResetPin>:
void ResetPin(GPIO_TypeDef* port, int pin)
{
    port->BSRR = (1 << (pin+16));
 80008d8:	2301      	movs	r3, #1
 80008da:	3110      	adds	r1, #16
 80008dc:	408b      	lsls	r3, r1
 80008de:	6103      	str	r3, [r0, #16]
}
 80008e0:	4770      	bx	lr
 80008e2:	bf00      	nop

080008e4 <InitRcc>:


void InitRcc(void)
{
    // port A
    RCC->APB2ENR |= RCC_APB2ENR_IOPAEN;
 80008e4:	4b10      	ldr	r3, [pc, #64]	; (8000928 <InitRcc+0x44>)
 80008e6:	699a      	ldr	r2, [r3, #24]
 80008e8:	f042 0204 	orr.w	r2, r2, #4
 80008ec:	619a      	str	r2, [r3, #24]
    // port B
    RCC->APB2ENR |= RCC_APB2ENR_IOPBEN;
 80008ee:	699a      	ldr	r2, [r3, #24]
 80008f0:	f042 0208 	orr.w	r2, r2, #8
 80008f4:	619a      	str	r2, [r3, #24]
    // port C
    RCC->APB2ENR |= RCC_APB2ENR_IOPCEN;
 80008f6:	699a      	ldr	r2, [r3, #24]
 80008f8:	f042 0210 	orr.w	r2, r2, #16
 80008fc:	619a      	str	r2, [r3, #24]
    // TIM2
    RCC->APB1ENR |= RCC_APB1ENR_TIM2EN;
 80008fe:	69da      	ldr	r2, [r3, #28]
 8000900:	f042 0201 	orr.w	r2, r2, #1
 8000904:	61da      	str	r2, [r3, #28]
    // TIM3
    RCC->APB1ENR |= RCC_APB1ENR_TIM3EN;
 8000906:	69da      	ldr	r2, [r3, #28]
 8000908:	f042 0202 	orr.w	r2, r2, #2
 800090c:	61da      	str	r2, [r3, #28]
    // TIM4
    RCC->APB1ENR |= RCC_APB1ENR_TIM4EN;
 800090e:	69da      	ldr	r2, [r3, #28]
 8000910:	f042 0204 	orr.w	r2, r2, #4
 8000914:	61da      	str	r2, [r3, #28]
    // AFIO
    RCC->APB2ENR |= RCC_APB2ENR_AFIOEN;
 8000916:	699a      	ldr	r2, [r3, #24]
 8000918:	f042 0201 	orr.w	r2, r2, #1
 800091c:	619a      	str	r2, [r3, #24]
    // DMA1
    RCC->AHBENR |= RCC_AHBENR_DMA1EN;
 800091e:	695a      	ldr	r2, [r3, #20]
 8000920:	f042 0201 	orr.w	r2, r2, #1
 8000924:	615a      	str	r2, [r3, #20]
}
 8000926:	4770      	bx	lr
 8000928:	40021000 	.word	0x40021000

0800092c <InitInterrupt>:
 */
__STATIC_INLINE void __NVIC_EnableIRQ(IRQn_Type IRQn)
{
  if ((int32_t)(IRQn) >= 0)
  {
    NVIC->ISER[(((uint32_t)IRQn) >> 5UL)] = (uint32_t)(1UL << (((uint32_t)IRQn) & 0x1FUL));
 800092c:	f44f 5200 	mov.w	r2, #8192	; 0x2000
 8000930:	4b01      	ldr	r3, [pc, #4]	; (8000938 <InitInterrupt+0xc>)
 8000932:	601a      	str	r2, [r3, #0]
void InitInterrupt(void)
{
    // DMA1 channel 3
    NVIC_EnableIRQ(DMA1_Channel3_IRQn);
}
 8000934:	4770      	bx	lr
 8000936:	bf00      	nop
 8000938:	e000e100 	.word	0xe000e100

0800093c <InitGpio>:
    // Remap A15, B3, B4
    /*AFIO->MAPR |=   AFIO_MAPR_SWJ_CFG_2 * 0 |
                    AFIO_MAPR_SWJ_CFG_1 * 1 |
                    AFIO_MAPR_SWJ_CFG_0 * 0;*/
    // Remap TIM2
    AFIO->MAPR |= AFIO_MAPR_TIM2_REMAP_1;   // remap C3 to PB10; C4 to PB11
 800093c:	4a38      	ldr	r2, [pc, #224]	; (8000a20 <InitGpio+0xe4>)
{
 800093e:	b538      	push	{r3, r4, r5, lr}
    AFIO->MAPR |= AFIO_MAPR_TIM2_REMAP_1;   // remap C3 to PB10; C4 to PB11
 8000940:	6853      	ldr	r3, [r2, #4]
    
    // Pulses power for optical sensors and registers control
    SetGpioMode(UNLOCK_PIN, PIN_MODE_10MHZ_AFPP);
 8000942:	4d38      	ldr	r5, [pc, #224]	; (8000a24 <InitGpio+0xe8>)
    AFIO->MAPR |= AFIO_MAPR_TIM2_REMAP_1;   // remap C3 to PB10; C4 to PB11
 8000944:	f443 7300 	orr.w	r3, r3, #512	; 0x200
 8000948:	6053      	str	r3, [r2, #4]
    SetGpioMode(UNLOCK_PIN, PIN_MODE_10MHZ_AFPP);
 800094a:	4628      	mov	r0, r5
 800094c:	2209      	movs	r2, #9
 800094e:	210a      	movs	r1, #10
 8000950:	f7ff ffa2 	bl	8000898 <SetGpioMode>
    SetGpioMode(LOCK_PIN, PIN_MODE_10MHZ_AFPP);
 8000954:	4628      	mov	r0, r5
 8000956:	2209      	movs	r2, #9
 8000958:	210b      	movs	r1, #11
    // Pulse for multiplexer
    SetGpioMode(MUX_PIN, PIN_MODE_10MHZ_AFPP);
    // Reset input and output counters
    SetGpioMode(RESET_PIN, PIN_MODE_2MHZ_OPP);

    SetGpioMode(GPIOA, 0, PIN_MODE_IPULL);
 800095a:	4c33      	ldr	r4, [pc, #204]	; (8000a28 <InitGpio+0xec>)
    SetGpioMode(LOCK_PIN, PIN_MODE_10MHZ_AFPP);
 800095c:	f7ff ff9c 	bl	8000898 <SetGpioMode>
    SetGpioMode(MUX_PIN, PIN_MODE_10MHZ_AFPP);
 8000960:	4628      	mov	r0, r5
 8000962:	2209      	movs	r2, #9
 8000964:	2101      	movs	r1, #1
 8000966:	f7ff ff97 	bl	8000898 <SetGpioMode>
    SetGpioMode(RESET_PIN, PIN_MODE_2MHZ_OPP);
 800096a:	4628      	mov	r0, r5
 800096c:	2202      	movs	r2, #2
 800096e:	2100      	movs	r1, #0
 8000970:	f7ff ff92 	bl	8000898 <SetGpioMode>
    SetGpioMode(GPIOA, 0, PIN_MODE_IPULL);
 8000974:	4620      	mov	r0, r4
 8000976:	2208      	movs	r2, #8
 8000978:	2100      	movs	r1, #0
 800097a:	f7ff ff8d 	bl	8000898 <SetGpioMode>
    SetGpioMode(GPIOA, 1, PIN_MODE_IPULL);
 800097e:	4620      	mov	r0, r4
 8000980:	2208      	movs	r2, #8
 8000982:	2101      	movs	r1, #1
 8000984:	f7ff ff88 	bl	8000898 <SetGpioMode>
    SetGpioMode(GPIOA, 2, PIN_MODE_IPULL);
 8000988:	4620      	mov	r0, r4
 800098a:	2208      	movs	r2, #8
 800098c:	2102      	movs	r1, #2
 800098e:	f7ff ff83 	bl	8000898 <SetGpioMode>
    SetGpioMode(GPIOA, 3, PIN_MODE_IPULL);
 8000992:	4620      	mov	r0, r4
 8000994:	2208      	movs	r2, #8
 8000996:	2103      	movs	r1, #3
 8000998:	f7ff ff7e 	bl	8000898 <SetGpioMode>
    SetGpioMode(GPIOA, 4, PIN_MODE_IPULL);
 800099c:	4620      	mov	r0, r4
 800099e:	2208      	movs	r2, #8
 80009a0:	2104      	movs	r1, #4
 80009a2:	f7ff ff79 	bl	8000898 <SetGpioMode>
    SetGpioMode(GPIOA, 5, PIN_MODE_IPULL);
 80009a6:	4620      	mov	r0, r4
 80009a8:	2208      	movs	r2, #8
 80009aa:	2105      	movs	r1, #5
 80009ac:	f7ff ff74 	bl	8000898 <SetGpioMode>
    SetGpioMode(GPIOA, 6, PIN_MODE_IPULL);
 80009b0:	4620      	mov	r0, r4
 80009b2:	2208      	movs	r2, #8
 80009b4:	2106      	movs	r1, #6
 80009b6:	f7ff ff6f 	bl	8000898 <SetGpioMode>
    SetGpioMode(GPIOA, 7, PIN_MODE_IPULL);
 80009ba:	2208      	movs	r2, #8
 80009bc:	4620      	mov	r0, r4
 80009be:	2107      	movs	r1, #7
 80009c0:	f7ff ff6a 	bl	8000898 <SetGpioMode>
    SetPin(GPIOA, 0);
 80009c4:	4620      	mov	r0, r4
 80009c6:	2100      	movs	r1, #0
 80009c8:	f7ff ff82 	bl	80008d0 <SetPin>
    SetPin(GPIOA, 1);
 80009cc:	4620      	mov	r0, r4
 80009ce:	2101      	movs	r1, #1
 80009d0:	f7ff ff7e 	bl	80008d0 <SetPin>
    SetPin(GPIOA, 2);
 80009d4:	4620      	mov	r0, r4
 80009d6:	2102      	movs	r1, #2
 80009d8:	f7ff ff7a 	bl	80008d0 <SetPin>
    SetPin(GPIOA, 3);
 80009dc:	4620      	mov	r0, r4
 80009de:	2103      	movs	r1, #3
 80009e0:	f7ff ff76 	bl	80008d0 <SetPin>
    SetPin(GPIOA, 4);
 80009e4:	4620      	mov	r0, r4
 80009e6:	2104      	movs	r1, #4
 80009e8:	f7ff ff72 	bl	80008d0 <SetPin>
    SetPin(GPIOA, 5);
 80009ec:	4620      	mov	r0, r4
 80009ee:	2105      	movs	r1, #5
 80009f0:	f7ff ff6e 	bl	80008d0 <SetPin>
    SetPin(GPIOA, 6);
 80009f4:	4620      	mov	r0, r4
 80009f6:	2106      	movs	r1, #6
 80009f8:	f7ff ff6a 	bl	80008d0 <SetPin>
    SetPin(GPIOA, 7);

    // Debug LED
    SetGpioMode(LED_PIN, PIN_MODE_10MHZ_OPP);
 80009fc:	f505 6580 	add.w	r5, r5, #1024	; 0x400
    SetPin(GPIOA, 7);
 8000a00:	4620      	mov	r0, r4
 8000a02:	2107      	movs	r1, #7
 8000a04:	f7ff ff64 	bl	80008d0 <SetPin>
    SetGpioMode(LED_PIN, PIN_MODE_10MHZ_OPP);
 8000a08:	4628      	mov	r0, r5
 8000a0a:	2201      	movs	r2, #1
 8000a0c:	210d      	movs	r1, #13
 8000a0e:	f7ff ff43 	bl	8000898 <SetGpioMode>
    SetGpioMode(GPIOC, 14, PIN_MODE_10MHZ_OPP);		// for test
 8000a12:	4628      	mov	r0, r5
}
 8000a14:	e8bd 4038 	ldmia.w	sp!, {r3, r4, r5, lr}
    SetGpioMode(GPIOC, 14, PIN_MODE_10MHZ_OPP);		// for test
 8000a18:	2201      	movs	r2, #1
 8000a1a:	210e      	movs	r1, #14
 8000a1c:	f7ff bf3c 	b.w	8000898 <SetGpioMode>
 8000a20:	40010000 	.word	0x40010000
 8000a24:	40010c00 	.word	0x40010c00
 8000a28:	40010800 	.word	0x40010800

08000a2c <SystemClock_Config>:
	RCC_PeriphCLKInitTypeDef PeriphClkInit = { 0 };

	RCC_OscInitStruct.OscillatorType = RCC_OSCILLATORTYPE_HSE;
	RCC_OscInitStruct.HSEState = RCC_HSE_ON;
	RCC_OscInitStruct.HSEPredivValue = RCC_HSE_PREDIV_DIV1;
	RCC_OscInitStruct.HSIState = RCC_HSI_ON;
 8000a2c:	2001      	movs	r0, #1
void SystemClock_Config(void) {
 8000a2e:	e92d 43d0 	stmdb	sp!, {r4, r6, r7, r8, r9, lr}
	RCC_OscInitTypeDef RCC_OscInitStruct = { 0 };
 8000a32:	2300      	movs	r3, #0
	RCC_OscInitStruct.OscillatorType = RCC_OSCILLATORTYPE_HSE;
 8000a34:	2601      	movs	r6, #1
 8000a36:	f44f 3780 	mov.w	r7, #65536	; 0x10000
	RCC_OscInitStruct.PLL.PLLState = RCC_PLL_ON;
 8000a3a:	2402      	movs	r4, #2
	RCC_OscInitStruct.PLL.PLLSource = RCC_PLLSOURCE_HSE;
 8000a3c:	f44f 3180 	mov.w	r1, #65536	; 0x10000
	RCC_OscInitStruct.PLL.PLLMUL = RCC_PLL_MUL9;
 8000a40:	f44f 12e0 	mov.w	r2, #1835008	; 0x1c0000
void SystemClock_Config(void) {
 8000a44:	b094      	sub	sp, #80	; 0x50
	RCC_OscInitStruct.HSIState = RCC_HSI_ON;
 8000a46:	900e      	str	r0, [sp, #56]	; 0x38
	if (HAL_RCC_OscConfig(&RCC_OscInitStruct) != HAL_OK) {
 8000a48:	a80a      	add	r0, sp, #40	; 0x28
	RCC_OscInitTypeDef RCC_OscInitStruct = { 0 };
 8000a4a:	e9cd 330f 	strd	r3, r3, [sp, #60]	; 0x3c
	RCC_ClkInitTypeDef RCC_ClkInitStruct = { 0 };
 8000a4e:	e9cd 3305 	strd	r3, r3, [sp, #20]
 8000a52:	e9cd 3307 	strd	r3, r3, [sp, #28]
	RCC_PeriphCLKInitTypeDef PeriphClkInit = { 0 };
 8000a56:	e9cd 3301 	strd	r3, r3, [sp, #4]
	RCC_OscInitStruct.OscillatorType = RCC_OSCILLATORTYPE_HSE;
 8000a5a:	e9cd 670a 	strd	r6, r7, [sp, #40]	; 0x28
	RCC_OscInitStruct.PLL.PLLSource = RCC_PLLSOURCE_HSE;
 8000a5e:	e9cd 4111 	strd	r4, r1, [sp, #68]	; 0x44
	RCC_OscInitTypeDef RCC_OscInitStruct = { 0 };
 8000a62:	930d      	str	r3, [sp, #52]	; 0x34
	RCC_ClkInitTypeDef RCC_ClkInitStruct = { 0 };
 8000a64:	9304      	str	r3, [sp, #16]
	RCC_PeriphCLKInitTypeDef PeriphClkInit = { 0 };
 8000a66:	9300      	str	r3, [sp, #0]
	RCC_OscInitStruct.HSEPredivValue = RCC_HSE_PREDIV_DIV1;
 8000a68:	930c      	str	r3, [sp, #48]	; 0x30
	RCC_PeriphCLKInitTypeDef PeriphClkInit = { 0 };
 8000a6a:	9303      	str	r3, [sp, #12]
	RCC_OscInitStruct.PLL.PLLMUL = RCC_PLL_MUL9;
 8000a6c:	9213      	str	r2, [sp, #76]	; 0x4c
	if (HAL_RCC_OscConfig(&RCC_OscInitStruct) != HAL_OK) {
 8000a6e:	f001 fbc3 	bl	80021f8 <HAL_RCC_OscConfig>
 8000a72:	b108      	cbz	r0, 8000a78 <SystemClock_Config+0x4c>
  \details Disables IRQ interrupts by setting the I-bit in the CPSR.
           Can only be executed in Privileged modes.
 */
__STATIC_FORCEINLINE void __disable_irq(void)
{
  __ASM volatile ("cpsid i" : : : "memory");
 8000a74:	b672      	cpsid	i
	}
}

void Error_Handler(void) {
	__disable_irq();
	while (1) {
 8000a76:	e7fe      	b.n	8000a76 <SystemClock_Config+0x4a>
	RCC_ClkInitStruct.APB1CLKDivider = RCC_HCLK_DIV2;
 8000a78:	4603      	mov	r3, r0
	RCC_ClkInitStruct.ClockType = RCC_CLOCKTYPE_HCLK | RCC_CLOCKTYPE_SYSCLK | RCC_CLOCKTYPE_PCLK1 | RCC_CLOCKTYPE_PCLK2;
 8000a7a:	f04f 080f 	mov.w	r8, #15
 8000a7e:	f04f 0902 	mov.w	r9, #2
 8000a82:	2600      	movs	r6, #0
 8000a84:	f44f 6780 	mov.w	r7, #1024	; 0x400
	if (HAL_RCC_ClockConfig(&RCC_ClkInitStruct, FLASH_LATENCY_2) != HAL_OK) {
 8000a88:	4621      	mov	r1, r4
 8000a8a:	a804      	add	r0, sp, #16
	RCC_ClkInitStruct.APB2CLKDivider = RCC_HCLK_DIV1;
 8000a8c:	9308      	str	r3, [sp, #32]
	RCC_ClkInitStruct.ClockType = RCC_CLOCKTYPE_HCLK | RCC_CLOCKTYPE_SYSCLK | RCC_CLOCKTYPE_PCLK1 | RCC_CLOCKTYPE_PCLK2;
 8000a8e:	e9cd 8904 	strd	r8, r9, [sp, #16]
 8000a92:	e9cd 6706 	strd	r6, r7, [sp, #24]
	if (HAL_RCC_ClockConfig(&RCC_ClkInitStruct, FLASH_LATENCY_2) != HAL_OK) {
 8000a96:	f001 fdaf 	bl	80025f8 <HAL_RCC_ClockConfig>
 8000a9a:	4603      	mov	r3, r0
 8000a9c:	b108      	cbz	r0, 8000aa2 <SystemClock_Config+0x76>
 8000a9e:	b672      	cpsid	i
	while (1) {
 8000aa0:	e7fe      	b.n	8000aa0 <SystemClock_Config+0x74>
	PeriphClkInit.PeriphClockSelection = RCC_PERIPHCLK_USB;
 8000aa2:	2210      	movs	r2, #16
	if (HAL_RCCEx_PeriphCLKConfig(&PeriphClkInit) != HAL_OK) {
 8000aa4:	4668      	mov	r0, sp
	PeriphClkInit.UsbClockSelection = RCC_USBCLKSOURCE_PLL_DIV1_5;
 8000aa6:	9303      	str	r3, [sp, #12]
	PeriphClkInit.PeriphClockSelection = RCC_PERIPHCLK_USB;
 8000aa8:	9200      	str	r2, [sp, #0]
	if (HAL_RCCEx_PeriphCLKConfig(&PeriphClkInit) != HAL_OK) {
 8000aaa:	f001 fe73 	bl	8002794 <HAL_RCCEx_PeriphCLKConfig>
 8000aae:	b108      	cbz	r0, 8000ab4 <SystemClock_Config+0x88>
 8000ab0:	b672      	cpsid	i
	while (1) {
 8000ab2:	e7fe      	b.n	8000ab2 <SystemClock_Config+0x86>
}
 8000ab4:	b014      	add	sp, #80	; 0x50
 8000ab6:	e8bd 83d0 	ldmia.w	sp!, {r4, r6, r7, r8, r9, pc}
 8000aba:	bf00      	nop
 8000abc:	0000      	movs	r0, r0
	...

08000ac0 <main>:
int main(void) {
 8000ac0:	e92d 4ff0 	stmdb	sp!, {r4, r5, r6, r7, r8, r9, sl, fp, lr}
		float m = (128.43 * pow(cu, 0)) - (1.43 * pow(cu, 1)) + (0.00405 * pow(cu, 2));
 8000ac4:	f20f 2b08 	addw	fp, pc, #520	; 0x208
 8000ac8:	e9db ab00 	ldrd	sl, fp, [fp]
 8000acc:	4c86      	ldr	r4, [pc, #536]	; (8000ce8 <main+0x228>)
int main(void) {
 8000ace:	b083      	sub	sp, #12
	TurnLedOn();
 8000ad0:	4625      	mov	r5, r4
	HAL_Init();
 8000ad2:	f000 fb4f 	bl	8001174 <HAL_Init>
	SystemClock_Config();
 8000ad6:	f7ff ffa9 	bl	8000a2c <SystemClock_Config>
	MX_USB_DEVICE_Init();
 8000ada:	f003 fb57 	bl	800418c <MX_USB_DEVICE_Init>
	InitRcc();
 8000ade:	f7ff ff01 	bl	80008e4 <InitRcc>
	InitGpio();
 8000ae2:	f7ff ff2b 	bl	800093c <InitGpio>
	InitSysTick();
 8000ae6:	f000 f957 	bl	8000d98 <InitSysTick>
	TurnLedOff();
 8000aea:	f7ff fe8d 	bl	8000808 <TurnLedOff>
	SetPin(RESET_PIN);
 8000aee:	2100      	movs	r1, #0
 8000af0:	487e      	ldr	r0, [pc, #504]	; (8000cec <main+0x22c>)
 8000af2:	f7ff feed 	bl	80008d0 <SetPin>
	delay_ms(1);
 8000af6:	2001      	movs	r0, #1
 8000af8:	f000 f99c 	bl	8000e34 <delay_ms>
	ResetPin(RESET_PIN);
 8000afc:	2100      	movs	r1, #0
 8000afe:	487b      	ldr	r0, [pc, #492]	; (8000cec <main+0x22c>)
 8000b00:	f7ff feea 	bl	80008d8 <ResetPin>
	delay_ms(1);
 8000b04:	2001      	movs	r0, #1
 8000b06:	f000 f995 	bl	8000e34 <delay_ms>
	InitInterrupt();
 8000b0a:	f7ff ff0f 	bl	800092c <InitInterrupt>
	InitDma((uint8_t*) dma_buf);
 8000b0e:	4878      	ldr	r0, [pc, #480]	; (8000cf0 <main+0x230>)
 8000b10:	f7ff fea0 	bl	8000854 <InitDma>
	InitTim3();
 8000b14:	f000 f96c 	bl	8000df0 <InitTim3>
	InitTim2();
 8000b18:	f000 f94a 	bl	8000db0 <InitTim2>
	TurnLedOn();
 8000b1c:	f7ff fe6e 	bl	80007fc <TurnLedOn>
	for (uint16_t cu = 1; cu < 180; cu++) {
 8000b20:	f1c5 0301 	rsb	r3, r5, #1
 8000b24:	34b3      	adds	r4, #179	; 0xb3
 8000b26:	9301      	str	r3, [sp, #4]
		float m = (128.43 * pow(cu, 0)) - (1.43 * pow(cu, 1)) + (0.00405 * pow(cu, 2));
 8000b28:	9b01      	ldr	r3, [sp, #4]
 8000b2a:	1958      	adds	r0, r3, r5
 8000b2c:	b280      	uxth	r0, r0
 8000b2e:	f7ff fd7b 	bl	8000628 <__aeabi_ui2d>
 8000b32:	a369      	add	r3, pc, #420	; (adr r3, 8000cd8 <main+0x218>)
 8000b34:	e9d3 2300 	ldrd	r2, r3, [r3]
 8000b38:	4680      	mov	r8, r0
 8000b3a:	4689      	mov	r9, r1
 8000b3c:	f7ff fb08 	bl	8000150 <__aeabi_dmul>
 8000b40:	4602      	mov	r2, r0
 8000b42:	460b      	mov	r3, r1
 8000b44:	a166      	add	r1, pc, #408	; (adr r1, 8000ce0 <main+0x220>)
 8000b46:	e9d1 0100 	ldrd	r0, r1, [r1]
 8000b4a:	f7ff fc2f 	bl	80003ac <__aeabi_dsub>
 8000b4e:	4642      	mov	r2, r8
 8000b50:	4606      	mov	r6, r0
 8000b52:	460f      	mov	r7, r1
 8000b54:	464b      	mov	r3, r9
 8000b56:	4640      	mov	r0, r8
 8000b58:	4649      	mov	r1, r9
 8000b5a:	f7ff faf9 	bl	8000150 <__aeabi_dmul>
 8000b5e:	4652      	mov	r2, sl
 8000b60:	465b      	mov	r3, fp
 8000b62:	f7ff faf5 	bl	8000150 <__aeabi_dmul>
 8000b66:	4602      	mov	r2, r0
 8000b68:	460b      	mov	r3, r1
 8000b6a:	4630      	mov	r0, r6
 8000b6c:	4639      	mov	r1, r7
 8000b6e:	f7ff fc1f 	bl	80003b0 <__adddf3>
 8000b72:	f7ff fdd3 	bl	800071c <__aeabi_d2f>
		speed_table[cu] = m;
 8000b76:	f7ff fe21 	bl	80007bc <__aeabi_f2uiz>
 8000b7a:	f805 0f01 	strb.w	r0, [r5, #1]!
	for (uint16_t cu = 1; cu < 180; cu++) {
 8000b7e:	42a5      	cmp	r5, r4
 8000b80:	d1d2      	bne.n	8000b28 <main+0x68>
	speed_table[1] = 127;
 8000b82:	2100      	movs	r1, #0
 8000b84:	4f5b      	ldr	r7, [pc, #364]	; (8000cf4 <main+0x234>)
 8000b86:	207f      	movs	r0, #127	; 0x7f
	int bi = 0;
 8000b88:	460b      	mov	r3, r1
 8000b8a:	463a      	mov	r2, r7
	speed_table[1] = 127;
 8000b8c:	4c56      	ldr	r4, [pc, #344]	; (8000ce8 <main+0x228>)
 8000b8e:	7060      	strb	r0, [r4, #1]
		key_dma[ke][1] = bi;
 8000b90:	b2d8      	uxtb	r0, r3
		bi += 2;
 8000b92:	3302      	adds	r3, #2
			bi = 0;
 8000b94:	2b08      	cmp	r3, #8
		key_dma[ke][0] = ke / 4;
 8000b96:	f3c1 0485 	ubfx	r4, r1, #2, #6
 8000b9a:	f101 0101 	add.w	r1, r1, #1
			bi = 0;
 8000b9e:	bfa8      	it	ge
 8000ba0:	2300      	movge	r3, #0
		key_dma[ke][2] = bi + 1;
 8000ba2:	1c45      	adds	r5, r0, #1
	for (uint8_t ke = 0; ke < 88; ke++) {
 8000ba4:	2958      	cmp	r1, #88	; 0x58
		key_dma[ke][1] = bi;
 8000ba6:	7050      	strb	r0, [r2, #1]
		key_dma[ke][2] = bi + 1;
 8000ba8:	7095      	strb	r5, [r2, #2]
		key_dma[ke][0] = ke / 4;
 8000baa:	7014      	strb	r4, [r2, #0]
	for (uint8_t ke = 0; ke < 88; ke++) {
 8000bac:	f102 0203 	add.w	r2, r2, #3
 8000bb0:	d1ee      	bne.n	8000b90 <main+0xd0>
	TurnLedOff();
 8000bb2:	f7ff fe29 	bl	8000808 <TurnLedOff>
			for (key = 0; key < 88; key++) {
 8000bb6:	f04f 0a00 	mov.w	sl, #0
 8000bba:	4e4f      	ldr	r6, [pc, #316]	; (8000cf8 <main+0x238>)
 8000bbc:	4d4c      	ldr	r5, [pc, #304]	; (8000cf0 <main+0x230>)
 8000bbe:	f8df 8148 	ldr.w	r8, [pc, #328]	; 8000d08 <main+0x248>
 8000bc2:	f8df b148 	ldr.w	fp, [pc, #328]	; 8000d0c <main+0x24c>
					GPIOC->BSRR |= 0x2000;
 8000bc6:	4c4d      	ldr	r4, [pc, #308]	; (8000cfc <main+0x23c>)
		if (IsDataReady()) {
 8000bc8:	f7ff fe5e 	bl	8000888 <IsDataReady>
 8000bcc:	2800      	cmp	r0, #0
 8000bce:	d0fb      	beq.n	8000bc8 <main+0x108>
			for (key = 0; key < 88; key++) {
 8000bd0:	f04f 0c00 	mov.w	ip, #0
							USBD_AddNoteOn(0, 1, key + 21, speed_table[tyy[key] - txx[key]]);
 8000bd4:	f04f 0901 	mov.w	r9, #1
			for (key = 0; key < 88; key++) {
 8000bd8:	f886 a000 	strb.w	sl, [r6]
				if ((dma_buf[17] & 1 << 0) == 0) {
 8000bdc:	7c6b      	ldrb	r3, [r5, #17]
 8000bde:	f013 0f01 	tst.w	r3, #1
					GPIOC->BSRR |= 0x20000000;
 8000be2:	6923      	ldr	r3, [r4, #16]
 8000be4:	bf0c      	ite	eq
 8000be6:	f043 5300 	orreq.w	r3, r3, #536870912	; 0x20000000
					GPIOC->BSRR |= 0x2000;
 8000bea:	f443 5300 	orrne.w	r3, r3, #8192	; 0x2000
 8000bee:	6123      	str	r3, [r4, #16]
				if ((dma_buf[17] & 1 << 1) == 0) {
 8000bf0:	7c6b      	ldrb	r3, [r5, #17]
 8000bf2:	f013 0f02 	tst.w	r3, #2
					GPIOC->BSRR |= 0x40000000;
 8000bf6:	6923      	ldr	r3, [r4, #16]
 8000bf8:	bf0c      	ite	eq
 8000bfa:	f043 4380 	orreq.w	r3, r3, #1073741824	; 0x40000000
					GPIOC->BSRR |= 0x4000;
 8000bfe:	f443 4380 	orrne.w	r3, r3, #16384	; 0x4000
 8000c02:	6123      	str	r3, [r4, #16]
				if ((dma_buf[key_dma[key][0]] & 1 << key_dma[key][1]) == 0) {
 8000c04:	eb0c 034c 	add.w	r3, ip, ip, lsl #1
 8000c08:	5cf9      	ldrb	r1, [r7, r3]
 8000c0a:	18fa      	adds	r2, r7, r3
 8000c0c:	7850      	ldrb	r0, [r2, #1]
 8000c0e:	5c6b      	ldrb	r3, [r5, r1]
 8000c10:	4103      	asrs	r3, r0
 8000c12:	f013 0f01 	tst.w	r3, #1
					if (on[key] == 0) {
 8000c16:	f818 300c 	ldrb.w	r3, [r8, ip]
				if ((dma_buf[key_dma[key][0]] & 1 << key_dma[key][1]) == 0) {
 8000c1a:	d11a      	bne.n	8000c52 <main+0x192>
					if (on[key] == 0) {
 8000c1c:	bb3b      	cbnz	r3, 8000c6e <main+0x1ae>
						if ((sys_tick - tyy[key]) > 500) {
 8000c1e:	4b38      	ldr	r3, [pc, #224]	; (8000d00 <main+0x240>)
 8000c20:	f85b 202c 	ldr.w	r2, [fp, ip, lsl #2]
 8000c24:	681b      	ldr	r3, [r3, #0]
 8000c26:	1a9b      	subs	r3, r3, r2
 8000c28:	f5b3 7ffa 	cmp.w	r3, #500	; 0x1f4
 8000c2c:	d906      	bls.n	8000c3c <main+0x17c>
							txx[key] = sys_tick;
 8000c2e:	4b34      	ldr	r3, [pc, #208]	; (8000d00 <main+0x240>)
 8000c30:	4a34      	ldr	r2, [pc, #208]	; (8000d04 <main+0x244>)
 8000c32:	681b      	ldr	r3, [r3, #0]
							on[key] = 1;
 8000c34:	f808 900c 	strb.w	r9, [r8, ip]
							txx[key] = sys_tick;
 8000c38:	f842 302c 	str.w	r3, [r2, ip, lsl #2]
							on[key] = 1;
 8000c3c:	7833      	ldrb	r3, [r6, #0]
			for (key = 0; key < 88; key++) {
 8000c3e:	f103 0c01 	add.w	ip, r3, #1
 8000c42:	fa5f fc8c 	uxtb.w	ip, ip
 8000c46:	f1bc 0f57 	cmp.w	ip, #87	; 0x57
 8000c4a:	f886 c000 	strb.w	ip, [r6]
 8000c4e:	d9c5      	bls.n	8000bdc <main+0x11c>
 8000c50:	e7ba      	b.n	8000bc8 <main+0x108>
				} else if (on[key] == 1) {
 8000c52:	2b01      	cmp	r3, #1
 8000c54:	d1f2      	bne.n	8000c3c <main+0x17c>
					if (sys_tick - tyy[key] > 500) {
 8000c56:	4b2a      	ldr	r3, [pc, #168]	; (8000d00 <main+0x240>)
 8000c58:	f85b 202c 	ldr.w	r2, [fp, ip, lsl #2]
 8000c5c:	681b      	ldr	r3, [r3, #0]
 8000c5e:	1a9b      	subs	r3, r3, r2
 8000c60:	f5b3 7ffa 	cmp.w	r3, #500	; 0x1f4
 8000c64:	d9ea      	bls.n	8000c3c <main+0x17c>
						on[key] = 0;
 8000c66:	7833      	ldrb	r3, [r6, #0]
 8000c68:	f808 a00c 	strb.w	sl, [r8, ip]
 8000c6c:	e7e7      	b.n	8000c3e <main+0x17e>
					} else if ((dma_buf[key_dma[key][0]] & 1 << key_dma[key][2]) == 0) {
 8000c6e:	5c68      	ldrb	r0, [r5, r1]
 8000c70:	7893      	ldrb	r3, [r2, #2]
 8000c72:	4118      	asrs	r0, r3
 8000c74:	f010 0001 	ands.w	r0, r0, #1
 8000c78:	d1e0      	bne.n	8000c3c <main+0x17c>
						if ((sys_tick - txx[key]) > 1 && (sys_tick - txx[key]) < 180) {
 8000c7a:	4a21      	ldr	r2, [pc, #132]	; (8000d00 <main+0x240>)
 8000c7c:	4921      	ldr	r1, [pc, #132]	; (8000d04 <main+0x244>)
 8000c7e:	6813      	ldr	r3, [r2, #0]
 8000c80:	f851 102c 	ldr.w	r1, [r1, ip, lsl #2]
 8000c84:	1a5b      	subs	r3, r3, r1
 8000c86:	2b01      	cmp	r3, #1
 8000c88:	d9d8      	bls.n	8000c3c <main+0x17c>
 8000c8a:	6813      	ldr	r3, [r2, #0]
 8000c8c:	1a5b      	subs	r3, r3, r1
 8000c8e:	2bb3      	cmp	r3, #179	; 0xb3
 8000c90:	d8d4      	bhi.n	8000c3c <main+0x17c>
							tyy[key] = sys_tick;
 8000c92:	f8d2 e000 	ldr.w	lr, [r2]
							USBD_AddNoteOn(0, 1, key + 21, speed_table[tyy[key] - txx[key]]);
 8000c96:	4b14      	ldr	r3, [pc, #80]	; (8000ce8 <main+0x228>)
 8000c98:	ebae 0101 	sub.w	r1, lr, r1
 8000c9c:	f10c 0215 	add.w	r2, ip, #21
 8000ca0:	5c5b      	ldrb	r3, [r3, r1]
 8000ca2:	b2d2      	uxtb	r2, r2
 8000ca4:	2101      	movs	r1, #1
							tyy[key] = sys_tick;
 8000ca6:	f84b e02c 	str.w	lr, [fp, ip, lsl #2]
							USBD_AddNoteOn(0, 1, key + 21, speed_table[tyy[key] - txx[key]]);
 8000caa:	9001      	str	r0, [sp, #4]
 8000cac:	f000 f998 	bl	8000fe0 <USBD_AddNoteOn>
							USBD_AddNoteOff(0, 1, key + 21);
 8000cb0:	7832      	ldrb	r2, [r6, #0]
 8000cb2:	9801      	ldr	r0, [sp, #4]
 8000cb4:	3215      	adds	r2, #21
 8000cb6:	2101      	movs	r1, #1
 8000cb8:	b2d2      	uxtb	r2, r2
 8000cba:	f000 f9cb 	bl	8001054 <USBD_AddNoteOff>
							USBD_SendMidiMessages();
 8000cbe:	f000 fa05 	bl	80010cc <USBD_SendMidiMessages>
							on[key] = 0;
 8000cc2:	7833      	ldrb	r3, [r6, #0]
 8000cc4:	9801      	ldr	r0, [sp, #4]
 8000cc6:	f808 0003 	strb.w	r0, [r8, r3]
 8000cca:	e7b8      	b.n	8000c3e <main+0x17e>
 8000ccc:	f3af 8000 	nop.w
 8000cd0:	98c7e282 	.word	0x98c7e282
 8000cd4:	3f7096bb 	.word	0x3f7096bb
 8000cd8:	ae147ae1 	.word	0xae147ae1
 8000cdc:	3ff6e147 	.word	0x3ff6e147
 8000ce0:	8f5c28f6 	.word	0x8f5c28f6
 8000ce4:	40600dc2 	.word	0x40600dc2
 8000ce8:	20000280 	.word	0x20000280
 8000cec:	40010c00 	.word	0x40010c00
 8000cf0:	20000644 	.word	0x20000644
 8000cf4:	20000120 	.word	0x20000120
 8000cf8:	2000011d 	.word	0x2000011d
 8000cfc:	40011000 	.word	0x40011000
 8000d00:	200005f4 	.word	0x200005f4
 8000d04:	20000334 	.word	0x20000334
 8000d08:	20000228 	.word	0x20000228
 8000d0c:	20000494 	.word	0x20000494

08000d10 <Error_Handler>:
 8000d10:	b672      	cpsid	i
	while (1) {
 8000d12:	e7fe      	b.n	8000d12 <Error_Handler+0x2>

08000d14 <HAL_MspInit>:
{
  /* USER CODE BEGIN MspInit 0 */

  /* USER CODE END MspInit 0 */

  __HAL_RCC_AFIO_CLK_ENABLE();
 8000d14:	4b0e      	ldr	r3, [pc, #56]	; (8000d50 <HAL_MspInit+0x3c>)
{
 8000d16:	b082      	sub	sp, #8
  __HAL_RCC_AFIO_CLK_ENABLE();
 8000d18:	699a      	ldr	r2, [r3, #24]

  /* System interrupt init*/

  /** NOJTAG: JTAG-DP Disabled and SW-DP Enabled
  */
  __HAL_AFIO_REMAP_SWJ_NOJTAG();
 8000d1a:	490e      	ldr	r1, [pc, #56]	; (8000d54 <HAL_MspInit+0x40>)
  __HAL_RCC_AFIO_CLK_ENABLE();
 8000d1c:	f042 0201 	orr.w	r2, r2, #1
 8000d20:	619a      	str	r2, [r3, #24]
 8000d22:	699a      	ldr	r2, [r3, #24]
 8000d24:	f002 0201 	and.w	r2, r2, #1
 8000d28:	9200      	str	r2, [sp, #0]
 8000d2a:	9a00      	ldr	r2, [sp, #0]
  __HAL_RCC_PWR_CLK_ENABLE();
 8000d2c:	69da      	ldr	r2, [r3, #28]
 8000d2e:	f042 5280 	orr.w	r2, r2, #268435456	; 0x10000000
 8000d32:	61da      	str	r2, [r3, #28]
 8000d34:	69db      	ldr	r3, [r3, #28]
 8000d36:	f003 5380 	and.w	r3, r3, #268435456	; 0x10000000
 8000d3a:	9301      	str	r3, [sp, #4]
 8000d3c:	9b01      	ldr	r3, [sp, #4]
  __HAL_AFIO_REMAP_SWJ_NOJTAG();
 8000d3e:	684b      	ldr	r3, [r1, #4]
 8000d40:	f023 63e0 	bic.w	r3, r3, #117440512	; 0x7000000
 8000d44:	f043 7300 	orr.w	r3, r3, #33554432	; 0x2000000
 8000d48:	604b      	str	r3, [r1, #4]

  /* USER CODE BEGIN MspInit 1 */

  /* USER CODE END MspInit 1 */
}
 8000d4a:	b002      	add	sp, #8
 8000d4c:	4770      	bx	lr
 8000d4e:	bf00      	nop
 8000d50:	40021000 	.word	0x40021000
 8000d54:	40010000 	.word	0x40010000

08000d58 <NMI_Handler>:
{
  /* USER CODE BEGIN NonMaskableInt_IRQn 0 */

  /* USER CODE END NonMaskableInt_IRQn 0 */
  /* USER CODE BEGIN NonMaskableInt_IRQn 1 */
  while (1)
 8000d58:	e7fe      	b.n	8000d58 <NMI_Handler>
 8000d5a:	bf00      	nop

08000d5c <HardFault_Handler>:
void HardFault_Handler(void)
{
  /* USER CODE BEGIN HardFault_IRQn 0 */

  /* USER CODE END HardFault_IRQn 0 */
  while (1)
 8000d5c:	e7fe      	b.n	8000d5c <HardFault_Handler>
 8000d5e:	bf00      	nop

08000d60 <MemManage_Handler>:
void MemManage_Handler(void)
{
  /* USER CODE BEGIN MemoryManagement_IRQn 0 */

  /* USER CODE END MemoryManagement_IRQn 0 */
  while (1)
 8000d60:	e7fe      	b.n	8000d60 <MemManage_Handler>
 8000d62:	bf00      	nop

08000d64 <BusFault_Handler>:
void BusFault_Handler(void)
{
  /* USER CODE BEGIN BusFault_IRQn 0 */

  /* USER CODE END BusFault_IRQn 0 */
  while (1)
 8000d64:	e7fe      	b.n	8000d64 <BusFault_Handler>
 8000d66:	bf00      	nop

08000d68 <UsageFault_Handler>:
void UsageFault_Handler(void)
{
  /* USER CODE BEGIN UsageFault_IRQn 0 */

  /* USER CODE END UsageFault_IRQn 0 */
  while (1)
 8000d68:	e7fe      	b.n	8000d68 <UsageFault_Handler>
 8000d6a:	bf00      	nop

08000d6c <SVC_Handler>:

  /* USER CODE END SVCall_IRQn 0 */
  /* USER CODE BEGIN SVCall_IRQn 1 */

  /* USER CODE END SVCall_IRQn 1 */
}
 8000d6c:	4770      	bx	lr
 8000d6e:	bf00      	nop

08000d70 <DebugMon_Handler>:
 8000d70:	4770      	bx	lr
 8000d72:	bf00      	nop

08000d74 <PendSV_Handler>:
 8000d74:	4770      	bx	lr
 8000d76:	bf00      	nop

08000d78 <USB_LP_CAN1_RX0_IRQHandler>:
void USB_LP_CAN1_RX0_IRQHandler(void)
{
  /* USER CODE BEGIN USB_LP_CAN1_RX0_IRQn 0 */

  /* USER CODE END USB_LP_CAN1_RX0_IRQn 0 */
  HAL_PCD_IRQHandler(&hpcd_USB_FS);
 8000d78:	4801      	ldr	r0, [pc, #4]	; (8000d80 <USB_LP_CAN1_RX0_IRQHandler+0x8>)
 8000d7a:	f000 bb19 	b.w	80013b0 <HAL_PCD_IRQHandler>
 8000d7e:	bf00      	nop
 8000d80:	20001380 	.word	0x20001380

08000d84 <SystemInit>:

  /* Configure the Vector Table location -------------------------------------*/
#if defined(USER_VECT_TAB_ADDRESS)
  SCB->VTOR = VECT_TAB_BASE_ADDRESS | VECT_TAB_OFFSET; /* Vector Table Relocation in Internal SRAM. */
#endif /* USER_VECT_TAB_ADDRESS */
}
 8000d84:	4770      	bx	lr
 8000d86:	bf00      	nop

08000d88 <SysTick_Handler>:
volatile uint32_t sys_tick = 0;

// SysTick timer interrupt
void SysTick_Handler()
{
	sys_tick++;										// every 1ms
 8000d88:	4a02      	ldr	r2, [pc, #8]	; (8000d94 <SysTick_Handler+0xc>)
 8000d8a:	6813      	ldr	r3, [r2, #0]
 8000d8c:	3301      	adds	r3, #1
 8000d8e:	6013      	str	r3, [r2, #0]
}
 8000d90:	4770      	bx	lr
 8000d92:	bf00      	nop
 8000d94:	200005f4 	.word	0x200005f4

08000d98 <InitSysTick>:
void InitSysTick(void)
{
	SysTick->LOAD = SYS_TIMER_TICK;
 8000d98:	f641 401f 	movw	r0, #7199	; 0x1c1f
	SysTick->VAL = 0;
 8000d9c:	2100      	movs	r1, #0
	SysTick->CTRL =	SysTick_CTRL_CLKSOURCE_Msk |
 8000d9e:	2207      	movs	r2, #7
	SysTick->LOAD = SYS_TIMER_TICK;
 8000da0:	4b02      	ldr	r3, [pc, #8]	; (8000dac <InitSysTick+0x14>)
 8000da2:	6058      	str	r0, [r3, #4]
	SysTick->VAL = 0;
 8000da4:	6099      	str	r1, [r3, #8]
	SysTick->CTRL =	SysTick_CTRL_CLKSOURCE_Msk |
 8000da6:	601a      	str	r2, [r3, #0]
	SysTick_CTRL_TICKINT_Msk	|					// interrupt enable
	SysTick_CTRL_ENABLE_Msk;
}
 8000da8:	4770      	bx	lr
 8000daa:	bf00      	nop
 8000dac:	e000e010 	.word	0xe000e010

08000db0 <InitTim2>:
void ResetCounter(uint32_t* cnt)
{
    *cnt = sys_tick;
}
void InitTim2(void)
{
 8000db0:	b4f0      	push	{r4, r5, r6, r7}
	// Timer
	TIM2->CR1 = TIM_CR1_ARPE	* 0 |	// Auto-reload preload enable
 8000db2:	f04f 4380 	mov.w	r3, #1073741824	; 0x40000000
				TIM_CR1_CMS_1	* 0 |	// Center-aligned mode selection : edge-aligned mode
				TIM_CR1_CMS_0	* 0 |
				TIM_CR1_DIR		* 0;	// Direction : upcounter
	TIM2->PSC = 35;                     // CK_CNT = 2MHz
	TIM2->ARR = PHASE_PULSE - 1;        // 16us period
	TIM2->EGR = TIM_EGR_UG;             // update event enable
 8000db6:	2201      	movs	r2, #1
	TIM2->PSC = 35;                     // CK_CNT = 2MHz
 8000db8:	2723      	movs	r7, #35	; 0x23
	TIM2->ARR = PHASE_PULSE - 1;        // 16us period
 8000dba:	211f      	movs	r1, #31
	// DMA
	//TIM2->DIER  |= TIM_DIER_UDE;        // update DMA request enable
	// PWM
	TIM2->CCMR2 =	TIM_CCMR2_OC3M_2	* 1 |   // C3 PWM mode 2 (inactive -> active)
 8000dbc:	f247 0670 	movw	r6, #28784	; 0x7070
					TIM_CCMR2_OC3M_1	* 1 |
                    TIM_CCMR2_OC3M_0    * 1 |
                    TIM_CCMR2_OC4M_2    * 1 |   // C4 PWM mode 2 (inactive -> active)
                    TIM_CCMR2_OC4M_1    * 1 |
                    TIM_CCMR2_OC4M_0    * 1;
    TIM2->CCER  =   TIM_CCER_CC3E       * 1 |   // C3 out enable
 8000dc0:	f44f 5544 	mov.w	r5, #12544	; 0x3100
                    TIM_CCER_CC3P       * 0 |   // C3 active high
                    TIM_CCER_CC4E       * 1 |   // C4 out enable
                    TIM_CCER_CC4P       * 1;    // C4 active low
    
    TIM2->CCR3  = PHASE_PULSE - UNLOCK_PULSE;   // start register unlock pulse at 15 us
 8000dc4:	241e      	movs	r4, #30
	TIM2->CR1 = TIM_CR1_ARPE	* 0 |	// Auto-reload preload enable
 8000dc6:	f04f 0c00 	mov.w	ip, #0
    TIM2->CCR4  = PHASE_PULSE - LOCK_PULSE;     // end register unlock pulse at 15.5 us
    
    // Trigger output TRGO1 (active signal while TIM2 enabled)
    TIM2->CR2   =   TIM_CR2_MMS_2       * 0 |   // CNT_EN signal as trigger
 8000dca:	2010      	movs	r0, #16
	TIM2->CR1 = TIM_CR1_ARPE	* 0 |	// Auto-reload preload enable
 8000dcc:	f8c3 c000 	str.w	ip, [r3]
	TIM2->PSC = 35;                     // CK_CNT = 2MHz
 8000dd0:	629f      	str	r7, [r3, #40]	; 0x28
	TIM2->ARR = PHASE_PULSE - 1;        // 16us period
 8000dd2:	62d9      	str	r1, [r3, #44]	; 0x2c
	TIM2->EGR = TIM_EGR_UG;             // update event enable
 8000dd4:	615a      	str	r2, [r3, #20]
	TIM2->CCMR2 =	TIM_CCMR2_OC3M_2	* 1 |   // C3 PWM mode 2 (inactive -> active)
 8000dd6:	61de      	str	r6, [r3, #28]
    TIM2->CCER  =   TIM_CCER_CC3E       * 1 |   // C3 out enable
 8000dd8:	621d      	str	r5, [r3, #32]
    TIM2->CCR3  = PHASE_PULSE - UNLOCK_PULSE;   // start register unlock pulse at 15 us
 8000dda:	63dc      	str	r4, [r3, #60]	; 0x3c
    TIM2->CCR4  = PHASE_PULSE - LOCK_PULSE;     // end register unlock pulse at 15.5 us
 8000ddc:	6419      	str	r1, [r3, #64]	; 0x40
    TIM2->CR2   =   TIM_CR2_MMS_2       * 0 |   // CNT_EN signal as trigger
 8000dde:	6058      	str	r0, [r3, #4]
                    TIM_CR2_MMS_1       * 0 |
                    TIM_CR2_MMS_0       * 1;
    
    // Start
    TIM2->EGR = TIM_EGR_UG;         // update
 8000de0:	615a      	str	r2, [r3, #20]
    TIM2->CR1 |= TIM_CR1_CEN;       // start
 8000de2:	681a      	ldr	r2, [r3, #0]
    
}
 8000de4:	bcf0      	pop	{r4, r5, r6, r7}
    TIM2->CR1 |= TIM_CR1_CEN;       // start
 8000de6:	f042 0201 	orr.w	r2, r2, #1
 8000dea:	601a      	str	r2, [r3, #0]
}
 8000dec:	4770      	bx	lr
 8000dee:	bf00      	nop

08000df0 <InitTim3>:
void InitTim3(void)
{
 8000df0:	b4f0      	push	{r4, r5, r6, r7}
                TIM_CR1_CMS_1   * 0 |   // Center-aligned mode selection : edge-aligned mode
                TIM_CR1_CMS_0   * 0 |
                TIM_CR1_DIR     * 0;    // Direction : upcounter
    TIM3->PSC = 35;                     // CK_CNT = 2MHz
    TIM3->ARR = MUX_PULSE - 1;          // 1MHz
    TIM3->EGR = TIM_EGR_UG;             // update event enable
 8000df2:	2101      	movs	r1, #1
    TIM3->PSC = 35;                     // CK_CNT = 2MHz
 8000df4:	2723      	movs	r7, #35	; 0x23
    TIM3->ARR = MUX_PULSE - 1;          // 1MHz
 8000df6:	2203      	movs	r2, #3
    TIM3->CR1 = TIM_CR1_ARPE    * 0 |   // Auto-reload preload enable
 8000df8:	f04f 0c00 	mov.w	ip, #0
    TIM3->DIER  |= TIM_DIER_CC4DE;        // C4 DMA request enable
    // PWM
    TIM3->CCMR2 =   TIM_CCMR2_OC4M_2    * 1 |   // C4 PWM mode 1 (active -> inactive)
                    TIM_CCMR2_OC4M_1    * 1 |
                    TIM_CCMR2_OC4M_0    * 0;
    TIM3->CCER  =   TIM_CCER_CC4E       * 1 |   // C4 out enable
 8000dfc:	f44f 5580 	mov.w	r5, #4096	; 0x1000
    TIM3->CCMR2 =   TIM_CCMR2_OC4M_2    * 1 |   // C4 PWM mode 1 (active -> inactive)
 8000e00:	f44f 46c0 	mov.w	r6, #24576	; 0x6000
                    TIM_CCER_CC4P       * 0;    // C4 active high
    
    TIM3->CCR4  = MUX_PULSE / 2;        // 50%
 8000e04:	2402      	movs	r4, #2

    // Slave mode
    TIM3->SMCR  =   TIM_SMCR_TS_2       * 0 |   // internal trigger 1 (TIM2)
 8000e06:	2015      	movs	r0, #21
    TIM3->CR1 = TIM_CR1_ARPE    * 0 |   // Auto-reload preload enable
 8000e08:	4b09      	ldr	r3, [pc, #36]	; (8000e30 <InitTim3+0x40>)
 8000e0a:	f8c3 c000 	str.w	ip, [r3]
    TIM3->PSC = 35;                     // CK_CNT = 2MHz
 8000e0e:	629f      	str	r7, [r3, #40]	; 0x28
    TIM3->ARR = MUX_PULSE - 1;          // 1MHz
 8000e10:	62da      	str	r2, [r3, #44]	; 0x2c
    TIM3->EGR = TIM_EGR_UG;             // update event enable
 8000e12:	6159      	str	r1, [r3, #20]
    TIM3->DIER  |= TIM_DIER_CC4DE;        // C4 DMA request enable
 8000e14:	68da      	ldr	r2, [r3, #12]
 8000e16:	432a      	orrs	r2, r5
 8000e18:	60da      	str	r2, [r3, #12]
    TIM3->CCMR2 =   TIM_CCMR2_OC4M_2    * 1 |   // C4 PWM mode 1 (active -> inactive)
 8000e1a:	61de      	str	r6, [r3, #28]
    TIM3->CCER  =   TIM_CCER_CC4E       * 1 |   // C4 out enable
 8000e1c:	621d      	str	r5, [r3, #32]
    TIM3->CCR4  = MUX_PULSE / 2;        // 50%
 8000e1e:	641c      	str	r4, [r3, #64]	; 0x40
    TIM3->SMCR  =   TIM_SMCR_TS_2       * 0 |   // internal trigger 1 (TIM2)
 8000e20:	6098      	str	r0, [r3, #8]
                    TIM_SMCR_SMS_2      * 1 |   // gated mode
                    TIM_SMCR_SMS_1      * 0 |
                    TIM_SMCR_SMS_0      * 1;
    
    // Start
    TIM3->EGR = TIM_EGR_UG;         // update
 8000e22:	6159      	str	r1, [r3, #20]
    TIM3->CR1 |= TIM_CR1_CEN;       // start
 8000e24:	681a      	ldr	r2, [r3, #0]
    
}
 8000e26:	bcf0      	pop	{r4, r5, r6, r7}
    TIM3->CR1 |= TIM_CR1_CEN;       // start
 8000e28:	430a      	orrs	r2, r1
 8000e2a:	601a      	str	r2, [r3, #0]
}
 8000e2c:	4770      	bx	lr
 8000e2e:	bf00      	nop
 8000e30:	40000400 	.word	0x40000400

08000e34 <delay_ms>:
    //TIM2->CCER &= ~TIM_CCER_CC1E;   // out disable
}*/

// Delay TIM4
void delay_ms(int time)
{
 8000e34:	b430      	push	{r4, r5}
    TIM4->CR1 = 0;
    TIM4->SR = 0;
    TIM4->PSC = 35999;                  // 2kHz
    TIM4->ARR = time * 2 - 1;
    TIM4->EGR = TIM_EGR_UG;
 8000e36:	2401      	movs	r4, #1
    TIM4->CR1 = 0;
 8000e38:	2100      	movs	r1, #0
    TIM4->PSC = 35999;                  // 2kHz
 8000e3a:	f648 459f 	movw	r5, #35999	; 0x8c9f
    TIM4->CR1 = 0;
 8000e3e:	4b0c      	ldr	r3, [pc, #48]	; (8000e70 <delay_ms+0x3c>)
    TIM4->ARR = time * 2 - 1;
 8000e40:	40a0      	lsls	r0, r4
    TIM4->SR &= ~TIM_SR_UIF;
    TIM4->CR1 |= TIM_CR1_CEN;
    while (!(TIM4->SR & TIM_SR_UIF))
 8000e42:	461a      	mov	r2, r3
    TIM4->ARR = time * 2 - 1;
 8000e44:	3801      	subs	r0, #1
    TIM4->CR1 = 0;
 8000e46:	6019      	str	r1, [r3, #0]
    TIM4->SR = 0;
 8000e48:	6119      	str	r1, [r3, #16]
    TIM4->PSC = 35999;                  // 2kHz
 8000e4a:	629d      	str	r5, [r3, #40]	; 0x28
    TIM4->ARR = time * 2 - 1;
 8000e4c:	62d8      	str	r0, [r3, #44]	; 0x2c
    TIM4->EGR = TIM_EGR_UG;
 8000e4e:	615c      	str	r4, [r3, #20]
    TIM4->SR &= ~TIM_SR_UIF;
 8000e50:	6919      	ldr	r1, [r3, #16]
 8000e52:	f021 0101 	bic.w	r1, r1, #1
 8000e56:	6119      	str	r1, [r3, #16]
    TIM4->CR1 |= TIM_CR1_CEN;
 8000e58:	6819      	ldr	r1, [r3, #0]
 8000e5a:	4321      	orrs	r1, r4
 8000e5c:	6019      	str	r1, [r3, #0]
    while (!(TIM4->SR & TIM_SR_UIF))
 8000e5e:	6913      	ldr	r3, [r2, #16]
 8000e60:	07db      	lsls	r3, r3, #31
 8000e62:	d5fc      	bpl.n	8000e5e <delay_ms+0x2a>
        ;
    TIM4->CR1 &= ~TIM_CR1_CEN;
}
 8000e64:	bc30      	pop	{r4, r5}
    TIM4->CR1 &= ~TIM_CR1_CEN;
 8000e66:	6813      	ldr	r3, [r2, #0]
 8000e68:	f023 0301 	bic.w	r3, r3, #1
 8000e6c:	6013      	str	r3, [r2, #0]
}
 8000e6e:	4770      	bx	lr
 8000e70:	40000800 	.word	0x40000800

08000e74 <USBD_MIDI_GetCfgDesc>:
  USBD_LL_PrepareReceive(pdev, MIDI_OUT_EP, (uint8_t*)(USB_Rx_Buffer), MIDI_DATA_OUT_PACKET_SIZE);
  return USBD_OK;
 }

static uint8_t *USBD_MIDI_GetCfgDesc (uint16_t *length)
 {
 8000e74:	4603      	mov	r3, r0
  *length = sizeof (USBD_MIDI_CfgDesc);
 8000e76:	2265      	movs	r2, #101	; 0x65
  return USBD_MIDI_CfgDesc;
 }
 8000e78:	4801      	ldr	r0, [pc, #4]	; (8000e80 <USBD_MIDI_GetCfgDesc+0xc>)
  *length = sizeof (USBD_MIDI_CfgDesc);
 8000e7a:	801a      	strh	r2, [r3, #0]
 }
 8000e7c:	4770      	bx	lr
 8000e7e:	bf00      	nop
 8000e80:	2000003c 	.word	0x2000003c

08000e84 <USBD_MIDI_DataOut>:
  USB_Rx_Cnt = ((PCD_HandleTypeDef*)pdev->pData)->OUT_ep[epnum].xfer_count;
 8000e84:	f8d0 32c0 	ldr.w	r3, [r0, #704]	; 0x2c0
 8000e88:	eb01 0181 	add.w	r1, r1, r1, lsl #2
 8000e8c:	eb03 01c1 	add.w	r1, r3, r1, lsl #3
 8000e90:	f8b1 1184 	ldrh.w	r1, [r1, #388]	; 0x184
 {
 8000e94:	b510      	push	{r4, lr}
 8000e96:	4604      	mov	r4, r0
  if (USB_Rx_Cnt > 0) //  -   ,   ,    
 8000e98:	b121      	cbz	r1, 8000ea4 <USBD_MIDI_DataOut+0x20>
    pmidi->pIf_MidiRx((uint8_t *)&USB_Rx_Buffer, USB_Rx_Cnt);
 8000e9a:	f8d0 32bc 	ldr.w	r3, [r0, #700]	; 0x2bc
 8000e9e:	4805      	ldr	r0, [pc, #20]	; (8000eb4 <USBD_MIDI_DataOut+0x30>)
 8000ea0:	681b      	ldr	r3, [r3, #0]
 8000ea2:	4798      	blx	r3
  USBD_LL_PrepareReceive(pdev, MIDI_OUT_EP, (uint8_t*)(USB_Rx_Buffer), MIDI_DATA_OUT_PACKET_SIZE);
 8000ea4:	4620      	mov	r0, r4
 8000ea6:	2340      	movs	r3, #64	; 0x40
 8000ea8:	2101      	movs	r1, #1
 8000eaa:	4a02      	ldr	r2, [pc, #8]	; (8000eb4 <USBD_MIDI_DataOut+0x30>)
 8000eac:	f003 fb90 	bl	80045d0 <USBD_LL_PrepareReceive>
 }
 8000eb0:	2000      	movs	r0, #0
 8000eb2:	bd10      	pop	{r4, pc}
 8000eb4:	20000678 	.word	0x20000678

08000eb8 <USBD_MIDI_DeInit>:
static uint8_t USBD_MIDI_DeInit (USBD_HandleTypeDef *pdev, uint8_t cfgidx){
 8000eb8:	b538      	push	{r3, r4, r5, lr}
  pInstance = NULL;
 8000eba:	2500      	movs	r5, #0
static uint8_t USBD_MIDI_DeInit (USBD_HandleTypeDef *pdev, uint8_t cfgidx){
 8000ebc:	4604      	mov	r4, r0
  pInstance = NULL;
 8000ebe:	4b05      	ldr	r3, [pc, #20]	; (8000ed4 <USBD_MIDI_DeInit+0x1c>)
  USBD_LL_CloseEP(pdev,MIDI_IN_EP);
 8000ec0:	2181      	movs	r1, #129	; 0x81
  pInstance = NULL;
 8000ec2:	601d      	str	r5, [r3, #0]
  USBD_LL_CloseEP(pdev,MIDI_IN_EP);
 8000ec4:	f003 fb2a 	bl	800451c <USBD_LL_CloseEP>
  USBD_LL_CloseEP(pdev,MIDI_OUT_EP);
 8000ec8:	4620      	mov	r0, r4
 8000eca:	2101      	movs	r1, #1
 8000ecc:	f003 fb26 	bl	800451c <USBD_LL_CloseEP>
}
 8000ed0:	4628      	mov	r0, r5
 8000ed2:	bd38      	pop	{r3, r4, r5, pc}
 8000ed4:	20000608 	.word	0x20000608

08000ed8 <USBD_MIDI_Init>:
static uint8_t USBD_MIDI_Init(USBD_HandleTypeDef *pdev, uint8_t cfgidx){
 8000ed8:	b538      	push	{r3, r4, r5, lr}
 8000eda:	4604      	mov	r4, r0
  pInstance = pdev;
 8000edc:	4d0a      	ldr	r5, [pc, #40]	; (8000f08 <USBD_MIDI_Init+0x30>)
  USBD_LL_OpenEP(pdev,MIDI_IN_EP,USBD_EP_TYPE_BULK,MIDI_DATA_IN_PACKET_SIZE);
 8000ede:	2340      	movs	r3, #64	; 0x40
 8000ee0:	2202      	movs	r2, #2
 8000ee2:	2181      	movs	r1, #129	; 0x81
  pInstance = pdev;
 8000ee4:	6028      	str	r0, [r5, #0]
  USBD_LL_OpenEP(pdev,MIDI_IN_EP,USBD_EP_TYPE_BULK,MIDI_DATA_IN_PACKET_SIZE);
 8000ee6:	f003 fb09 	bl	80044fc <USBD_LL_OpenEP>
  USBD_LL_OpenEP(pdev,MIDI_OUT_EP,USBD_EP_TYPE_BULK,MIDI_DATA_OUT_PACKET_SIZE);
 8000eea:	4620      	mov	r0, r4
 8000eec:	2340      	movs	r3, #64	; 0x40
 8000eee:	2202      	movs	r2, #2
 8000ef0:	2101      	movs	r1, #1
 8000ef2:	f003 fb03 	bl	80044fc <USBD_LL_OpenEP>
  USBD_LL_PrepareReceive(pdev,MIDI_OUT_EP,(uint8_t*)(USB_Rx_Buffer),MIDI_DATA_OUT_PACKET_SIZE);
 8000ef6:	4620      	mov	r0, r4
 8000ef8:	2340      	movs	r3, #64	; 0x40
 8000efa:	2101      	movs	r1, #1
 8000efc:	4a03      	ldr	r2, [pc, #12]	; (8000f0c <USBD_MIDI_Init+0x34>)
 8000efe:	f003 fb67 	bl	80045d0 <USBD_LL_PrepareReceive>
}
 8000f02:	2000      	movs	r0, #0
 8000f04:	bd38      	pop	{r3, r4, r5, pc}
 8000f06:	bf00      	nop
 8000f08:	20000608 	.word	0x20000608
 8000f0c:	20000678 	.word	0x20000678

08000f10 <USBD_MIDI_DataIn>:
  if (APP_Rx_length != 0)
 8000f10:	4b07      	ldr	r3, [pc, #28]	; (8000f30 <USBD_MIDI_DataIn+0x20>)
 8000f12:	681b      	ldr	r3, [r3, #0]
 8000f14:	b93b      	cbnz	r3, 8000f26 <USBD_MIDI_DataIn+0x16>
    APP_Rx_ptr_in = 0;
 8000f16:	4a07      	ldr	r2, [pc, #28]	; (8000f34 <USBD_MIDI_DataIn+0x24>)
    APP_Rx_ptr_out = 0;
 8000f18:	4907      	ldr	r1, [pc, #28]	; (8000f38 <USBD_MIDI_DataIn+0x28>)
    APP_Rx_ptr_in = 0;
 8000f1a:	6013      	str	r3, [r2, #0]
 8000f1c:	4a07      	ldr	r2, [pc, #28]	; (8000f3c <USBD_MIDI_DataIn+0x2c>)
}
 8000f1e:	2000      	movs	r0, #0
    APP_Rx_ptr_out = 0;
 8000f20:	600b      	str	r3, [r1, #0]
    USB_Tx_State = USB_TX_READY;
 8000f22:	7013      	strb	r3, [r2, #0]
}
 8000f24:	4770      	bx	lr
    USB_Tx_State = USB_TX_CONTINUE;
 8000f26:	2302      	movs	r3, #2
 8000f28:	4a04      	ldr	r2, [pc, #16]	; (8000f3c <USBD_MIDI_DataIn+0x2c>)
}
 8000f2a:	2000      	movs	r0, #0
 8000f2c:	7013      	strb	r3, [r2, #0]
 8000f2e:	4770      	bx	lr
 8000f30:	200005f8 	.word	0x200005f8
 8000f34:	200005fc 	.word	0x200005fc
 8000f38:	20000600 	.word	0x20000600
 8000f3c:	20000604 	.word	0x20000604

08000f40 <USBD_MIDI_RegisterInterface>:

uint8_t USBD_MIDI_RegisterInterface(USBD_HandleTypeDef *pdev, USBD_MIDI_ItfTypeDef *fops)
{
  uint8_t ret = USBD_FAIL;
  
  if(fops != NULL)
 8000f40:	b119      	cbz	r1, 8000f4a <USBD_MIDI_RegisterInterface+0xa>
   {
    pdev->pUserData= fops;
 8000f42:	f8c0 12bc 	str.w	r1, [r0, #700]	; 0x2bc
    ret = USBD_OK;    
 8000f46:	2000      	movs	r0, #0
 8000f48:	4770      	bx	lr
  uint8_t ret = USBD_FAIL;
 8000f4a:	2002      	movs	r0, #2
   }
  
  return ret;
}
 8000f4c:	4770      	bx	lr
 8000f4e:	bf00      	nop

08000f50 <USBD_MIDI_SendPacket>:
//MIDI TX START FUNCTION
void USBD_MIDI_SendPacket()
{
 uint16_t USB_Tx_ptr;
 uint16_t USB_Tx_length;
 if (APP_Rx_ptr_out == APP_RX_DATA_SIZE)
 8000f50:	4819      	ldr	r0, [pc, #100]	; (8000fb8 <USBD_MIDI_SendPacket+0x68>)
 8000f52:	6801      	ldr	r1, [r0, #0]
 8000f54:	f5b1 6f00 	cmp.w	r1, #2048	; 0x800
 8000f58:	d01c      	beq.n	8000f94 <USBD_MIDI_SendPacket+0x44>
  {
   APP_Rx_ptr_out = 0;
  }

 if(APP_Rx_ptr_out == APP_Rx_ptr_in)
 8000f5a:	4b18      	ldr	r3, [pc, #96]	; (8000fbc <USBD_MIDI_SendPacket+0x6c>)
 8000f5c:	681b      	ldr	r3, [r3, #0]
 8000f5e:	4299      	cmp	r1, r3
 8000f60:	d026      	beq.n	8000fb0 <USBD_MIDI_SendPacket+0x60>
  {
   USB_Tx_State = USB_TX_READY;
   return;
  }

 if(APP_Rx_ptr_out > APP_Rx_ptr_in)
 8000f62:	d91c      	bls.n	8000f9e <USBD_MIDI_SendPacket+0x4e>
  {
   APP_Rx_length = APP_RX_DATA_SIZE - APP_Rx_ptr_out;
 8000f64:	f5c1 6300 	rsb	r3, r1, #2048	; 0x800
 else
  {
   APP_Rx_length = APP_Rx_ptr_in - APP_Rx_ptr_out;
  }

 if (APP_Rx_length > MIDI_DATA_IN_PACKET_SIZE)
 8000f68:	2b40      	cmp	r3, #64	; 0x40
{
 8000f6a:	b470      	push	{r4, r5, r6}
 if (APP_Rx_length > MIDI_DATA_IN_PACKET_SIZE)
 8000f6c:	d91b      	bls.n	8000fa6 <USBD_MIDI_SendPacket+0x56>
  {
   USB_Tx_ptr = APP_Rx_ptr_out;
   USB_Tx_length   = MIDI_DATA_IN_PACKET_SIZE;
   APP_Rx_ptr_out += MIDI_DATA_IN_PACKET_SIZE;
   APP_Rx_length  -= MIDI_DATA_IN_PACKET_SIZE;
 8000f6e:	f1a3 0540 	sub.w	r5, r3, #64	; 0x40
   USB_Tx_length   = MIDI_DATA_IN_PACKET_SIZE;
 8000f72:	2340      	movs	r3, #64	; 0x40
   USB_Tx_ptr = APP_Rx_ptr_out;
 8000f74:	b28a      	uxth	r2, r1
   APP_Rx_ptr_out += MIDI_DATA_IN_PACKET_SIZE;
 8000f76:	3140      	adds	r1, #64	; 0x40
   USB_Tx_length   = APP_Rx_length;
   APP_Rx_ptr_out += APP_Rx_length;
   APP_Rx_length   = 0;
  }

 USB_Tx_State = USB_TX_BUSY;
 8000f78:	2401      	movs	r4, #1
 USBD_LL_Transmit(pInstance, MIDI_IN_EP, &APP_Rx_Buffer[USB_Tx_ptr], USB_Tx_length);
 8000f7a:	4e11      	ldr	r6, [pc, #68]	; (8000fc0 <USBD_MIDI_SendPacket+0x70>)
 8000f7c:	6001      	str	r1, [r0, #0]
 USB_Tx_State = USB_TX_BUSY;
 8000f7e:	4911      	ldr	r1, [pc, #68]	; (8000fc4 <USBD_MIDI_SendPacket+0x74>)
 USBD_LL_Transmit(pInstance, MIDI_IN_EP, &APP_Rx_Buffer[USB_Tx_ptr], USB_Tx_length);
 8000f80:	4432      	add	r2, r6
 USB_Tx_State = USB_TX_BUSY;
 8000f82:	700c      	strb	r4, [r1, #0]
 USBD_LL_Transmit(pInstance, MIDI_IN_EP, &APP_Rx_Buffer[USB_Tx_ptr], USB_Tx_length);
 8000f84:	4e10      	ldr	r6, [pc, #64]	; (8000fc8 <USBD_MIDI_SendPacket+0x78>)
 8000f86:	4c11      	ldr	r4, [pc, #68]	; (8000fcc <USBD_MIDI_SendPacket+0x7c>)
 8000f88:	6830      	ldr	r0, [r6, #0]
 8000f8a:	6025      	str	r5, [r4, #0]
 8000f8c:	2181      	movs	r1, #129	; 0x81
 //USB_Tx_State = USB_TX_READY;
}
 8000f8e:	bc70      	pop	{r4, r5, r6}
 USBD_LL_Transmit(pInstance, MIDI_IN_EP, &APP_Rx_Buffer[USB_Tx_ptr], USB_Tx_length);
 8000f90:	f003 bb10 	b.w	80045b4 <USBD_LL_Transmit>
   APP_Rx_ptr_out = 0;
 8000f94:	2100      	movs	r1, #0
 if(APP_Rx_ptr_out == APP_Rx_ptr_in)
 8000f96:	4b09      	ldr	r3, [pc, #36]	; (8000fbc <USBD_MIDI_SendPacket+0x6c>)
   APP_Rx_ptr_out = 0;
 8000f98:	6001      	str	r1, [r0, #0]
 if(APP_Rx_ptr_out == APP_Rx_ptr_in)
 8000f9a:	681b      	ldr	r3, [r3, #0]
 8000f9c:	b143      	cbz	r3, 8000fb0 <USBD_MIDI_SendPacket+0x60>
   APP_Rx_length = APP_Rx_ptr_in - APP_Rx_ptr_out;
 8000f9e:	1a5b      	subs	r3, r3, r1
 if (APP_Rx_length > MIDI_DATA_IN_PACKET_SIZE)
 8000fa0:	2b40      	cmp	r3, #64	; 0x40
{
 8000fa2:	b470      	push	{r4, r5, r6}
 if (APP_Rx_length > MIDI_DATA_IN_PACKET_SIZE)
 8000fa4:	d8e3      	bhi.n	8000f6e <USBD_MIDI_SendPacket+0x1e>
   USB_Tx_ptr      = APP_Rx_ptr_out;
 8000fa6:	b28a      	uxth	r2, r1
   APP_Rx_length   = 0;
 8000fa8:	2500      	movs	r5, #0
   APP_Rx_ptr_out += APP_Rx_length;
 8000faa:	4419      	add	r1, r3
   USB_Tx_length   = APP_Rx_length;
 8000fac:	b29b      	uxth	r3, r3
   APP_Rx_length   = 0;
 8000fae:	e7e3      	b.n	8000f78 <USBD_MIDI_SendPacket+0x28>
   USB_Tx_State = USB_TX_READY;
 8000fb0:	2200      	movs	r2, #0
 8000fb2:	4b04      	ldr	r3, [pc, #16]	; (8000fc4 <USBD_MIDI_SendPacket+0x74>)
 8000fb4:	701a      	strb	r2, [r3, #0]
   return;
 8000fb6:	4770      	bx	lr
 8000fb8:	20000600 	.word	0x20000600
 8000fbc:	200005fc 	.word	0x200005fc
 8000fc0:	200006b8 	.word	0x200006b8
 8000fc4:	20000604 	.word	0x20000604
 8000fc8:	20000608 	.word	0x20000608
 8000fcc:	200005f8 	.word	0x200005f8

08000fd0 <MIDI_DataRx>:
{
 uint16_t cnt;
 //tUsbMidiCable* pcable;
 uint8_t MIDI_MSG[3];
  
 for (cnt = 0; cnt < length; cnt += 4)
 8000fd0:	b121      	cbz	r1, 8000fdc <MIDI_DataRx+0xc>
 8000fd2:	2300      	movs	r3, #0
 8000fd4:	3304      	adds	r3, #4
 8000fd6:	b29b      	uxth	r3, r3
 8000fd8:	4299      	cmp	r1, r3
 8000fda:	d8fb      	bhi.n	8000fd4 <MIDI_DataRx+0x4>
//     HAL_UART_Transmit(&huart2, &MIDI_MSG[i], 1, 200);
//    }
//   HAL_GPIO_TogglePin(GPIOC, GPIO_PIN_13);
  };
 return USBD_OK;
}
 8000fdc:	2000      	movs	r0, #0
 8000fde:	4770      	bx	lr

08000fe0 <USBD_AddNoteOn>:
{
 8000fe0:	b4f0      	push	{r4, r5, r6, r7}
 8000fe2:	4e1a      	ldr	r6, [pc, #104]	; (800104c <USBD_AddNoteOn+0x6c>)
    APP_Rx_Buffer[APP_Rx_ptr_in] = *(msg + i);
 8000fe4:	4d1a      	ldr	r5, [pc, #104]	; (8001050 <USBD_AddNoteOn+0x70>)
 8000fe6:	6834      	ldr	r4, [r6, #0]
  cable <<= 4;
 8000fe8:	0100      	lsls	r0, r0, #4
    APP_Rx_ptr_in++;
 8000fea:	1c67      	adds	r7, r4, #1
  txbuf[0] = cable + 0x9;
 8000fec:	3009      	adds	r0, #9
    if (APP_Rx_ptr_in == APP_RX_DATA_SIZE)
 8000fee:	f5b7 6f00 	cmp.w	r7, #2048	; 0x800
{
 8000ff2:	b082      	sub	sp, #8
  txbuf[1] = 0x90 | ch;
 8000ff4:	f041 0190 	orr.w	r1, r1, #144	; 0x90
  txbuf[2] = 0x7F & note;
 8000ff8:	f002 027f 	and.w	r2, r2, #127	; 0x7f
  txbuf[3] = 0x7F & vel;
 8000ffc:	f003 037f 	and.w	r3, r3, #127	; 0x7f
    APP_Rx_Buffer[APP_Rx_ptr_in] = *(msg + i);
 8001000:	5528      	strb	r0, [r5, r4]
    if (APP_Rx_ptr_in == APP_RX_DATA_SIZE)
 8001002:	d016      	beq.n	8001032 <USBD_AddNoteOn+0x52>
    APP_Rx_ptr_in++;
 8001004:	1ca0      	adds	r0, r4, #2
    if (APP_Rx_ptr_in == APP_RX_DATA_SIZE)
 8001006:	f5b0 6f00 	cmp.w	r0, #2048	; 0x800
    APP_Rx_Buffer[APP_Rx_ptr_in] = *(msg + i);
 800100a:	55e9      	strb	r1, [r5, r7]
    if (APP_Rx_ptr_in == APP_RX_DATA_SIZE)
 800100c:	d106      	bne.n	800101c <USBD_AddNoteOn+0x3c>
    APP_Rx_Buffer[APP_Rx_ptr_in] = *(msg + i);
 800100e:	702a      	strb	r2, [r5, #0]
    APP_Rx_ptr_in++;
 8001010:	2202      	movs	r2, #2
    APP_Rx_Buffer[APP_Rx_ptr_in] = *(msg + i);
 8001012:	706b      	strb	r3, [r5, #1]
  while (i < length) {
 8001014:	6032      	str	r2, [r6, #0]
}
 8001016:	b002      	add	sp, #8
 8001018:	bcf0      	pop	{r4, r5, r6, r7}
 800101a:	4770      	bx	lr
    APP_Rx_ptr_in++;
 800101c:	3403      	adds	r4, #3
    if (APP_Rx_ptr_in == APP_RX_DATA_SIZE)
 800101e:	f5b4 6f00 	cmp.w	r4, #2048	; 0x800
    APP_Rx_Buffer[APP_Rx_ptr_in] = *(msg + i);
 8001022:	542a      	strb	r2, [r5, r0]
    if (APP_Rx_ptr_in == APP_RX_DATA_SIZE)
 8001024:	d108      	bne.n	8001038 <USBD_AddNoteOn+0x58>
    APP_Rx_ptr_in++;
 8001026:	2201      	movs	r2, #1
    APP_Rx_Buffer[APP_Rx_ptr_in] = *(msg + i);
 8001028:	702b      	strb	r3, [r5, #0]
  while (i < length) {
 800102a:	6032      	str	r2, [r6, #0]
}
 800102c:	b002      	add	sp, #8
 800102e:	bcf0      	pop	{r4, r5, r6, r7}
 8001030:	4770      	bx	lr
    APP_Rx_ptr_in++;
 8001032:	2402      	movs	r4, #2
    APP_Rx_Buffer[APP_Rx_ptr_in] = *(msg + i);
 8001034:	7029      	strb	r1, [r5, #0]
 8001036:	706a      	strb	r2, [r5, #1]
    APP_Rx_ptr_in++;
 8001038:	1c62      	adds	r2, r4, #1
    if (APP_Rx_ptr_in == APP_RX_DATA_SIZE)
 800103a:	f5b2 6f00 	cmp.w	r2, #2048	; 0x800
      APP_Rx_ptr_in = 0;
 800103e:	bf08      	it	eq
 8001040:	2200      	moveq	r2, #0
    APP_Rx_Buffer[APP_Rx_ptr_in] = *(msg + i);
 8001042:	552b      	strb	r3, [r5, r4]
  while (i < length) {
 8001044:	6032      	str	r2, [r6, #0]
}
 8001046:	b002      	add	sp, #8
 8001048:	bcf0      	pop	{r4, r5, r6, r7}
 800104a:	4770      	bx	lr
 800104c:	200005fc 	.word	0x200005fc
 8001050:	200006b8 	.word	0x200006b8

08001054 <USBD_AddNoteOff>:
{
 8001054:	b4f0      	push	{r4, r5, r6, r7}
 8001056:	4d1b      	ldr	r5, [pc, #108]	; (80010c4 <USBD_AddNoteOff+0x70>)
    APP_Rx_Buffer[APP_Rx_ptr_in] = *(msg + i);
 8001058:	4c1b      	ldr	r4, [pc, #108]	; (80010c8 <USBD_AddNoteOff+0x74>)
 800105a:	682b      	ldr	r3, [r5, #0]
  cable <<= 4;
 800105c:	0100      	lsls	r0, r0, #4
    APP_Rx_ptr_in++;
 800105e:	1c5e      	adds	r6, r3, #1
  txbuf[0] = cable + 0x8;
 8001060:	3008      	adds	r0, #8
    if (APP_Rx_ptr_in == APP_RX_DATA_SIZE)
 8001062:	f5b6 6f00 	cmp.w	r6, #2048	; 0x800
{
 8001066:	b082      	sub	sp, #8
  txbuf[1] = 0x80 | ch;
 8001068:	f041 0180 	orr.w	r1, r1, #128	; 0x80
  txbuf[2] = 0x7F & note;
 800106c:	f002 027f 	and.w	r2, r2, #127	; 0x7f
    APP_Rx_Buffer[APP_Rx_ptr_in] = *(msg + i);
 8001070:	54e0      	strb	r0, [r4, r3]
    if (APP_Rx_ptr_in == APP_RX_DATA_SIZE)
 8001072:	d018      	beq.n	80010a6 <USBD_AddNoteOff+0x52>
    APP_Rx_ptr_in++;
 8001074:	1c9f      	adds	r7, r3, #2
    if (APP_Rx_ptr_in == APP_RX_DATA_SIZE)
 8001076:	f5b7 6f00 	cmp.w	r7, #2048	; 0x800
 800107a:	f04f 0000 	mov.w	r0, #0
    APP_Rx_Buffer[APP_Rx_ptr_in] = *(msg + i);
 800107e:	55a1      	strb	r1, [r4, r6]
    if (APP_Rx_ptr_in == APP_RX_DATA_SIZE)
 8001080:	d106      	bne.n	8001090 <USBD_AddNoteOff+0x3c>
    APP_Rx_Buffer[APP_Rx_ptr_in] = *(msg + i);
 8001082:	7022      	strb	r2, [r4, #0]
    APP_Rx_ptr_in++;
 8001084:	2202      	movs	r2, #2
    APP_Rx_Buffer[APP_Rx_ptr_in] = *(msg + i);
 8001086:	7060      	strb	r0, [r4, #1]
  while (i < length) {
 8001088:	602a      	str	r2, [r5, #0]
}
 800108a:	b002      	add	sp, #8
 800108c:	bcf0      	pop	{r4, r5, r6, r7}
 800108e:	4770      	bx	lr
    APP_Rx_ptr_in++;
 8001090:	3303      	adds	r3, #3
    if (APP_Rx_ptr_in == APP_RX_DATA_SIZE)
 8001092:	f5b3 6f00 	cmp.w	r3, #2048	; 0x800
    APP_Rx_Buffer[APP_Rx_ptr_in] = *(msg + i);
 8001096:	55e2      	strb	r2, [r4, r7]
    if (APP_Rx_ptr_in == APP_RX_DATA_SIZE)
 8001098:	d108      	bne.n	80010ac <USBD_AddNoteOff+0x58>
    APP_Rx_ptr_in++;
 800109a:	2201      	movs	r2, #1
    APP_Rx_Buffer[APP_Rx_ptr_in] = *(msg + i);
 800109c:	7020      	strb	r0, [r4, #0]
  while (i < length) {
 800109e:	602a      	str	r2, [r5, #0]
}
 80010a0:	b002      	add	sp, #8
 80010a2:	bcf0      	pop	{r4, r5, r6, r7}
 80010a4:	4770      	bx	lr
    APP_Rx_ptr_in++;
 80010a6:	2302      	movs	r3, #2
    APP_Rx_Buffer[APP_Rx_ptr_in] = *(msg + i);
 80010a8:	7021      	strb	r1, [r4, #0]
 80010aa:	7062      	strb	r2, [r4, #1]
 80010ac:	2100      	movs	r1, #0
    APP_Rx_ptr_in++;
 80010ae:	1c5a      	adds	r2, r3, #1
    if (APP_Rx_ptr_in == APP_RX_DATA_SIZE)
 80010b0:	f5b2 6f00 	cmp.w	r2, #2048	; 0x800
      APP_Rx_ptr_in = 0;
 80010b4:	bf08      	it	eq
 80010b6:	460a      	moveq	r2, r1
    APP_Rx_Buffer[APP_Rx_ptr_in] = *(msg + i);
 80010b8:	54e1      	strb	r1, [r4, r3]
  while (i < length) {
 80010ba:	602a      	str	r2, [r5, #0]
}
 80010bc:	b002      	add	sp, #8
 80010be:	bcf0      	pop	{r4, r5, r6, r7}
 80010c0:	4770      	bx	lr
 80010c2:	bf00      	nop
 80010c4:	200005fc 	.word	0x200005fc
 80010c8:	200006b8 	.word	0x200006b8

080010cc <USBD_SendMidiMessages>:
  if (hUsbDeviceFS.dev_state == USBD_STATE_CONFIGURED)
 80010cc:	4b03      	ldr	r3, [pc, #12]	; (80010dc <USBD_SendMidiMessages+0x10>)
 80010ce:	f893 329c 	ldrb.w	r3, [r3, #668]	; 0x29c
 80010d2:	2b03      	cmp	r3, #3
 80010d4:	d000      	beq.n	80010d8 <USBD_SendMidiMessages+0xc>
 }
 80010d6:	4770      	bx	lr
      USBD_MIDI_SendPacket();
 80010d8:	f7ff bf3a 	b.w	8000f50 <USBD_MIDI_SendPacket>
 80010dc:	20000ebc 	.word	0x20000ebc

080010e0 <Reset_Handler>:
  .weak Reset_Handler
  .type Reset_Handler, %function
Reset_Handler:

/* Copy the data segment initializers from flash to SRAM */
  movs r1, #0
 80010e0:	2100      	movs	r1, #0
  b LoopCopyDataInit
 80010e2:	e003      	b.n	80010ec <LoopCopyDataInit>

080010e4 <CopyDataInit>:

CopyDataInit:
  ldr r3, =_sidata
 80010e4:	4b0b      	ldr	r3, [pc, #44]	; (8001114 <LoopFillZerobss+0x14>)
  ldr r3, [r3, r1]
 80010e6:	585b      	ldr	r3, [r3, r1]
  str r3, [r0, r1]
 80010e8:	5043      	str	r3, [r0, r1]
  adds r1, r1, #4
 80010ea:	3104      	adds	r1, #4

080010ec <LoopCopyDataInit>:

LoopCopyDataInit:
  ldr r0, =_sdata
 80010ec:	480a      	ldr	r0, [pc, #40]	; (8001118 <LoopFillZerobss+0x18>)
  ldr r3, =_edata
 80010ee:	4b0b      	ldr	r3, [pc, #44]	; (800111c <LoopFillZerobss+0x1c>)
  adds r2, r0, r1
 80010f0:	1842      	adds	r2, r0, r1
  cmp r2, r3
 80010f2:	429a      	cmp	r2, r3
  bcc CopyDataInit
 80010f4:	d3f6      	bcc.n	80010e4 <CopyDataInit>
  ldr r2, =_sbss
 80010f6:	4a0a      	ldr	r2, [pc, #40]	; (8001120 <LoopFillZerobss+0x20>)
  b LoopFillZerobss
 80010f8:	e002      	b.n	8001100 <LoopFillZerobss>

080010fa <FillZerobss>:
/* Zero fill the bss segment. */
FillZerobss:
  movs r3, #0
 80010fa:	2300      	movs	r3, #0
  str r3, [r2], #4
 80010fc:	f842 3b04 	str.w	r3, [r2], #4

08001100 <LoopFillZerobss>:

LoopFillZerobss:
  ldr r3, = _ebss
 8001100:	4b08      	ldr	r3, [pc, #32]	; (8001124 <LoopFillZerobss+0x24>)
  cmp r2, r3
 8001102:	429a      	cmp	r2, r3
  bcc FillZerobss
 8001104:	d3f9      	bcc.n	80010fa <FillZerobss>

/* Call the clock system intitialization function.*/
    bl  SystemInit
 8001106:	f7ff fe3d 	bl	8000d84 <SystemInit>
/* Call static constructors */
    bl __libc_init_array
 800110a:	f003 fa71 	bl	80045f0 <__libc_init_array>
/* Call the application's entry point.*/
  bl main
 800110e:	f7ff fcd7 	bl	8000ac0 <main>
  bx lr
 8001112:	4770      	bx	lr
  ldr r3, =_sidata
 8001114:	080046bc 	.word	0x080046bc
  ldr r0, =_sdata
 8001118:	20000000 	.word	0x20000000
  ldr r3, =_edata
 800111c:	20000100 	.word	0x20000100
  ldr r2, =_sbss
 8001120:	20000100 	.word	0x20000100
  ldr r3, = _ebss
 8001124:	2000166c 	.word	0x2000166c

08001128 <ADC1_2_IRQHandler>:
 * @retval : None
*/
    .section .text.Default_Handler,"ax",%progbits
Default_Handler:
Infinite_Loop:
  b Infinite_Loop
 8001128:	e7fe      	b.n	8001128 <ADC1_2_IRQHandler>
	...

0800112c <HAL_InitTick>:
  *       implementation  in user file.
  * @param TickPriority Tick interrupt priority.
  * @retval HAL status
  */
__weak HAL_StatusTypeDef HAL_InitTick(uint32_t TickPriority)
{
 800112c:	b538      	push	{r3, r4, r5, lr}
  /* Configure the SysTick to have interrupt in 1ms time basis*/
  if (HAL_SYSTICK_Config(SystemCoreClock / (1000U / uwTickFreq)) > 0U)
 800112e:	f44f 737a 	mov.w	r3, #1000	; 0x3e8
 8001132:	4a0d      	ldr	r2, [pc, #52]	; (8001168 <HAL_InitTick+0x3c>)
{
 8001134:	4605      	mov	r5, r0
  if (HAL_SYSTICK_Config(SystemCoreClock / (1000U / uwTickFreq)) > 0U)
 8001136:	7811      	ldrb	r1, [r2, #0]
 8001138:	4a0c      	ldr	r2, [pc, #48]	; (800116c <HAL_InitTick+0x40>)
 800113a:	fbb3 f3f1 	udiv	r3, r3, r1
 800113e:	6812      	ldr	r2, [r2, #0]
 8001140:	fbb2 f0f3 	udiv	r0, r2, r3
 8001144:	f000 f886 	bl	8001254 <HAL_SYSTICK_Config>
 8001148:	b908      	cbnz	r0, 800114e <HAL_InitTick+0x22>
  {
    return HAL_ERROR;
  }

  /* Configure the SysTick IRQ priority */
  if (TickPriority < (1UL << __NVIC_PRIO_BITS))
 800114a:	2d0f      	cmp	r5, #15
 800114c:	d901      	bls.n	8001152 <HAL_InitTick+0x26>
    return HAL_ERROR;
 800114e:	2001      	movs	r0, #1
    return HAL_ERROR;
  }

  /* Return function status */
  return HAL_OK;
}
 8001150:	bd38      	pop	{r3, r4, r5, pc}
 8001152:	4604      	mov	r4, r0
    HAL_NVIC_SetPriority(SysTick_IRQn, TickPriority, 0U);
 8001154:	4602      	mov	r2, r0
 8001156:	4629      	mov	r1, r5
 8001158:	f04f 30ff 	mov.w	r0, #4294967295	; 0xffffffff
 800115c:	f000 f834 	bl	80011c8 <HAL_NVIC_SetPriority>
    uwTickPrio = TickPriority;
 8001160:	4b03      	ldr	r3, [pc, #12]	; (8001170 <HAL_InitTick+0x44>)
 8001162:	4620      	mov	r0, r4
 8001164:	601d      	str	r5, [r3, #0]
}
 8001166:	bd38      	pop	{r3, r4, r5, pc}
 8001168:	200000a8 	.word	0x200000a8
 800116c:	20000000 	.word	0x20000000
 8001170:	200000ac 	.word	0x200000ac

08001174 <HAL_Init>:
  __HAL_FLASH_PREFETCH_BUFFER_ENABLE();
 8001174:	4a07      	ldr	r2, [pc, #28]	; (8001194 <HAL_Init+0x20>)
{
 8001176:	b508      	push	{r3, lr}
  __HAL_FLASH_PREFETCH_BUFFER_ENABLE();
 8001178:	6813      	ldr	r3, [r2, #0]
  HAL_NVIC_SetPriorityGrouping(NVIC_PRIORITYGROUP_4);
 800117a:	2003      	movs	r0, #3
  __HAL_FLASH_PREFETCH_BUFFER_ENABLE();
 800117c:	f043 0310 	orr.w	r3, r3, #16
 8001180:	6013      	str	r3, [r2, #0]
  HAL_NVIC_SetPriorityGrouping(NVIC_PRIORITYGROUP_4);
 8001182:	f000 f80f 	bl	80011a4 <HAL_NVIC_SetPriorityGrouping>
  HAL_InitTick(TICK_INT_PRIORITY);
 8001186:	2000      	movs	r0, #0
 8001188:	f7ff ffd0 	bl	800112c <HAL_InitTick>
  HAL_MspInit();
 800118c:	f7ff fdc2 	bl	8000d14 <HAL_MspInit>
}
 8001190:	2000      	movs	r0, #0
 8001192:	bd08      	pop	{r3, pc}
 8001194:	40022000 	.word	0x40022000

08001198 <HAL_GetTick>:
  *       implementations in user file.
  * @retval tick value
  */
__weak uint32_t HAL_GetTick(void)
{
  return uwTick;
 8001198:	4b01      	ldr	r3, [pc, #4]	; (80011a0 <HAL_GetTick+0x8>)
 800119a:	6818      	ldr	r0, [r3, #0]
}
 800119c:	4770      	bx	lr
 800119e:	bf00      	nop
 80011a0:	20000eb8 	.word	0x20000eb8

080011a4 <HAL_NVIC_SetPriorityGrouping>:
  reg_value &= ~((uint32_t)(SCB_AIRCR_VECTKEY_Msk | SCB_AIRCR_PRIGROUP_Msk)); /* clear bits to change               */
 80011a4:	f64f 01ff 	movw	r1, #63743	; 0xf8ff
  reg_value  =  SCB->AIRCR;                                                   /* read old register configuration    */
 80011a8:	4a06      	ldr	r2, [pc, #24]	; (80011c4 <HAL_NVIC_SetPriorityGrouping+0x20>)
                (PriorityGroupTmp << SCB_AIRCR_PRIGROUP_Pos) );               /* Insert write key and priority group */
 80011aa:	0203      	lsls	r3, r0, #8
  reg_value  =  SCB->AIRCR;                                                   /* read old register configuration    */
 80011ac:	68d0      	ldr	r0, [r2, #12]
                (PriorityGroupTmp << SCB_AIRCR_PRIGROUP_Pos) );               /* Insert write key and priority group */
 80011ae:	f403 63e0 	and.w	r3, r3, #1792	; 0x700
  reg_value &= ~((uint32_t)(SCB_AIRCR_VECTKEY_Msk | SCB_AIRCR_PRIGROUP_Msk)); /* clear bits to change               */
 80011b2:	4008      	ands	r0, r1
                ((uint32_t)0x5FAUL << SCB_AIRCR_VECTKEY_Pos) |
 80011b4:	4303      	orrs	r3, r0
  reg_value  =  (reg_value                                   |
 80011b6:	f043 63bf 	orr.w	r3, r3, #100139008	; 0x5f80000
 80011ba:	f443 3300 	orr.w	r3, r3, #131072	; 0x20000
  SCB->AIRCR =  reg_value;
 80011be:	60d3      	str	r3, [r2, #12]
  /* Check the parameters */
  assert_param(IS_NVIC_PRIORITY_GROUP(PriorityGroup));
  
  /* Set the PRIGROUP[10:8] bits according to the PriorityGroup parameter value */
  NVIC_SetPriorityGrouping(PriorityGroup);
}
 80011c0:	4770      	bx	lr
 80011c2:	bf00      	nop
 80011c4:	e000ed00 	.word	0xe000ed00

080011c8 <HAL_NVIC_SetPriority>:
  return ((uint32_t)((SCB->AIRCR & SCB_AIRCR_PRIGROUP_Msk) >> SCB_AIRCR_PRIGROUP_Pos));
 80011c8:	4b19      	ldr	r3, [pc, #100]	; (8001230 <HAL_NVIC_SetPriority+0x68>)
  *         This parameter can be a value between 0 and 15
  *         A lower priority value indicates a higher priority.          
  * @retval None
  */
void HAL_NVIC_SetPriority(IRQn_Type IRQn, uint32_t PreemptPriority, uint32_t SubPriority)
{ 
 80011ca:	b430      	push	{r4, r5}
 80011cc:	68db      	ldr	r3, [r3, #12]
 80011ce:	f3c3 2302 	ubfx	r3, r3, #8, #3
{
  uint32_t PriorityGroupTmp = (PriorityGroup & (uint32_t)0x07UL);   /* only values 0..7 are used          */
  uint32_t PreemptPriorityBits;
  uint32_t SubPriorityBits;

  PreemptPriorityBits = ((7UL - PriorityGroupTmp) > (uint32_t)(__NVIC_PRIO_BITS)) ? (uint32_t)(__NVIC_PRIO_BITS) : (uint32_t)(7UL - PriorityGroupTmp);
 80011d2:	f1c3 0507 	rsb	r5, r3, #7
 80011d6:	2d04      	cmp	r5, #4
  SubPriorityBits     = ((PriorityGroupTmp + (uint32_t)(__NVIC_PRIO_BITS)) < (uint32_t)7UL) ? (uint32_t)0UL : (uint32_t)((PriorityGroupTmp - 7UL) + (uint32_t)(__NVIC_PRIO_BITS));
 80011d8:	f103 0404 	add.w	r4, r3, #4
  PreemptPriorityBits = ((7UL - PriorityGroupTmp) > (uint32_t)(__NVIC_PRIO_BITS)) ? (uint32_t)(__NVIC_PRIO_BITS) : (uint32_t)(7UL - PriorityGroupTmp);
 80011dc:	bf28      	it	cs
 80011de:	2504      	movcs	r5, #4
  SubPriorityBits     = ((PriorityGroupTmp + (uint32_t)(__NVIC_PRIO_BITS)) < (uint32_t)7UL) ? (uint32_t)0UL : (uint32_t)((PriorityGroupTmp - 7UL) + (uint32_t)(__NVIC_PRIO_BITS));
 80011e0:	2c06      	cmp	r4, #6
 80011e2:	d919      	bls.n	8001218 <HAL_NVIC_SetPriority+0x50>
 80011e4:	f04f 34ff 	mov.w	r4, #4294967295	; 0xffffffff
 80011e8:	3b03      	subs	r3, #3
 80011ea:	409c      	lsls	r4, r3
 80011ec:	ea22 0204 	bic.w	r2, r2, r4

  return (
           ((PreemptPriority & (uint32_t)((1UL << (PreemptPriorityBits)) - 1UL)) << SubPriorityBits) |
 80011f0:	f04f 34ff 	mov.w	r4, #4294967295	; 0xffffffff
 80011f4:	40ac      	lsls	r4, r5
 80011f6:	ea21 0104 	bic.w	r1, r1, r4
 80011fa:	4099      	lsls	r1, r3
  if ((int32_t)(IRQn) >= 0)
 80011fc:	2800      	cmp	r0, #0
           ((PreemptPriority & (uint32_t)((1UL << (PreemptPriorityBits)) - 1UL)) << SubPriorityBits) |
 80011fe:	ea41 0102 	orr.w	r1, r1, r2
  if ((int32_t)(IRQn) >= 0)
 8001202:	db0c      	blt.n	800121e <HAL_NVIC_SetPriority+0x56>
    NVIC->IP[((uint32_t)IRQn)]               = (uint8_t)((priority << (8U - __NVIC_PRIO_BITS)) & (uint32_t)0xFFUL);
 8001204:	0109      	lsls	r1, r1, #4
 8001206:	f100 4060 	add.w	r0, r0, #3758096384	; 0xe0000000
 800120a:	b2c9      	uxtb	r1, r1
 800120c:	f500 4061 	add.w	r0, r0, #57600	; 0xe100
 8001210:	f880 1300 	strb.w	r1, [r0, #768]	; 0x300
  assert_param(IS_NVIC_PREEMPTION_PRIORITY(PreemptPriority));
  
  prioritygroup = NVIC_GetPriorityGrouping();
  
  NVIC_SetPriority(IRQn, NVIC_EncodePriority(prioritygroup, PreemptPriority, SubPriority));
}
 8001214:	bc30      	pop	{r4, r5}
 8001216:	4770      	bx	lr
 8001218:	2200      	movs	r2, #0
  SubPriorityBits     = ((PriorityGroupTmp + (uint32_t)(__NVIC_PRIO_BITS)) < (uint32_t)7UL) ? (uint32_t)0UL : (uint32_t)((PriorityGroupTmp - 7UL) + (uint32_t)(__NVIC_PRIO_BITS));
 800121a:	4613      	mov	r3, r2
 800121c:	e7e8      	b.n	80011f0 <HAL_NVIC_SetPriority+0x28>
    SCB->SHP[(((uint32_t)IRQn) & 0xFUL)-4UL] = (uint8_t)((priority << (8U - __NVIC_PRIO_BITS)) & (uint32_t)0xFFUL);
 800121e:	4b05      	ldr	r3, [pc, #20]	; (8001234 <HAL_NVIC_SetPriority+0x6c>)
 8001220:	f000 000f 	and.w	r0, r0, #15
 8001224:	0109      	lsls	r1, r1, #4
 8001226:	b2c9      	uxtb	r1, r1
 8001228:	4403      	add	r3, r0
 800122a:	7619      	strb	r1, [r3, #24]
 800122c:	bc30      	pop	{r4, r5}
 800122e:	4770      	bx	lr
 8001230:	e000ed00 	.word	0xe000ed00
 8001234:	e000ecfc 	.word	0xe000ecfc

08001238 <HAL_NVIC_EnableIRQ>:
  if ((int32_t)(IRQn) >= 0)
 8001238:	2800      	cmp	r0, #0
 800123a:	db07      	blt.n	800124c <HAL_NVIC_EnableIRQ+0x14>
    NVIC->ISER[(((uint32_t)IRQn) >> 5UL)] = (uint32_t)(1UL << (((uint32_t)IRQn) & 0x1FUL));
 800123c:	2301      	movs	r3, #1
 800123e:	f000 011f 	and.w	r1, r0, #31
 8001242:	4a03      	ldr	r2, [pc, #12]	; (8001250 <HAL_NVIC_EnableIRQ+0x18>)
 8001244:	408b      	lsls	r3, r1
 8001246:	0940      	lsrs	r0, r0, #5
 8001248:	f842 3020 	str.w	r3, [r2, r0, lsl #2]
  /* Check the parameters */
  assert_param(IS_NVIC_DEVICE_IRQ(IRQn));

  /* Enable interrupt */
  NVIC_EnableIRQ(IRQn);
}
 800124c:	4770      	bx	lr
 800124e:	bf00      	nop
 8001250:	e000e100 	.word	0xe000e100

08001254 <HAL_SYSTICK_Config>:
           function <b>SysTick_Config</b> is not included. In this case, the file <b><i>device</i>.h</b>
           must contain a vendor-specific implementation of this function.
 */
__STATIC_INLINE uint32_t SysTick_Config(uint32_t ticks)
{
  if ((ticks - 1UL) > SysTick_LOAD_RELOAD_Msk)
 8001254:	3801      	subs	r0, #1
 8001256:	f1b0 7f80 	cmp.w	r0, #16777216	; 0x1000000
 800125a:	d20d      	bcs.n	8001278 <HAL_SYSTICK_Config+0x24>
  * @param  TicksNumb: Specifies the ticks Number of ticks between two interrupts.
  * @retval status:  - 0  Function succeeded.
  *                  - 1  Function failed.
  */
uint32_t HAL_SYSTICK_Config(uint32_t TicksNumb)
{
 800125c:	b430      	push	{r4, r5}
    SCB->SHP[(((uint32_t)IRQn) & 0xFUL)-4UL] = (uint8_t)((priority << (8U - __NVIC_PRIO_BITS)) & (uint32_t)0xFFUL);
 800125e:	25f0      	movs	r5, #240	; 0xf0
    return (1UL);                                                   /* Reload value impossible */
  }

  SysTick->LOAD  = (uint32_t)(ticks - 1UL);                         /* set reload register */
  NVIC_SetPriority (SysTick_IRQn, (1UL << __NVIC_PRIO_BITS) - 1UL); /* set Priority for Systick Interrupt */
  SysTick->VAL   = 0UL;                                             /* Load the SysTick Counter Value */
 8001260:	2200      	movs	r2, #0
  SysTick->CTRL  = SysTick_CTRL_CLKSOURCE_Msk |
 8001262:	2107      	movs	r1, #7
  SysTick->LOAD  = (uint32_t)(ticks - 1UL);                         /* set reload register */
 8001264:	4b05      	ldr	r3, [pc, #20]	; (800127c <HAL_SYSTICK_Config+0x28>)
    SCB->SHP[(((uint32_t)IRQn) & 0xFUL)-4UL] = (uint8_t)((priority << (8U - __NVIC_PRIO_BITS)) & (uint32_t)0xFFUL);
 8001266:	4c06      	ldr	r4, [pc, #24]	; (8001280 <HAL_SYSTICK_Config+0x2c>)
  SysTick->LOAD  = (uint32_t)(ticks - 1UL);                         /* set reload register */
 8001268:	6058      	str	r0, [r3, #4]
    SCB->SHP[(((uint32_t)IRQn) & 0xFUL)-4UL] = (uint8_t)((priority << (8U - __NVIC_PRIO_BITS)) & (uint32_t)0xFFUL);
 800126a:	f884 5023 	strb.w	r5, [r4, #35]	; 0x23
                   SysTick_CTRL_TICKINT_Msk   |
                   SysTick_CTRL_ENABLE_Msk;                         /* Enable SysTick IRQ and SysTick Timer */
  return (0UL);                                                     /* Function successful */
 800126e:	4610      	mov	r0, r2
   return SysTick_Config(TicksNumb);
}
 8001270:	bc30      	pop	{r4, r5}
  SysTick->VAL   = 0UL;                                             /* Load the SysTick Counter Value */
 8001272:	609a      	str	r2, [r3, #8]
  SysTick->CTRL  = SysTick_CTRL_CLKSOURCE_Msk |
 8001274:	6019      	str	r1, [r3, #0]
 8001276:	4770      	bx	lr
    return (1UL);                                                   /* Reload value impossible */
 8001278:	2001      	movs	r0, #1
 800127a:	4770      	bx	lr
 800127c:	e000e010 	.word	0xe000e010
 8001280:	e000ed00 	.word	0xe000ed00

08001284 <HAL_PCD_Init>:
  *         parameters in the PCD_InitTypeDef and initialize the associated handle.
  * @param  hpcd PCD handle
  * @retval HAL status
  */
HAL_StatusTypeDef HAL_PCD_Init(PCD_HandleTypeDef *hpcd)
{
 8001284:	b5f0      	push	{r4, r5, r6, r7, lr}
 8001286:	b087      	sub	sp, #28
  USB_OTG_GlobalTypeDef *USBx;
#endif /* defined (USB_OTG_FS) */
  uint8_t i;

  /* Check the PCD handle allocation */
  if (hpcd == NULL)
 8001288:	2800      	cmp	r0, #0
 800128a:	d072      	beq.n	8001372 <HAL_PCD_Init+0xee>

#if defined (USB_OTG_FS)
  USBx = hpcd->Instance;
#endif /* defined (USB_OTG_FS) */

  if (hpcd->State == HAL_PCD_STATE_RESET)
 800128c:	f890 32a9 	ldrb.w	r3, [r0, #681]	; 0x2a9
 8001290:	4605      	mov	r5, r0
 8001292:	f003 02ff 	and.w	r2, r3, #255	; 0xff
 8001296:	2b00      	cmp	r3, #0
 8001298:	d066      	beq.n	8001368 <HAL_PCD_Init+0xe4>
    /* Init the low level hardware : GPIO, CLOCK, NVIC... */
    HAL_PCD_MspInit(hpcd);
#endif /* (USE_HAL_PCD_REGISTER_CALLBACKS) */
  }

  hpcd->State = HAL_PCD_STATE_BUSY;
 800129a:	2303      	movs	r3, #3

  /* Disable the Interrupts */
  __HAL_PCD_DISABLE(hpcd);

  /*Init the Core (common init.) */
  if (USB_CoreInit(hpcd->Instance, hpcd->Init) != HAL_OK)
 800129c:	462e      	mov	r6, r5
  hpcd->State = HAL_PCD_STATE_BUSY;
 800129e:	f885 32a9 	strb.w	r3, [r5, #681]	; 0x2a9
  __HAL_PCD_DISABLE(hpcd);
 80012a2:	6828      	ldr	r0, [r5, #0]
 80012a4:	f001 fb08 	bl	80028b8 <USB_DisableGlobalInt>
  if (USB_CoreInit(hpcd->Instance, hpcd->Init) != HAL_OK)
 80012a8:	f856 cb10 	ldr.w	ip, [r6], #16
 80012ac:	466c      	mov	r4, sp
 80012ae:	4637      	mov	r7, r6
 80012b0:	cf0f      	ldmia	r7!, {r0, r1, r2, r3}
 80012b2:	c40f      	stmia	r4!, {r0, r1, r2, r3}
 80012b4:	683b      	ldr	r3, [r7, #0]
 80012b6:	1d2f      	adds	r7, r5, #4
 80012b8:	6023      	str	r3, [r4, #0]
 80012ba:	4660      	mov	r0, ip
 80012bc:	e897 000e 	ldmia.w	r7, {r1, r2, r3}
 80012c0:	f001 fae8 	bl	8002894 <USB_CoreInit>
 80012c4:	4604      	mov	r4, r0
 80012c6:	b130      	cbz	r0, 80012d6 <HAL_PCD_Init+0x52>

  /* Init Device */
  if (USB_DevInit(hpcd->Instance, hpcd->Init) != HAL_OK)
  {
    hpcd->State = HAL_PCD_STATE_ERROR;
    return HAL_ERROR;
 80012c8:	2401      	movs	r4, #1
    hpcd->State = HAL_PCD_STATE_ERROR;
 80012ca:	2302      	movs	r3, #2
  hpcd->USB_Address = 0U;
  hpcd->State = HAL_PCD_STATE_READY;
  (void)USB_DevDisconnect(hpcd->Instance);

  return HAL_OK;
}
 80012cc:	4620      	mov	r0, r4
    hpcd->State = HAL_PCD_STATE_ERROR;
 80012ce:	f885 32a9 	strb.w	r3, [r5, #681]	; 0x2a9
}
 80012d2:	b007      	add	sp, #28
 80012d4:	bdf0      	pop	{r4, r5, r6, r7, pc}
  (void)USB_SetCurrentMode(hpcd->Instance, USB_DEVICE_MODE);
 80012d6:	4601      	mov	r1, r0
 80012d8:	6828      	ldr	r0, [r5, #0]
 80012da:	f001 faf7 	bl	80028cc <USB_SetCurrentMode>
  for (i = 0U; i < hpcd->Init.dev_endpoints; i++)
 80012de:	6868      	ldr	r0, [r5, #4]
 80012e0:	b350      	cbz	r0, 8001338 <HAL_PCD_Init+0xb4>
 80012e2:	4622      	mov	r2, r4
    hpcd->IN_ep[i].is_in = 1U;
 80012e4:	f04f 0e01 	mov.w	lr, #1
    hpcd->IN_ep[i].type = EP_TYPE_CTRL;
 80012e8:	4621      	mov	r1, r4
    hpcd->IN_ep[i].is_in = 1U;
 80012ea:	eb02 0382 	add.w	r3, r2, r2, lsl #2
 80012ee:	eb05 03c3 	add.w	r3, r5, r3, lsl #3
  for (i = 0U; i < hpcd->Init.dev_endpoints; i++)
 80012f2:	f102 0c01 	add.w	ip, r2, #1
    hpcd->IN_ep[i].num = i;
 80012f6:	f883 2028 	strb.w	r2, [r3, #40]	; 0x28
    hpcd->IN_ep[i].tx_fifo_num = i;
 80012fa:	86da      	strh	r2, [r3, #54]	; 0x36
  for (i = 0U; i < hpcd->Init.dev_endpoints; i++)
 80012fc:	fa5f f28c 	uxtb.w	r2, ip
 8001300:	4282      	cmp	r2, r0
    hpcd->IN_ep[i].xfer_buff = 0U;
 8001302:	e9c3 110e 	strd	r1, r1, [r3, #56]	; 0x38
    hpcd->IN_ep[i].is_in = 1U;
 8001306:	f883 e029 	strb.w	lr, [r3, #41]	; 0x29
    hpcd->IN_ep[i].type = EP_TYPE_CTRL;
 800130a:	f883 102b 	strb.w	r1, [r3, #43]	; 0x2b
    hpcd->IN_ep[i].xfer_len = 0U;
 800130e:	6419      	str	r1, [r3, #64]	; 0x40
  for (i = 0U; i < hpcd->Init.dev_endpoints; i++)
 8001310:	d3eb      	bcc.n	80012ea <HAL_PCD_Init+0x66>
    hpcd->OUT_ep[i].is_in = 0U;
 8001312:	2200      	movs	r2, #0
 8001314:	eb04 0384 	add.w	r3, r4, r4, lsl #2
 8001318:	eb05 03c3 	add.w	r3, r5, r3, lsl #3
  for (i = 0U; i < hpcd->Init.dev_endpoints; i++)
 800131c:	1c61      	adds	r1, r4, #1
    hpcd->OUT_ep[i].num = i;
 800131e:	f883 4168 	strb.w	r4, [r3, #360]	; 0x168
  for (i = 0U; i < hpcd->Init.dev_endpoints; i++)
 8001322:	b2cc      	uxtb	r4, r1
 8001324:	4284      	cmp	r4, r0
    hpcd->OUT_ep[i].xfer_buff = 0U;
 8001326:	e9c3 225e 	strd	r2, r2, [r3, #376]	; 0x178
    hpcd->OUT_ep[i].is_in = 0U;
 800132a:	f883 2169 	strb.w	r2, [r3, #361]	; 0x169
    hpcd->OUT_ep[i].type = EP_TYPE_CTRL;
 800132e:	f883 216b 	strb.w	r2, [r3, #363]	; 0x16b
    hpcd->OUT_ep[i].xfer_len = 0U;
 8001332:	f8c3 2180 	str.w	r2, [r3, #384]	; 0x180
  for (i = 0U; i < hpcd->Init.dev_endpoints; i++)
 8001336:	d3ed      	bcc.n	8001314 <HAL_PCD_Init+0x90>
  if (USB_DevInit(hpcd->Instance, hpcd->Init) != HAL_OK)
 8001338:	ce0f      	ldmia	r6!, {r0, r1, r2, r3}
 800133a:	466c      	mov	r4, sp
 800133c:	c40f      	stmia	r4!, {r0, r1, r2, r3}
 800133e:	6836      	ldr	r6, [r6, #0]
 8001340:	6828      	ldr	r0, [r5, #0]
 8001342:	e897 000e 	ldmia.w	r7, {r1, r2, r3}
 8001346:	6026      	str	r6, [r4, #0]
 8001348:	f001 fac2 	bl	80028d0 <USB_DevInit>
 800134c:	4604      	mov	r4, r0
 800134e:	2800      	cmp	r0, #0
 8001350:	d1ba      	bne.n	80012c8 <HAL_PCD_Init+0x44>
  hpcd->State = HAL_PCD_STATE_READY;
 8001352:	2301      	movs	r3, #1
  hpcd->USB_Address = 0U;
 8001354:	f885 0024 	strb.w	r0, [r5, #36]	; 0x24
  (void)USB_DevDisconnect(hpcd->Instance);
 8001358:	6828      	ldr	r0, [r5, #0]
  hpcd->State = HAL_PCD_STATE_READY;
 800135a:	f885 32a9 	strb.w	r3, [r5, #681]	; 0x2a9
  (void)USB_DevDisconnect(hpcd->Instance);
 800135e:	f002 facf 	bl	8003900 <USB_DevDisconnect>
}
 8001362:	4620      	mov	r0, r4
 8001364:	b007      	add	sp, #28
 8001366:	bdf0      	pop	{r4, r5, r6, r7, pc}
    hpcd->Lock = HAL_UNLOCKED;
 8001368:	f880 22a8 	strb.w	r2, [r0, #680]	; 0x2a8
    HAL_PCD_MspInit(hpcd);
 800136c:	f003 f812 	bl	8004394 <HAL_PCD_MspInit>
 8001370:	e793      	b.n	800129a <HAL_PCD_Init+0x16>
    return HAL_ERROR;
 8001372:	2401      	movs	r4, #1
}
 8001374:	4620      	mov	r0, r4
 8001376:	b007      	add	sp, #28
 8001378:	bdf0      	pop	{r4, r5, r6, r7, pc}
 800137a:	bf00      	nop

0800137c <HAL_PCD_Start>:
  * @brief  Start the USB device
  * @param  hpcd PCD handle
  * @retval HAL status
  */
HAL_StatusTypeDef HAL_PCD_Start(PCD_HandleTypeDef *hpcd)
{
 800137c:	b538      	push	{r3, r4, r5, lr}
  __HAL_LOCK(hpcd);
 800137e:	f890 32a8 	ldrb.w	r3, [r0, #680]	; 0x2a8
 8001382:	2b01      	cmp	r3, #1
 8001384:	d011      	beq.n	80013aa <HAL_PCD_Start+0x2e>
 8001386:	4604      	mov	r4, r0
 8001388:	2501      	movs	r5, #1
  __HAL_PCD_ENABLE(hpcd);
 800138a:	6800      	ldr	r0, [r0, #0]
  __HAL_LOCK(hpcd);
 800138c:	f884 52a8 	strb.w	r5, [r4, #680]	; 0x2a8
  __HAL_PCD_ENABLE(hpcd);
 8001390:	f001 fa88 	bl	80028a4 <USB_EnableGlobalInt>

#if defined (USB)
  HAL_PCDEx_SetConnectionState(hpcd, 1U);
 8001394:	4629      	mov	r1, r5
 8001396:	4620      	mov	r0, r4
 8001398:	f003 f928 	bl	80045ec <HAL_PCDEx_SetConnectionState>
#endif /* defined (USB) */

  (void)USB_DevConnect(hpcd->Instance);
 800139c:	6820      	ldr	r0, [r4, #0]
 800139e:	f002 faad 	bl	80038fc <USB_DevConnect>
  __HAL_UNLOCK(hpcd);
 80013a2:	2000      	movs	r0, #0
 80013a4:	f884 02a8 	strb.w	r0, [r4, #680]	; 0x2a8

  return HAL_OK;
}
 80013a8:	bd38      	pop	{r3, r4, r5, pc}
  __HAL_LOCK(hpcd);
 80013aa:	2002      	movs	r0, #2
}
 80013ac:	bd38      	pop	{r3, r4, r5, pc}
 80013ae:	bf00      	nop

080013b0 <HAL_PCD_IRQHandler>:
  * @brief  This function handles PCD interrupt request.
  * @param  hpcd PCD handle
  * @retval HAL status
  */
void HAL_PCD_IRQHandler(PCD_HandleTypeDef *hpcd)
{
 80013b0:	e92d 4ff8 	stmdb	sp!, {r3, r4, r5, r6, r7, r8, r9, sl, fp, lr}
 80013b4:	4604      	mov	r4, r0
  uint16_t store_ep[8];
  uint8_t i;

  if (__HAL_PCD_GET_FLAG(hpcd, USB_ISTR_CTR))
 80013b6:	6800      	ldr	r0, [r0, #0]
 80013b8:	f002 faa4 	bl	8003904 <USB_ReadInterrupts>
 80013bc:	0403      	lsls	r3, r0, #16
 80013be:	f100 80d1 	bmi.w	8001564 <HAL_PCD_IRQHandler+0x1b4>
 80013c2:	6820      	ldr	r0, [r4, #0]
    /* servicing of the endpoint correct transfer interrupt */
    /* clear of the CTR flag into the sub */
    (void)PCD_EP_ISR_Handler(hpcd);
  }

  if (__HAL_PCD_GET_FLAG(hpcd, USB_ISTR_RESET))
 80013c4:	f002 fa9e 	bl	8003904 <USB_ReadInterrupts>
 80013c8:	0547      	lsls	r7, r0, #21
 80013ca:	f100 820c 	bmi.w	80017e6 <HAL_PCD_IRQHandler+0x436>
#endif /* USE_HAL_PCD_REGISTER_CALLBACKS */

    (void)HAL_PCD_SetAddress(hpcd, 0U);
  }

  if (__HAL_PCD_GET_FLAG(hpcd, USB_ISTR_PMAOVR))
 80013ce:	6820      	ldr	r0, [r4, #0]
 80013d0:	f002 fa98 	bl	8003904 <USB_ReadInterrupts>
 80013d4:	f410 4f80 	tst.w	r0, #16384	; 0x4000
  {
    __HAL_PCD_CLEAR_FLAG(hpcd, USB_ISTR_PMAOVR);
 80013d8:	6820      	ldr	r0, [r4, #0]
  if (__HAL_PCD_GET_FLAG(hpcd, USB_ISTR_PMAOVR))
 80013da:	d007      	beq.n	80013ec <HAL_PCD_IRQHandler+0x3c>
    __HAL_PCD_CLEAR_FLAG(hpcd, USB_ISTR_PMAOVR);
 80013dc:	f8b0 3044 	ldrh.w	r3, [r0, #68]	; 0x44
 80013e0:	f423 4380 	bic.w	r3, r3, #16384	; 0x4000
 80013e4:	041b      	lsls	r3, r3, #16
 80013e6:	0c1b      	lsrs	r3, r3, #16
 80013e8:	f8a0 3044 	strh.w	r3, [r0, #68]	; 0x44
  }

  if (__HAL_PCD_GET_FLAG(hpcd, USB_ISTR_ERR))
 80013ec:	f002 fa8a 	bl	8003904 <USB_ReadInterrupts>
 80013f0:	f410 5f00 	tst.w	r0, #8192	; 0x2000
  {
    __HAL_PCD_CLEAR_FLAG(hpcd, USB_ISTR_ERR);
 80013f4:	6820      	ldr	r0, [r4, #0]
  if (__HAL_PCD_GET_FLAG(hpcd, USB_ISTR_ERR))
 80013f6:	f040 808a 	bne.w	800150e <HAL_PCD_IRQHandler+0x15e>
  }

  if (__HAL_PCD_GET_FLAG(hpcd, USB_ISTR_WKUP))
 80013fa:	f002 fa83 	bl	8003904 <USB_ReadInterrupts>
 80013fe:	04c6      	lsls	r6, r0, #19
 8001400:	f100 8092 	bmi.w	8001528 <HAL_PCD_IRQHandler+0x178>
 8001404:	6820      	ldr	r0, [r4, #0]
#endif /* USE_HAL_PCD_REGISTER_CALLBACKS */

    __HAL_PCD_CLEAR_FLAG(hpcd, USB_ISTR_WKUP);
  }

  if (__HAL_PCD_GET_FLAG(hpcd, USB_ISTR_SUSP))
 8001406:	f002 fa7d 	bl	8003904 <USB_ReadInterrupts>
 800140a:	0505      	lsls	r5, r0, #20
 800140c:	d414      	bmi.n	8001438 <HAL_PCD_IRQHandler+0x88>
#else
    HAL_PCD_SuspendCallback(hpcd);
#endif /* USE_HAL_PCD_REGISTER_CALLBACKS */
  }

  if (__HAL_PCD_GET_FLAG(hpcd, USB_ISTR_SOF))
 800140e:	6820      	ldr	r0, [r4, #0]
 8001410:	f002 fa78 	bl	8003904 <USB_ReadInterrupts>
 8001414:	0582      	lsls	r2, r0, #22
 8001416:	d46d      	bmi.n	80014f4 <HAL_PCD_IRQHandler+0x144>
#else
    HAL_PCD_SOFCallback(hpcd);
#endif /* USE_HAL_PCD_REGISTER_CALLBACKS */
  }

  if (__HAL_PCD_GET_FLAG(hpcd, USB_ISTR_ESOF))
 8001418:	6820      	ldr	r0, [r4, #0]
 800141a:	f002 fa73 	bl	8003904 <USB_ReadInterrupts>
 800141e:	05c3      	lsls	r3, r0, #23
 8001420:	d508      	bpl.n	8001434 <HAL_PCD_IRQHandler+0x84>
  {
    /* clear ESOF flag in ISTR */
    __HAL_PCD_CLEAR_FLAG(hpcd, USB_ISTR_ESOF);
 8001422:	6822      	ldr	r2, [r4, #0]
 8001424:	f8b2 3044 	ldrh.w	r3, [r2, #68]	; 0x44
 8001428:	f423 7380 	bic.w	r3, r3, #256	; 0x100
 800142c:	041b      	lsls	r3, r3, #16
 800142e:	0c1b      	lsrs	r3, r3, #16
 8001430:	f8a2 3044 	strh.w	r3, [r2, #68]	; 0x44
  }
}
 8001434:	e8bd 8ff8 	ldmia.w	sp!, {r3, r4, r5, r6, r7, r8, r9, sl, fp, pc}
      store_ep[i] = PCD_GET_ENDPOINT(hpcd->Instance, i);
 8001438:	6823      	ldr	r3, [r4, #0]
 800143a:	f8b3 9000 	ldrh.w	r9, [r3]
 800143e:	f8b3 8004 	ldrh.w	r8, [r3, #4]
 8001442:	f8b3 e008 	ldrh.w	lr, [r3, #8]
 8001446:	f8b3 c00c 	ldrh.w	ip, [r3, #12]
 800144a:	8a1f      	ldrh	r7, [r3, #16]
 800144c:	8a9e      	ldrh	r6, [r3, #20]
 800144e:	8b1d      	ldrh	r5, [r3, #24]
 8001450:	8b99      	ldrh	r1, [r3, #28]
    hpcd->Instance->CNTR |= (uint16_t)(USB_CNTR_FRES);
 8001452:	f8b3 2040 	ldrh.w	r2, [r3, #64]	; 0x40
      store_ep[i] = PCD_GET_ENDPOINT(hpcd->Instance, i);
 8001456:	fa1f f989 	uxth.w	r9, r9
    hpcd->Instance->CNTR |= (uint16_t)(USB_CNTR_FRES);
 800145a:	b292      	uxth	r2, r2
 800145c:	f042 0201 	orr.w	r2, r2, #1
 8001460:	f8a3 2040 	strh.w	r2, [r3, #64]	; 0x40
    hpcd->Instance->CNTR &= (uint16_t)(~USB_CNTR_FRES);
 8001464:	f8b3 2040 	ldrh.w	r2, [r3, #64]	; 0x40
      store_ep[i] = PCD_GET_ENDPOINT(hpcd->Instance, i);
 8001468:	fa1f f888 	uxth.w	r8, r8
    hpcd->Instance->CNTR &= (uint16_t)(~USB_CNTR_FRES);
 800146c:	f022 0201 	bic.w	r2, r2, #1
 8001470:	0412      	lsls	r2, r2, #16
 8001472:	0c12      	lsrs	r2, r2, #16
      store_ep[i] = PCD_GET_ENDPOINT(hpcd->Instance, i);
 8001474:	fa1f fe8e 	uxth.w	lr, lr
 8001478:	fa1f fc8c 	uxth.w	ip, ip
 800147c:	b2bf      	uxth	r7, r7
 800147e:	b2b6      	uxth	r6, r6
 8001480:	b2ad      	uxth	r5, r5
 8001482:	b289      	uxth	r1, r1
    hpcd->Instance->CNTR &= (uint16_t)(~USB_CNTR_FRES);
 8001484:	f8a3 2040 	strh.w	r2, [r3, #64]	; 0x40
    while ((hpcd->Instance->ISTR & USB_ISTR_RESET) == 0U)
 8001488:	f8b3 2044 	ldrh.w	r2, [r3, #68]	; 0x44
 800148c:	0550      	lsls	r0, r2, #21
 800148e:	d5fb      	bpl.n	8001488 <HAL_PCD_IRQHandler+0xd8>
    __HAL_PCD_CLEAR_FLAG(hpcd, USB_ISTR_RESET);
 8001490:	f8b3 2044 	ldrh.w	r2, [r3, #68]	; 0x44
    HAL_PCD_SuspendCallback(hpcd);
 8001494:	4620      	mov	r0, r4
    __HAL_PCD_CLEAR_FLAG(hpcd, USB_ISTR_RESET);
 8001496:	f422 6280 	bic.w	r2, r2, #1024	; 0x400
 800149a:	0412      	lsls	r2, r2, #16
 800149c:	0c12      	lsrs	r2, r2, #16
 800149e:	f8a3 2044 	strh.w	r2, [r3, #68]	; 0x44
      PCD_SET_ENDPOINT(hpcd->Instance, i, store_ep[i]);
 80014a2:	f8a3 9000 	strh.w	r9, [r3]
 80014a6:	f8a3 8004 	strh.w	r8, [r3, #4]
 80014aa:	f8a3 e008 	strh.w	lr, [r3, #8]
 80014ae:	f8a3 c00c 	strh.w	ip, [r3, #12]
 80014b2:	821f      	strh	r7, [r3, #16]
 80014b4:	829e      	strh	r6, [r3, #20]
 80014b6:	831d      	strh	r5, [r3, #24]
 80014b8:	8399      	strh	r1, [r3, #28]
    hpcd->Instance->CNTR |= (uint16_t)USB_CNTR_FSUSP;
 80014ba:	f8b3 2040 	ldrh.w	r2, [r3, #64]	; 0x40
 80014be:	b292      	uxth	r2, r2
 80014c0:	f042 0208 	orr.w	r2, r2, #8
 80014c4:	f8a3 2040 	strh.w	r2, [r3, #64]	; 0x40
    __HAL_PCD_CLEAR_FLAG(hpcd, USB_ISTR_SUSP);
 80014c8:	f8b3 2044 	ldrh.w	r2, [r3, #68]	; 0x44
 80014cc:	f422 6200 	bic.w	r2, r2, #2048	; 0x800
 80014d0:	0412      	lsls	r2, r2, #16
 80014d2:	0c12      	lsrs	r2, r2, #16
 80014d4:	f8a3 2044 	strh.w	r2, [r3, #68]	; 0x44
    hpcd->Instance->CNTR |= (uint16_t)USB_CNTR_LP_MODE;
 80014d8:	f8b3 2040 	ldrh.w	r2, [r3, #64]	; 0x40
 80014dc:	b292      	uxth	r2, r2
 80014de:	f042 0204 	orr.w	r2, r2, #4
 80014e2:	f8a3 2040 	strh.w	r2, [r3, #64]	; 0x40
    HAL_PCD_SuspendCallback(hpcd);
 80014e6:	f002 ffa5 	bl	8004434 <HAL_PCD_SuspendCallback>
  if (__HAL_PCD_GET_FLAG(hpcd, USB_ISTR_SOF))
 80014ea:	6820      	ldr	r0, [r4, #0]
 80014ec:	f002 fa0a 	bl	8003904 <USB_ReadInterrupts>
 80014f0:	0582      	lsls	r2, r0, #22
 80014f2:	d591      	bpl.n	8001418 <HAL_PCD_IRQHandler+0x68>
    __HAL_PCD_CLEAR_FLAG(hpcd, USB_ISTR_SOF);
 80014f4:	6822      	ldr	r2, [r4, #0]
    HAL_PCD_SOFCallback(hpcd);
 80014f6:	4620      	mov	r0, r4
    __HAL_PCD_CLEAR_FLAG(hpcd, USB_ISTR_SOF);
 80014f8:	f8b2 3044 	ldrh.w	r3, [r2, #68]	; 0x44
 80014fc:	f423 7300 	bic.w	r3, r3, #512	; 0x200
 8001500:	041b      	lsls	r3, r3, #16
 8001502:	0c1b      	lsrs	r3, r3, #16
 8001504:	f8a2 3044 	strh.w	r3, [r2, #68]	; 0x44
    HAL_PCD_SOFCallback(hpcd);
 8001508:	f002 ff7e 	bl	8004408 <HAL_PCD_SOFCallback>
 800150c:	e784      	b.n	8001418 <HAL_PCD_IRQHandler+0x68>
    __HAL_PCD_CLEAR_FLAG(hpcd, USB_ISTR_ERR);
 800150e:	f8b0 3044 	ldrh.w	r3, [r0, #68]	; 0x44
 8001512:	f423 5300 	bic.w	r3, r3, #8192	; 0x2000
 8001516:	041b      	lsls	r3, r3, #16
 8001518:	0c1b      	lsrs	r3, r3, #16
 800151a:	f8a0 3044 	strh.w	r3, [r0, #68]	; 0x44
  if (__HAL_PCD_GET_FLAG(hpcd, USB_ISTR_WKUP))
 800151e:	f002 f9f1 	bl	8003904 <USB_ReadInterrupts>
 8001522:	04c6      	lsls	r6, r0, #19
 8001524:	f57f af6e 	bpl.w	8001404 <HAL_PCD_IRQHandler+0x54>
    hpcd->Instance->CNTR &= (uint16_t) ~(USB_CNTR_LP_MODE);
 8001528:	6822      	ldr	r2, [r4, #0]
    HAL_PCD_ResumeCallback(hpcd);
 800152a:	4620      	mov	r0, r4
    hpcd->Instance->CNTR &= (uint16_t) ~(USB_CNTR_LP_MODE);
 800152c:	f8b2 3040 	ldrh.w	r3, [r2, #64]	; 0x40
 8001530:	f023 0304 	bic.w	r3, r3, #4
 8001534:	041b      	lsls	r3, r3, #16
 8001536:	0c1b      	lsrs	r3, r3, #16
 8001538:	f8a2 3040 	strh.w	r3, [r2, #64]	; 0x40
    hpcd->Instance->CNTR &= (uint16_t) ~(USB_CNTR_FSUSP);
 800153c:	f8b2 3040 	ldrh.w	r3, [r2, #64]	; 0x40
 8001540:	f023 0308 	bic.w	r3, r3, #8
 8001544:	041b      	lsls	r3, r3, #16
 8001546:	0c1b      	lsrs	r3, r3, #16
 8001548:	f8a2 3040 	strh.w	r3, [r2, #64]	; 0x40
    HAL_PCD_ResumeCallback(hpcd);
 800154c:	f002 ff82 	bl	8004454 <HAL_PCD_ResumeCallback>
    __HAL_PCD_CLEAR_FLAG(hpcd, USB_ISTR_WKUP);
 8001550:	6820      	ldr	r0, [r4, #0]
 8001552:	f8b0 3044 	ldrh.w	r3, [r0, #68]	; 0x44
 8001556:	f423 5380 	bic.w	r3, r3, #4096	; 0x1000
 800155a:	041b      	lsls	r3, r3, #16
 800155c:	0c1b      	lsrs	r3, r3, #16
 800155e:	f8a0 3044 	strh.w	r3, [r0, #68]	; 0x44
 8001562:	e750      	b.n	8001406 <HAL_PCD_IRQHandler+0x56>
  PCD_EPTypeDef *ep;
  uint16_t count, wIstr, wEPVal, TxByteNbre;
  uint8_t epindex;

  /* stay in loop while pending interrupts */
  while ((hpcd->Instance->ISTR & USB_ISTR_CTR) != 0U)
 8001564:	6825      	ldr	r5, [r4, #0]
 8001566:	f8b5 3044 	ldrh.w	r3, [r5, #68]	; 0x44
 800156a:	4628      	mov	r0, r5
 800156c:	041f      	lsls	r7, r3, #16
 800156e:	f57f af29 	bpl.w	80013c4 <HAL_PCD_IRQHandler+0x14>
      }
    }
  }

  /*enable endpoint IN*/
  PCD_SET_EP_TX_STATUS(hpcd->Instance, ep->num, USB_EP_TX_VALID);
 8001572:	462a      	mov	r2, r5
        PCD_CLEAR_TX_EP_CTR(hpcd->Instance, epindex);
 8001574:	f8df a9f8 	ldr.w	sl, [pc, #2552]	; 8001f70 <HAL_PCD_IRQHandler+0xbc0>
  PCD_SET_EP_TX_STATUS(hpcd->Instance, ep->num, USB_EP_TX_VALID);
 8001578:	f8df b9f8 	ldr.w	fp, [pc, #2552]	; 8001f74 <HAL_PCD_IRQHandler+0xbc4>
 800157c:	e011      	b.n	80015a2 <HAL_PCD_IRQHandler+0x1f2>
      if ((wIstr & USB_ISTR_DIR) == 0U)
 800157e:	f011 0110 	ands.w	r1, r1, #16
 8001582:	f000 814e 	beq.w	8001822 <HAL_PCD_IRQHandler+0x472>
        wEPVal = PCD_GET_ENDPOINT(hpcd->Instance, PCD_ENDP0);
 8001586:	8801      	ldrh	r1, [r0, #0]
        if ((wEPVal & USB_EP_SETUP) != 0U)
 8001588:	f411 6500 	ands.w	r5, r1, #2048	; 0x800
        wEPVal = PCD_GET_ENDPOINT(hpcd->Instance, PCD_ENDP0);
 800158c:	b28b      	uxth	r3, r1
        if ((wEPVal & USB_EP_SETUP) != 0U)
 800158e:	f040 8173 	bne.w	8001878 <HAL_PCD_IRQHandler+0x4c8>
        else if ((wEPVal & USB_EP_CTR_RX) != 0U)
 8001592:	041e      	lsls	r6, r3, #16
 8001594:	f100 81d0 	bmi.w	8001938 <HAL_PCD_IRQHandler+0x588>
  while ((hpcd->Instance->ISTR & USB_ISTR_CTR) != 0U)
 8001598:	f8b0 3044 	ldrh.w	r3, [r0, #68]	; 0x44
 800159c:	041b      	lsls	r3, r3, #16
 800159e:	f140 811c 	bpl.w	80017da <HAL_PCD_IRQHandler+0x42a>
    wIstr = hpcd->Instance->ISTR;
 80015a2:	f8b0 6044 	ldrh.w	r6, [r0, #68]	; 0x44
 80015a6:	b2b1      	uxth	r1, r6
    if (epindex == 0U)
 80015a8:	f016 060f 	ands.w	r6, r6, #15
 80015ac:	d0e7      	beq.n	800157e <HAL_PCD_IRQHandler+0x1ce>
      wEPVal = PCD_GET_ENDPOINT(hpcd->Instance, epindex);
 80015ae:	f830 3026 	ldrh.w	r3, [r0, r6, lsl #2]
 80015b2:	00b5      	lsls	r5, r6, #2
      if ((wEPVal & USB_EP_CTR_RX) != 0U)
 80015b4:	0419      	lsls	r1, r3, #16
      wEPVal = PCD_GET_ENDPOINT(hpcd->Instance, epindex);
 80015b6:	fa1f f883 	uxth.w	r8, r3
      if ((wEPVal & USB_EP_CTR_RX) != 0U)
 80015ba:	f100 809d 	bmi.w	80016f8 <HAL_PCD_IRQHandler+0x348>
      if ((wEPVal & USB_EP_CTR_TX) != 0U)
 80015be:	f018 0f80 	tst.w	r8, #128	; 0x80
 80015c2:	d0e9      	beq.n	8001598 <HAL_PCD_IRQHandler+0x1e8>
        PCD_CLEAR_TX_EP_CTR(hpcd->Instance, epindex);
 80015c4:	f830 3026 	ldrh.w	r3, [r0, r6, lsl #2]
 80015c8:	19af      	adds	r7, r5, r6
 80015ca:	b29b      	uxth	r3, r3
 80015cc:	ea03 030a 	and.w	r3, r3, sl
 80015d0:	f443 4300 	orr.w	r3, r3, #32768	; 0x8000
 80015d4:	f820 3026 	strh.w	r3, [r0, r6, lsl #2]
        if ((ep->type == EP_TYPE_INTR) || (ep->type == EP_TYPE_CTRL) ||
 80015d8:	eb04 07c7 	add.w	r7, r4, r7, lsl #3
 80015dc:	f897 302b 	ldrb.w	r3, [r7, #43]	; 0x2b
 80015e0:	2b03      	cmp	r3, #3
 80015e2:	f000 80cd 	beq.w	8001780 <HAL_PCD_IRQHandler+0x3d0>
 80015e6:	2b00      	cmp	r3, #0
 80015e8:	f000 80ca 	beq.w	8001780 <HAL_PCD_IRQHandler+0x3d0>
 80015ec:	2b02      	cmp	r3, #2
 80015ee:	d103      	bne.n	80015f8 <HAL_PCD_IRQHandler+0x248>
           ((ep->type == EP_TYPE_BULK) && ((wEPVal & USB_EP_KIND) == 0U)))
 80015f0:	f418 7f80 	tst.w	r8, #256	; 0x100
 80015f4:	f000 80c4 	beq.w	8001780 <HAL_PCD_IRQHandler+0x3d0>
    TxByteNbre = (uint16_t)PCD_GET_EP_DBUF0_CNT(hpcd->Instance, ep->num);
 80015f8:	f8b0 3050 	ldrh.w	r3, [r0, #80]	; 0x50
 80015fc:	f897 1028 	ldrb.w	r1, [r7, #40]	; 0x28
 8001600:	b29b      	uxth	r3, r3
 8001602:	eb03 03c1 	add.w	r3, r3, r1, lsl #3
  if ((wEPVal & USB_EP_DTOG_TX) != 0U)
 8001606:	f018 0c40 	ands.w	ip, r8, #64	; 0x40
    TxByteNbre = (uint16_t)PCD_GET_EP_DBUF0_CNT(hpcd->Instance, ep->num);
 800160a:	eb00 0343 	add.w	r3, r0, r3, lsl #1
  if ((wEPVal & USB_EP_DTOG_TX) != 0U)
 800160e:	f000 820b 	beq.w	8001a28 <HAL_PCD_IRQHandler+0x678>
    if (ep->xfer_len > TxByteNbre)
 8001612:	eb05 0c06 	add.w	ip, r5, r6
    TxByteNbre = (uint16_t)PCD_GET_EP_DBUF0_CNT(hpcd->Instance, ep->num);
 8001616:	f8b3 3404 	ldrh.w	r3, [r3, #1028]	; 0x404
    if (ep->xfer_len > TxByteNbre)
 800161a:	eb04 0ccc 	add.w	ip, r4, ip, lsl #3
 800161e:	f8dc e040 	ldr.w	lr, [ip, #64]	; 0x40
    TxByteNbre = (uint16_t)PCD_GET_EP_DBUF0_CNT(hpcd->Instance, ep->num);
 8001622:	f3c3 0309 	ubfx	r3, r3, #0, #10
    if (ep->xfer_len > TxByteNbre)
 8001626:	459e      	cmp	lr, r3
 8001628:	f240 831c 	bls.w	8001c64 <HAL_PCD_IRQHandler+0x8b4>
      ep->xfer_len -= TxByteNbre;
 800162c:	ebae 0e03 	sub.w	lr, lr, r3
 8001630:	f8cc e040 	str.w	lr, [ip, #64]	; 0x40
    if (ep->xfer_len == 0U)
 8001634:	f1be 0f00 	cmp.w	lr, #0
 8001638:	f000 8317 	beq.w	8001c6a <HAL_PCD_IRQHandler+0x8ba>
      if ((wEPVal & USB_EP_DTOG_RX) != 0U)
 800163c:	f418 4f80 	tst.w	r8, #16384	; 0x4000
 8001640:	d00f      	beq.n	8001662 <HAL_PCD_IRQHandler+0x2b2>
        PCD_FreeUserBuffer(hpcd->Instance, ep->num, 1U);
 8001642:	f830 c021 	ldrh.w	ip, [r0, r1, lsl #2]
 8001646:	f42c 4ce0 	bic.w	ip, ip, #28672	; 0x7000
 800164a:	f02c 0c70 	bic.w	ip, ip, #112	; 0x70
 800164e:	ea4f 4c0c 	mov.w	ip, ip, lsl #16
 8001652:	ea4f 4c1c 	mov.w	ip, ip, lsr #16
 8001656:	f44c 4c40 	orr.w	ip, ip, #49152	; 0xc000
 800165a:	f04c 0c80 	orr.w	ip, ip, #128	; 0x80
 800165e:	f820 c021 	strh.w	ip, [r0, r1, lsl #2]
      if (ep->xfer_fill_db == 1U)
 8001662:	eb05 0c06 	add.w	ip, r5, r6
 8001666:	eb04 0ccc 	add.w	ip, r4, ip, lsl #3
 800166a:	f89c 104c 	ldrb.w	r1, [ip, #76]	; 0x4c
 800166e:	2901      	cmp	r1, #1
 8001670:	f040 82e8 	bne.w	8001c44 <HAL_PCD_IRQHandler+0x894>
        if (ep->xfer_len_db >= ep->maxpacket)
 8001674:	e9dc 2811 	ldrd	r2, r8, [ip, #68]	; 0x44
        ep->xfer_buff += TxByteNbre;
 8001678:	f8dc 103c 	ldr.w	r1, [ip, #60]	; 0x3c
        if (ep->xfer_len_db >= ep->maxpacket)
 800167c:	f8dc e038 	ldr.w	lr, [ip, #56]	; 0x38
        ep->xfer_buff += TxByteNbre;
 8001680:	4419      	add	r1, r3
        ep->xfer_count += TxByteNbre;
 8001682:	441a      	add	r2, r3
        if (ep->xfer_len_db >= ep->maxpacket)
 8001684:	45f0      	cmp	r8, lr
        ep->xfer_buff += TxByteNbre;
 8001686:	f8cc 103c 	str.w	r1, [ip, #60]	; 0x3c
        ep->xfer_count += TxByteNbre;
 800168a:	f8cc 2044 	str.w	r2, [ip, #68]	; 0x44
        if (ep->xfer_len_db >= ep->maxpacket)
 800168e:	f0c0 83bd 	bcc.w	8001e0c <HAL_PCD_IRQHandler+0xa5c>
          ep->xfer_len_db -= len;
 8001692:	eba8 030e 	sub.w	r3, r8, lr
 8001696:	f8cc 3048 	str.w	r3, [ip, #72]	; 0x48
 800169a:	fa1f f38e 	uxth.w	r3, lr
        PCD_SET_EP_DBUF0_CNT(hpcd->Instance, ep->num, ep->is_in, len);
 800169e:	f897 2029 	ldrb.w	r2, [r7, #41]	; 0x29
 80016a2:	2a00      	cmp	r2, #0
 80016a4:	f040 83a2 	bne.w	8001dec <HAL_PCD_IRQHandler+0xa3c>
 80016a8:	f897 c028 	ldrb.w	ip, [r7, #40]	; 0x28
 80016ac:	f8b0 8050 	ldrh.w	r8, [r0, #80]	; 0x50
 80016b0:	eb00 1c0c 	add.w	ip, r0, ip, lsl #4
 80016b4:	f20c 4c04 	addw	ip, ip, #1028	; 0x404
 80016b8:	fa1f f888 	uxth.w	r8, r8
 80016bc:	eb0c 0908 	add.w	r9, ip, r8
 80016c0:	f1be 0f00 	cmp.w	lr, #0
 80016c4:	f040 8420 	bne.w	8001f08 <HAL_PCD_IRQHandler+0xb58>
 80016c8:	f83c 2008 	ldrh.w	r2, [ip, r8]
 80016cc:	f422 42f8 	bic.w	r2, r2, #31744	; 0x7c00
 80016d0:	0412      	lsls	r2, r2, #16
 80016d2:	0c12      	lsrs	r2, r2, #16
 80016d4:	f82c 2008 	strh.w	r2, [ip, r8]
 80016d8:	f83c 2008 	ldrh.w	r2, [ip, r8]
 80016dc:	b292      	uxth	r2, r2
 80016de:	f442 4200 	orr.w	r2, r2, #32768	; 0x8000
 80016e2:	f82c 2008 	strh.w	r2, [ip, r8]
        USB_WritePMA(hpcd->Instance, ep->xfer_buff,  ep->pmaaddr0, (uint16_t)len);
 80016e6:	19aa      	adds	r2, r5, r6
 80016e8:	eb04 02c2 	add.w	r2, r4, r2, lsl #3
 80016ec:	8e12      	ldrh	r2, [r2, #48]	; 0x30
 80016ee:	f002 f90f 	bl	8003910 <USB_WritePMA>
 80016f2:	6820      	ldr	r0, [r4, #0]
 80016f4:	4602      	mov	r2, r0
 80016f6:	e2a5      	b.n	8001c44 <HAL_PCD_IRQHandler+0x894>
        PCD_CLEAR_RX_EP_CTR(hpcd->Instance, epindex);
 80016f8:	f640 738f 	movw	r3, #3983	; 0xf8f
 80016fc:	f830 2026 	ldrh.w	r2, [r0, r6, lsl #2]
        if (ep->doublebuffer == 0U)
 8001700:	19a9      	adds	r1, r5, r6
        PCD_CLEAR_RX_EP_CTR(hpcd->Instance, epindex);
 8001702:	4013      	ands	r3, r2
 8001704:	f043 0380 	orr.w	r3, r3, #128	; 0x80
 8001708:	f820 3026 	strh.w	r3, [r0, r6, lsl #2]
        if (ep->doublebuffer == 0U)
 800170c:	eb04 01c1 	add.w	r1, r4, r1, lsl #3
 8001710:	f891 3174 	ldrb.w	r3, [r1, #372]	; 0x174
 8001714:	2b00      	cmp	r3, #0
 8001716:	f040 80d2 	bne.w	80018be <HAL_PCD_IRQHandler+0x50e>
          count = (uint16_t)PCD_GET_EP_RX_CNT(hpcd->Instance, ep->num);
 800171a:	f8b0 3050 	ldrh.w	r3, [r0, #80]	; 0x50
 800171e:	f891 2168 	ldrb.w	r2, [r1, #360]	; 0x168
 8001722:	b29b      	uxth	r3, r3
 8001724:	3306      	adds	r3, #6
 8001726:	eb03 03c2 	add.w	r3, r3, r2, lsl #3
 800172a:	eb00 0343 	add.w	r3, r0, r3, lsl #1
 800172e:	f8b3 3400 	ldrh.w	r3, [r3, #1024]	; 0x400
 8001732:	f3c3 0309 	ubfx	r3, r3, #0, #10
          if (count != 0U)
 8001736:	2b00      	cmp	r3, #0
 8001738:	f040 8165 	bne.w	8001a06 <HAL_PCD_IRQHandler+0x656>
 800173c:	461f      	mov	r7, r3
        ep->xfer_count += count;
 800173e:	19a9      	adds	r1, r5, r6
 8001740:	eb04 03c1 	add.w	r3, r4, r1, lsl #3
 8001744:	f8d3 0184 	ldr.w	r0, [r3, #388]	; 0x184
        ep->xfer_buff += count;
 8001748:	f8d3 217c 	ldr.w	r2, [r3, #380]	; 0x17c
        ep->xfer_count += count;
 800174c:	4438      	add	r0, r7
 800174e:	f8c3 0184 	str.w	r0, [r3, #388]	; 0x184
        if ((ep->xfer_len == 0U) || (count < ep->maxpacket))
 8001752:	f8d3 0180 	ldr.w	r0, [r3, #384]	; 0x180
        ep->xfer_buff += count;
 8001756:	443a      	add	r2, r7
        ep->xfer_count += count;
 8001758:	00c9      	lsls	r1, r1, #3
        ep->xfer_buff += count;
 800175a:	f8c3 217c 	str.w	r2, [r3, #380]	; 0x17c
        if ((ep->xfer_len == 0U) || (count < ep->maxpacket))
 800175e:	b120      	cbz	r0, 800176a <HAL_PCD_IRQHandler+0x3ba>
 8001760:	f8d3 3178 	ldr.w	r3, [r3, #376]	; 0x178
 8001764:	42bb      	cmp	r3, r7
 8001766:	f240 8156 	bls.w	8001a16 <HAL_PCD_IRQHandler+0x666>
          HAL_PCD_DataOutStageCallback(hpcd, ep->num);
 800176a:	19ab      	adds	r3, r5, r6
 800176c:	eb04 03c3 	add.w	r3, r4, r3, lsl #3
 8001770:	4620      	mov	r0, r4
 8001772:	f893 1168 	ldrb.w	r1, [r3, #360]	; 0x168
 8001776:	f002 fe33 	bl	80043e0 <HAL_PCD_DataOutStageCallback>
 800177a:	6820      	ldr	r0, [r4, #0]
 800177c:	4602      	mov	r2, r0
 800177e:	e71e      	b.n	80015be <HAL_PCD_IRQHandler+0x20e>
          TxByteNbre = (uint16_t)PCD_GET_EP_TX_CNT(hpcd->Instance, ep->num);
 8001780:	f8b0 3050 	ldrh.w	r3, [r0, #80]	; 0x50
 8001784:	f897 2028 	ldrb.w	r2, [r7, #40]	; 0x28
 8001788:	b29b      	uxth	r3, r3
 800178a:	eb03 03c2 	add.w	r3, r3, r2, lsl #3
          if (ep->xfer_len > TxByteNbre)
 800178e:	4435      	add	r5, r6
          TxByteNbre = (uint16_t)PCD_GET_EP_TX_CNT(hpcd->Instance, ep->num);
 8001790:	eb00 0343 	add.w	r3, r0, r3, lsl #1
 8001794:	f8b3 3404 	ldrh.w	r3, [r3, #1028]	; 0x404
          if (ep->xfer_len > TxByteNbre)
 8001798:	eb04 05c5 	add.w	r5, r4, r5, lsl #3
 800179c:	6c2a      	ldr	r2, [r5, #64]	; 0x40
 800179e:	f3c3 0309 	ubfx	r3, r3, #0, #10
 80017a2:	429a      	cmp	r2, r3
 80017a4:	f240 80be 	bls.w	8001924 <HAL_PCD_IRQHandler+0x574>
            ep->xfer_len -= TxByteNbre;
 80017a8:	1ad2      	subs	r2, r2, r3
 80017aa:	642a      	str	r2, [r5, #64]	; 0x40
          if (ep->xfer_len == 0U)
 80017ac:	2a00      	cmp	r2, #0
 80017ae:	f000 80bb 	beq.w	8001928 <HAL_PCD_IRQHandler+0x578>
            ep->xfer_count += TxByteNbre;
 80017b2:	6c6a      	ldr	r2, [r5, #68]	; 0x44
            ep->xfer_buff += TxByteNbre;
 80017b4:	6bef      	ldr	r7, [r5, #60]	; 0x3c
        ep = &hpcd->IN_ep[epindex];
 80017b6:	3601      	adds	r6, #1
            ep->xfer_buff += TxByteNbre;
 80017b8:	441f      	add	r7, r3
        ep = &hpcd->IN_ep[epindex];
 80017ba:	eb06 0686 	add.w	r6, r6, r6, lsl #2
            ep->xfer_count += TxByteNbre;
 80017be:	4413      	add	r3, r2
 80017c0:	646b      	str	r3, [r5, #68]	; 0x44
            (void)USB_EPStartXfer(hpcd->Instance, ep);
 80017c2:	eb04 01c6 	add.w	r1, r4, r6, lsl #3
            ep->xfer_buff += TxByteNbre;
 80017c6:	63ef      	str	r7, [r5, #60]	; 0x3c
            (void)USB_EPStartXfer(hpcd->Instance, ep);
 80017c8:	f001 fb0e 	bl	8002de8 <USB_EPStartXfer>
 80017cc:	6820      	ldr	r0, [r4, #0]
  while ((hpcd->Instance->ISTR & USB_ISTR_CTR) != 0U)
 80017ce:	f8b0 3044 	ldrh.w	r3, [r0, #68]	; 0x44
 80017d2:	4602      	mov	r2, r0
 80017d4:	041b      	lsls	r3, r3, #16
 80017d6:	f53f aee4 	bmi.w	80015a2 <HAL_PCD_IRQHandler+0x1f2>
 80017da:	4610      	mov	r0, r2
  if (__HAL_PCD_GET_FLAG(hpcd, USB_ISTR_RESET))
 80017dc:	f002 f892 	bl	8003904 <USB_ReadInterrupts>
 80017e0:	0547      	lsls	r7, r0, #21
 80017e2:	f57f adf4 	bpl.w	80013ce <HAL_PCD_IRQHandler+0x1e>
    __HAL_PCD_CLEAR_FLAG(hpcd, USB_ISTR_RESET);
 80017e6:	6822      	ldr	r2, [r4, #0]
    HAL_PCD_ResetCallback(hpcd);
 80017e8:	4620      	mov	r0, r4
    __HAL_PCD_CLEAR_FLAG(hpcd, USB_ISTR_RESET);
 80017ea:	f8b2 3044 	ldrh.w	r3, [r2, #68]	; 0x44
 80017ee:	f423 6380 	bic.w	r3, r3, #1024	; 0x400
 80017f2:	041b      	lsls	r3, r3, #16
 80017f4:	0c1b      	lsrs	r3, r3, #16
 80017f6:	f8a2 3044 	strh.w	r3, [r2, #68]	; 0x44
    HAL_PCD_ResetCallback(hpcd);
 80017fa:	f002 fe09 	bl	8004410 <HAL_PCD_ResetCallback>
  __HAL_LOCK(hpcd);
 80017fe:	f894 32a8 	ldrb.w	r3, [r4, #680]	; 0x2a8
 8001802:	2b01      	cmp	r3, #1
 8001804:	f43f ade3 	beq.w	80013ce <HAL_PCD_IRQHandler+0x1e>
  hpcd->USB_Address = address;
 8001808:	2500      	movs	r5, #0
  __HAL_LOCK(hpcd);
 800180a:	2301      	movs	r3, #1
  (void)USB_SetDevAddress(hpcd->Instance, address);
 800180c:	4629      	mov	r1, r5
 800180e:	6820      	ldr	r0, [r4, #0]
  __HAL_LOCK(hpcd);
 8001810:	f884 32a8 	strb.w	r3, [r4, #680]	; 0x2a8
  hpcd->USB_Address = address;
 8001814:	f884 5024 	strb.w	r5, [r4, #36]	; 0x24
  (void)USB_SetDevAddress(hpcd->Instance, address);
 8001818:	f002 f86a 	bl	80038f0 <USB_SetDevAddress>
  __HAL_UNLOCK(hpcd);
 800181c:	f884 52a8 	strb.w	r5, [r4, #680]	; 0x2a8
  return HAL_OK;
 8001820:	e5d5      	b.n	80013ce <HAL_PCD_IRQHandler+0x1e>
        PCD_CLEAR_TX_EP_CTR(hpcd->Instance, PCD_ENDP0);
 8001822:	8803      	ldrh	r3, [r0, #0]
 8001824:	b29b      	uxth	r3, r3
 8001826:	ea03 030a 	and.w	r3, r3, sl
 800182a:	f443 4300 	orr.w	r3, r3, #32768	; 0x8000
 800182e:	8003      	strh	r3, [r0, #0]
        ep->xfer_count = PCD_GET_EP_TX_CNT(hpcd->Instance, ep->num);
 8001830:	f8b0 3050 	ldrh.w	r3, [r0, #80]	; 0x50
 8001834:	f894 2028 	ldrb.w	r2, [r4, #40]	; 0x28
 8001838:	b29b      	uxth	r3, r3
 800183a:	eb03 03c2 	add.w	r3, r3, r2, lsl #3
 800183e:	eb00 0043 	add.w	r0, r0, r3, lsl #1
 8001842:	f8b0 3404 	ldrh.w	r3, [r0, #1028]	; 0x404
        ep->xfer_buff += ep->xfer_count;
 8001846:	6be2      	ldr	r2, [r4, #60]	; 0x3c
        ep->xfer_count = PCD_GET_EP_TX_CNT(hpcd->Instance, ep->num);
 8001848:	f3c3 0309 	ubfx	r3, r3, #0, #10
        ep->xfer_buff += ep->xfer_count;
 800184c:	441a      	add	r2, r3
        ep->xfer_count = PCD_GET_EP_TX_CNT(hpcd->Instance, ep->num);
 800184e:	6463      	str	r3, [r4, #68]	; 0x44
        HAL_PCD_DataInStageCallback(hpcd, 0U);
 8001850:	4620      	mov	r0, r4
        ep->xfer_buff += ep->xfer_count;
 8001852:	63e2      	str	r2, [r4, #60]	; 0x3c
        HAL_PCD_DataInStageCallback(hpcd, 0U);
 8001854:	f002 fdce 	bl	80043f4 <HAL_PCD_DataInStageCallback>
        if ((hpcd->USB_Address > 0U) && (ep->xfer_len == 0U))
 8001858:	f894 3024 	ldrb.w	r3, [r4, #36]	; 0x24
 800185c:	b363      	cbz	r3, 80018b8 <HAL_PCD_IRQHandler+0x508>
 800185e:	6c23      	ldr	r3, [r4, #64]	; 0x40
 8001860:	bb53      	cbnz	r3, 80018b8 <HAL_PCD_IRQHandler+0x508>
          hpcd->Instance->DADDR = ((uint16_t)hpcd->USB_Address | USB_DADDR_EF);
 8001862:	f894 2024 	ldrb.w	r2, [r4, #36]	; 0x24
 8001866:	6820      	ldr	r0, [r4, #0]
 8001868:	f042 0280 	orr.w	r2, r2, #128	; 0x80
 800186c:	f8a0 204c 	strh.w	r2, [r0, #76]	; 0x4c
 8001870:	4602      	mov	r2, r0
          hpcd->USB_Address = 0U;
 8001872:	f884 3024 	strb.w	r3, [r4, #36]	; 0x24
 8001876:	e68f      	b.n	8001598 <HAL_PCD_IRQHandler+0x1e8>
          ep->xfer_count = PCD_GET_EP_RX_CNT(hpcd->Instance, ep->num);
 8001878:	f8b0 3050 	ldrh.w	r3, [r0, #80]	; 0x50
 800187c:	f894 2168 	ldrb.w	r2, [r4, #360]	; 0x168
 8001880:	b29b      	uxth	r3, r3
 8001882:	eb03 03c2 	add.w	r3, r3, r2, lsl #3
 8001886:	eb00 0343 	add.w	r3, r0, r3, lsl #1
 800188a:	f8b3 340c 	ldrh.w	r3, [r3, #1036]	; 0x40c
          USB_ReadPMA(hpcd->Instance, (uint8_t *)hpcd->Setup,
 800188e:	f8b4 216e 	ldrh.w	r2, [r4, #366]	; 0x16e
 8001892:	f3c3 0309 	ubfx	r3, r3, #0, #10
          ep->xfer_count = PCD_GET_EP_RX_CNT(hpcd->Instance, ep->num);
 8001896:	f8c4 3184 	str.w	r3, [r4, #388]	; 0x184
          USB_ReadPMA(hpcd->Instance, (uint8_t *)hpcd->Setup,
 800189a:	f504 712c 	add.w	r1, r4, #688	; 0x2b0
 800189e:	f002 f847 	bl	8003930 <USB_ReadPMA>
          PCD_CLEAR_RX_EP_CTR(hpcd->Instance, PCD_ENDP0);
 80018a2:	f640 738f 	movw	r3, #3983	; 0xf8f
 80018a6:	6822      	ldr	r2, [r4, #0]
          HAL_PCD_SetupStageCallback(hpcd);
 80018a8:	4620      	mov	r0, r4
          PCD_CLEAR_RX_EP_CTR(hpcd->Instance, PCD_ENDP0);
 80018aa:	8811      	ldrh	r1, [r2, #0]
 80018ac:	400b      	ands	r3, r1
 80018ae:	f043 0380 	orr.w	r3, r3, #128	; 0x80
 80018b2:	8013      	strh	r3, [r2, #0]
          HAL_PCD_SetupStageCallback(hpcd);
 80018b4:	f002 fd8e 	bl	80043d4 <HAL_PCD_SetupStageCallback>
 80018b8:	6820      	ldr	r0, [r4, #0]
 80018ba:	4602      	mov	r2, r0
 80018bc:	e66c      	b.n	8001598 <HAL_PCD_IRQHandler+0x1e8>
          if (ep->type == EP_TYPE_BULK)
 80018be:	f891 316b 	ldrb.w	r3, [r1, #363]	; 0x16b
 80018c2:	2b02      	cmp	r3, #2
 80018c4:	f000 812e 	beq.w	8001b24 <HAL_PCD_IRQHandler+0x774>
            PCD_FreeUserBuffer(hpcd->Instance, ep->num, 0U);
 80018c8:	f891 2168 	ldrb.w	r2, [r1, #360]	; 0x168
 80018cc:	f830 3022 	ldrh.w	r3, [r0, r2, lsl #2]
 80018d0:	f423 43e0 	bic.w	r3, r3, #28672	; 0x7000
 80018d4:	f023 0370 	bic.w	r3, r3, #112	; 0x70
 80018d8:	041b      	lsls	r3, r3, #16
 80018da:	0c1b      	lsrs	r3, r3, #16
 80018dc:	f443 4300 	orr.w	r3, r3, #32768	; 0x8000
 80018e0:	f043 03c0 	orr.w	r3, r3, #192	; 0xc0
 80018e4:	f820 3022 	strh.w	r3, [r0, r2, lsl #2]
            if ((PCD_GET_ENDPOINT(hpcd->Instance, ep->num) & USB_EP_DTOG_RX) != 0U)
 80018e8:	f891 2168 	ldrb.w	r2, [r1, #360]	; 0x168
 80018ec:	f830 3022 	ldrh.w	r3, [r0, r2, lsl #2]
 80018f0:	f413 4f80 	tst.w	r3, #16384	; 0x4000
              count = (uint16_t)PCD_GET_EP_DBUF0_CNT(hpcd->Instance, ep->num);
 80018f4:	f8b0 3050 	ldrh.w	r3, [r0, #80]	; 0x50
 80018f8:	b29b      	uxth	r3, r3
            if ((PCD_GET_ENDPOINT(hpcd->Instance, ep->num) & USB_EP_DTOG_RX) != 0U)
 80018fa:	d070      	beq.n	80019de <HAL_PCD_IRQHandler+0x62e>
              count = (uint16_t)PCD_GET_EP_DBUF0_CNT(hpcd->Instance, ep->num);
 80018fc:	3302      	adds	r3, #2
 80018fe:	eb03 03c2 	add.w	r3, r3, r2, lsl #3
 8001902:	eb00 0343 	add.w	r3, r0, r3, lsl #1
 8001906:	f8b3 3400 	ldrh.w	r3, [r3, #1024]	; 0x400
 800190a:	f3c3 0309 	ubfx	r3, r3, #0, #10
              if (count != 0U)
 800190e:	2b00      	cmp	r3, #0
 8001910:	f43f af14 	beq.w	800173c <HAL_PCD_IRQHandler+0x38c>
                USB_ReadPMA(hpcd->Instance, ep->xfer_buff, ep->pmaaddr0, count);
 8001914:	f8b1 2170 	ldrh.w	r2, [r1, #368]	; 0x170
 8001918:	f8d1 117c 	ldr.w	r1, [r1, #380]	; 0x17c
 800191c:	461f      	mov	r7, r3
 800191e:	f002 f807 	bl	8003930 <USB_ReadPMA>
 8001922:	e70c      	b.n	800173e <HAL_PCD_IRQHandler+0x38e>
 8001924:	2300      	movs	r3, #0
 8001926:	642b      	str	r3, [r5, #64]	; 0x40
            HAL_PCD_DataInStageCallback(hpcd, ep->num);
 8001928:	4620      	mov	r0, r4
 800192a:	f897 1028 	ldrb.w	r1, [r7, #40]	; 0x28
 800192e:	f002 fd61 	bl	80043f4 <HAL_PCD_DataInStageCallback>
 8001932:	6820      	ldr	r0, [r4, #0]
 8001934:	4602      	mov	r2, r0
 8001936:	e62f      	b.n	8001598 <HAL_PCD_IRQHandler+0x1e8>
          PCD_CLEAR_RX_EP_CTR(hpcd->Instance, PCD_ENDP0);
 8001938:	f640 738f 	movw	r3, #3983	; 0xf8f
 800193c:	8802      	ldrh	r2, [r0, #0]
 800193e:	4013      	ands	r3, r2
 8001940:	f043 0380 	orr.w	r3, r3, #128	; 0x80
 8001944:	8003      	strh	r3, [r0, #0]
          ep->xfer_count = PCD_GET_EP_RX_CNT(hpcd->Instance, ep->num);
 8001946:	f8b0 3050 	ldrh.w	r3, [r0, #80]	; 0x50
 800194a:	f894 2168 	ldrb.w	r2, [r4, #360]	; 0x168
 800194e:	b29b      	uxth	r3, r3
 8001950:	eb03 03c2 	add.w	r3, r3, r2, lsl #3
 8001954:	eb00 0343 	add.w	r3, r0, r3, lsl #1
 8001958:	f8b3 340c 	ldrh.w	r3, [r3, #1036]	; 0x40c
 800195c:	f3c3 0309 	ubfx	r3, r3, #0, #10
 8001960:	f8c4 3184 	str.w	r3, [r4, #388]	; 0x184
          if ((ep->xfer_count != 0U) && (ep->xfer_buff != 0U))
 8001964:	b193      	cbz	r3, 800198c <HAL_PCD_IRQHandler+0x5dc>
 8001966:	f8d4 117c 	ldr.w	r1, [r4, #380]	; 0x17c
 800196a:	b179      	cbz	r1, 800198c <HAL_PCD_IRQHandler+0x5dc>
            USB_ReadPMA(hpcd->Instance, ep->xfer_buff,
 800196c:	f8b4 216e 	ldrh.w	r2, [r4, #366]	; 0x16e
 8001970:	f001 ffde 	bl	8003930 <USB_ReadPMA>
            ep->xfer_buff += ep->xfer_count;
 8001974:	f8d4 317c 	ldr.w	r3, [r4, #380]	; 0x17c
 8001978:	f8d4 2184 	ldr.w	r2, [r4, #388]	; 0x184
            HAL_PCD_DataOutStageCallback(hpcd, 0U);
 800197c:	4620      	mov	r0, r4
            ep->xfer_buff += ep->xfer_count;
 800197e:	4413      	add	r3, r2
            HAL_PCD_DataOutStageCallback(hpcd, 0U);
 8001980:	4629      	mov	r1, r5
            ep->xfer_buff += ep->xfer_count;
 8001982:	f8c4 317c 	str.w	r3, [r4, #380]	; 0x17c
            HAL_PCD_DataOutStageCallback(hpcd, 0U);
 8001986:	f002 fd2b 	bl	80043e0 <HAL_PCD_DataOutStageCallback>
 800198a:	6820      	ldr	r0, [r4, #0]
          if ((PCD_GET_ENDPOINT(hpcd->Instance, PCD_ENDP0) & USB_EP_SETUP) == 0U)
 800198c:	8803      	ldrh	r3, [r0, #0]
 800198e:	4602      	mov	r2, r0
 8001990:	051d      	lsls	r5, r3, #20
 8001992:	f53f ae01 	bmi.w	8001598 <HAL_PCD_IRQHandler+0x1e8>
            PCD_SET_EP_RX_CNT(hpcd->Instance, PCD_ENDP0, ep->maxpacket);
 8001996:	f8b0 3050 	ldrh.w	r3, [r0, #80]	; 0x50
 800199a:	f8d4 1178 	ldr.w	r1, [r4, #376]	; 0x178
 800199e:	b29b      	uxth	r3, r3
 80019a0:	f200 450c 	addw	r5, r0, #1036	; 0x40c
 80019a4:	2900      	cmp	r1, #0
 80019a6:	f040 80b2 	bne.w	8001b0e <HAL_PCD_IRQHandler+0x75e>
 80019aa:	5ae9      	ldrh	r1, [r5, r3]
 80019ac:	f421 41f8 	bic.w	r1, r1, #31744	; 0x7c00
 80019b0:	0409      	lsls	r1, r1, #16
 80019b2:	0c09      	lsrs	r1, r1, #16
 80019b4:	52e9      	strh	r1, [r5, r3]
 80019b6:	5ae9      	ldrh	r1, [r5, r3]
 80019b8:	b289      	uxth	r1, r1
 80019ba:	f441 4100 	orr.w	r1, r1, #32768	; 0x8000
 80019be:	52e9      	strh	r1, [r5, r3]
            PCD_SET_EP_RX_STATUS(hpcd->Instance, PCD_ENDP0, USB_EP_RX_VALID);
 80019c0:	8803      	ldrh	r3, [r0, #0]
 80019c2:	f423 4380 	bic.w	r3, r3, #16384	; 0x4000
 80019c6:	f023 0370 	bic.w	r3, r3, #112	; 0x70
 80019ca:	041b      	lsls	r3, r3, #16
 80019cc:	0c1b      	lsrs	r3, r3, #16
 80019ce:	f483 5340 	eor.w	r3, r3, #12288	; 0x3000
 80019d2:	f443 4300 	orr.w	r3, r3, #32768	; 0x8000
 80019d6:	f043 0380 	orr.w	r3, r3, #128	; 0x80
 80019da:	8003      	strh	r3, [r0, #0]
 80019dc:	e5dc      	b.n	8001598 <HAL_PCD_IRQHandler+0x1e8>
              count = (uint16_t)PCD_GET_EP_DBUF1_CNT(hpcd->Instance, ep->num);
 80019de:	3306      	adds	r3, #6
 80019e0:	eb03 03c2 	add.w	r3, r3, r2, lsl #3
 80019e4:	eb00 0343 	add.w	r3, r0, r3, lsl #1
 80019e8:	f8b3 3400 	ldrh.w	r3, [r3, #1024]	; 0x400
 80019ec:	f3c3 0309 	ubfx	r3, r3, #0, #10
              if (count != 0U)
 80019f0:	2b00      	cmp	r3, #0
 80019f2:	f43f aea3 	beq.w	800173c <HAL_PCD_IRQHandler+0x38c>
                USB_ReadPMA(hpcd->Instance, ep->xfer_buff, ep->pmaaddr1, count);
 80019f6:	f8b1 2172 	ldrh.w	r2, [r1, #370]	; 0x172
 80019fa:	f8d1 117c 	ldr.w	r1, [r1, #380]	; 0x17c
 80019fe:	461f      	mov	r7, r3
 8001a00:	f001 ff96 	bl	8003930 <USB_ReadPMA>
 8001a04:	e69b      	b.n	800173e <HAL_PCD_IRQHandler+0x38e>
            USB_ReadPMA(hpcd->Instance, ep->xfer_buff, ep->pmaadress, count);
 8001a06:	f8b1 216e 	ldrh.w	r2, [r1, #366]	; 0x16e
 8001a0a:	f8d1 117c 	ldr.w	r1, [r1, #380]	; 0x17c
 8001a0e:	461f      	mov	r7, r3
 8001a10:	f001 ff8e 	bl	8003930 <USB_ReadPMA>
 8001a14:	e693      	b.n	800173e <HAL_PCD_IRQHandler+0x38e>
        ep = &hpcd->OUT_ep[epindex];
 8001a16:	f501 71b4 	add.w	r1, r1, #360	; 0x168
          (void) USB_EPStartXfer(hpcd->Instance, ep);
 8001a1a:	6820      	ldr	r0, [r4, #0]
 8001a1c:	4421      	add	r1, r4
 8001a1e:	f001 f9e3 	bl	8002de8 <USB_EPStartXfer>
 8001a22:	6820      	ldr	r0, [r4, #0]
 8001a24:	4602      	mov	r2, r0
 8001a26:	e5ca      	b.n	80015be <HAL_PCD_IRQHandler+0x20e>
    if (ep->xfer_len >= TxByteNbre)
 8001a28:	eb05 0e06 	add.w	lr, r5, r6
    TxByteNbre = (uint16_t)PCD_GET_EP_DBUF1_CNT(hpcd->Instance, ep->num);
 8001a2c:	f8b3 340c 	ldrh.w	r3, [r3, #1036]	; 0x40c
    if (ep->xfer_len >= TxByteNbre)
 8001a30:	eb04 0ece 	add.w	lr, r4, lr, lsl #3
 8001a34:	f8de 9040 	ldr.w	r9, [lr, #64]	; 0x40
    TxByteNbre = (uint16_t)PCD_GET_EP_DBUF1_CNT(hpcd->Instance, ep->num);
 8001a38:	f3c3 0309 	ubfx	r3, r3, #0, #10
    if (ep->xfer_len >= TxByteNbre)
 8001a3c:	4599      	cmp	r9, r3
 8001a3e:	f0c0 80b4 	bcc.w	8001baa <HAL_PCD_IRQHandler+0x7fa>
      ep->xfer_len -= TxByteNbre;
 8001a42:	eba9 0903 	sub.w	r9, r9, r3
 8001a46:	f8ce 9040 	str.w	r9, [lr, #64]	; 0x40
    if (ep->xfer_len == 0U)
 8001a4a:	f1b9 0f00 	cmp.w	r9, #0
 8001a4e:	f000 80ae 	beq.w	8001bae <HAL_PCD_IRQHandler+0x7fe>
      if ((wEPVal & USB_EP_DTOG_RX) == 0U)
 8001a52:	f418 4f80 	tst.w	r8, #16384	; 0x4000
 8001a56:	d10f      	bne.n	8001a78 <HAL_PCD_IRQHandler+0x6c8>
        PCD_FreeUserBuffer(hpcd->Instance, ep->num, 1U);
 8001a58:	f830 c021 	ldrh.w	ip, [r0, r1, lsl #2]
 8001a5c:	f42c 4ce0 	bic.w	ip, ip, #28672	; 0x7000
 8001a60:	f02c 0c70 	bic.w	ip, ip, #112	; 0x70
 8001a64:	ea4f 4c0c 	mov.w	ip, ip, lsl #16
 8001a68:	ea4f 4c1c 	mov.w	ip, ip, lsr #16
 8001a6c:	f44c 4c40 	orr.w	ip, ip, #49152	; 0xc000
 8001a70:	f04c 0c80 	orr.w	ip, ip, #128	; 0x80
 8001a74:	f820 c021 	strh.w	ip, [r0, r1, lsl #2]
      if (ep->xfer_fill_db == 1U)
 8001a78:	eb05 0c06 	add.w	ip, r5, r6
 8001a7c:	eb04 0ccc 	add.w	ip, r4, ip, lsl #3
 8001a80:	f89c 104c 	ldrb.w	r1, [ip, #76]	; 0x4c
 8001a84:	2901      	cmp	r1, #1
 8001a86:	f040 80dd 	bne.w	8001c44 <HAL_PCD_IRQHandler+0x894>
        if (ep->xfer_len_db >= ep->maxpacket)
 8001a8a:	e9dc 2811 	ldrd	r2, r8, [ip, #68]	; 0x44
        ep->xfer_buff += TxByteNbre;
 8001a8e:	f8dc 103c 	ldr.w	r1, [ip, #60]	; 0x3c
        if (ep->xfer_len_db >= ep->maxpacket)
 8001a92:	f8dc e038 	ldr.w	lr, [ip, #56]	; 0x38
        ep->xfer_buff += TxByteNbre;
 8001a96:	4419      	add	r1, r3
        ep->xfer_count += TxByteNbre;
 8001a98:	441a      	add	r2, r3
        if (ep->xfer_len_db >= ep->maxpacket)
 8001a9a:	45f0      	cmp	r8, lr
        ep->xfer_buff += TxByteNbre;
 8001a9c:	f8cc 103c 	str.w	r1, [ip, #60]	; 0x3c
        ep->xfer_count += TxByteNbre;
 8001aa0:	f8cc 2044 	str.w	r2, [ip, #68]	; 0x44
        if (ep->xfer_len_db >= ep->maxpacket)
 8001aa4:	f0c0 81da 	bcc.w	8001e5c <HAL_PCD_IRQHandler+0xaac>
          ep->xfer_len_db -= len;
 8001aa8:	eba8 030e 	sub.w	r3, r8, lr
 8001aac:	f8cc 3048 	str.w	r3, [ip, #72]	; 0x48
 8001ab0:	fa1f f38e 	uxth.w	r3, lr
        PCD_SET_EP_DBUF1_CNT(hpcd->Instance, ep->num, ep->is_in, len);
 8001ab4:	f897 2029 	ldrb.w	r2, [r7, #41]	; 0x29
 8001ab8:	2a00      	cmp	r2, #0
 8001aba:	f040 81bf 	bne.w	8001e3c <HAL_PCD_IRQHandler+0xa8c>
 8001abe:	f897 c028 	ldrb.w	ip, [r7, #40]	; 0x28
 8001ac2:	f8b0 8050 	ldrh.w	r8, [r0, #80]	; 0x50
 8001ac6:	eb00 1c0c 	add.w	ip, r0, ip, lsl #4
 8001aca:	f20c 4c0c 	addw	ip, ip, #1036	; 0x40c
 8001ace:	fa1f f888 	uxth.w	r8, r8
 8001ad2:	eb0c 0908 	add.w	r9, ip, r8
 8001ad6:	f1be 0f00 	cmp.w	lr, #0
 8001ada:	f040 81ec 	bne.w	8001eb6 <HAL_PCD_IRQHandler+0xb06>
 8001ade:	f83c 2008 	ldrh.w	r2, [ip, r8]
 8001ae2:	f422 42f8 	bic.w	r2, r2, #31744	; 0x7c00
 8001ae6:	0412      	lsls	r2, r2, #16
 8001ae8:	0c12      	lsrs	r2, r2, #16
 8001aea:	f82c 2008 	strh.w	r2, [ip, r8]
 8001aee:	f83c 2008 	ldrh.w	r2, [ip, r8]
 8001af2:	b292      	uxth	r2, r2
 8001af4:	f442 4200 	orr.w	r2, r2, #32768	; 0x8000
 8001af8:	f82c 2008 	strh.w	r2, [ip, r8]
        USB_WritePMA(hpcd->Instance, ep->xfer_buff,  ep->pmaaddr1, (uint16_t)len);
 8001afc:	19aa      	adds	r2, r5, r6
 8001afe:	eb04 02c2 	add.w	r2, r4, r2, lsl #3
 8001b02:	8e52      	ldrh	r2, [r2, #50]	; 0x32
 8001b04:	f001 ff04 	bl	8003910 <USB_WritePMA>
 8001b08:	6820      	ldr	r0, [r4, #0]
 8001b0a:	4602      	mov	r2, r0
 8001b0c:	e09a      	b.n	8001c44 <HAL_PCD_IRQHandler+0x894>
            PCD_SET_EP_RX_CNT(hpcd->Instance, PCD_ENDP0, ep->maxpacket);
 8001b0e:	293e      	cmp	r1, #62	; 0x3e
 8001b10:	f200 80e6 	bhi.w	8001ce0 <HAL_PCD_IRQHandler+0x930>
 8001b14:	084e      	lsrs	r6, r1, #1
 8001b16:	07c9      	lsls	r1, r1, #31
 8001b18:	bf48      	it	mi
 8001b1a:	3601      	addmi	r6, #1
 8001b1c:	02b1      	lsls	r1, r6, #10
 8001b1e:	b289      	uxth	r1, r1
 8001b20:	52e9      	strh	r1, [r5, r3]
 8001b22:	e74d      	b.n	80019c0 <HAL_PCD_IRQHandler+0x610>
    count = (uint16_t)PCD_GET_EP_DBUF0_CNT(hpcd->Instance, ep->num);
 8001b24:	f8b0 3050 	ldrh.w	r3, [r0, #80]	; 0x50
  if ((wEPVal & USB_EP_DTOG_RX) != 0U)
 8001b28:	f418 4c80 	ands.w	ip, r8, #16384	; 0x4000
    count = (uint16_t)PCD_GET_EP_DBUF0_CNT(hpcd->Instance, ep->num);
 8001b2c:	f891 2168 	ldrb.w	r2, [r1, #360]	; 0x168
 8001b30:	b29b      	uxth	r3, r3
  if ((wEPVal & USB_EP_DTOG_RX) != 0U)
 8001b32:	f000 80e0 	beq.w	8001cf6 <HAL_PCD_IRQHandler+0x946>
    count = (uint16_t)PCD_GET_EP_DBUF0_CNT(hpcd->Instance, ep->num);
 8001b36:	3302      	adds	r3, #2
 8001b38:	eb03 03c2 	add.w	r3, r3, r2, lsl #3
 8001b3c:	eb00 0343 	add.w	r3, r0, r3, lsl #1
 8001b40:	f8b3 3400 	ldrh.w	r3, [r3, #1024]	; 0x400
    if (ep->xfer_len >= count)
 8001b44:	f8d1 c180 	ldr.w	ip, [r1, #384]	; 0x180
    count = (uint16_t)PCD_GET_EP_DBUF0_CNT(hpcd->Instance, ep->num);
 8001b48:	f3c3 0309 	ubfx	r3, r3, #0, #10
    if (ep->xfer_len >= count)
 8001b4c:	459c      	cmp	ip, r3
 8001b4e:	461f      	mov	r7, r3
 8001b50:	f0c0 8122 	bcc.w	8001d98 <HAL_PCD_IRQHandler+0x9e8>
      ep->xfer_len -= count;
 8001b54:	ebac 0c03 	sub.w	ip, ip, r3
 8001b58:	f8c1 c180 	str.w	ip, [r1, #384]	; 0x180
    if (ep->xfer_len == 0U)
 8001b5c:	f1bc 0f00 	cmp.w	ip, #0
 8001b60:	f000 811e 	beq.w	8001da0 <HAL_PCD_IRQHandler+0x9f0>
    if ((wEPVal & USB_EP_DTOG_TX) != 0U)
 8001b64:	f018 0f40 	tst.w	r8, #64	; 0x40
 8001b68:	d012      	beq.n	8001b90 <HAL_PCD_IRQHandler+0x7e0>
      PCD_FreeUserBuffer(hpcd->Instance, ep->num, 0U);
 8001b6a:	19aa      	adds	r2, r5, r6
 8001b6c:	eb04 02c2 	add.w	r2, r4, r2, lsl #3
 8001b70:	f892 1168 	ldrb.w	r1, [r2, #360]	; 0x168
 8001b74:	f830 2021 	ldrh.w	r2, [r0, r1, lsl #2]
 8001b78:	f422 42e0 	bic.w	r2, r2, #28672	; 0x7000
 8001b7c:	f022 0270 	bic.w	r2, r2, #112	; 0x70
 8001b80:	0412      	lsls	r2, r2, #16
 8001b82:	0c12      	lsrs	r2, r2, #16
 8001b84:	f442 4200 	orr.w	r2, r2, #32768	; 0x8000
 8001b88:	f042 02c0 	orr.w	r2, r2, #192	; 0xc0
 8001b8c:	f820 2021 	strh.w	r2, [r0, r1, lsl #2]
    if (count != 0U)
 8001b90:	2b00      	cmp	r3, #0
 8001b92:	f43f add3 	beq.w	800173c <HAL_PCD_IRQHandler+0x38c>
      USB_ReadPMA(hpcd->Instance, ep->xfer_buff, ep->pmaaddr0, count);
 8001b96:	19a9      	adds	r1, r5, r6
 8001b98:	eb04 01c1 	add.w	r1, r4, r1, lsl #3
 8001b9c:	f8b1 2170 	ldrh.w	r2, [r1, #368]	; 0x170
 8001ba0:	f8d1 117c 	ldr.w	r1, [r1, #380]	; 0x17c
 8001ba4:	f001 fec4 	bl	8003930 <USB_ReadPMA>
 8001ba8:	e5c9      	b.n	800173e <HAL_PCD_IRQHandler+0x38e>
 8001baa:	f8ce c040 	str.w	ip, [lr, #64]	; 0x40
      PCD_SET_EP_DBUF0_CNT(hpcd->Instance, ep->num, ep->is_in, 0U);
 8001bae:	f897 3029 	ldrb.w	r3, [r7, #41]	; 0x29
 8001bb2:	2b00      	cmp	r3, #0
 8001bb4:	f040 80d7 	bne.w	8001d66 <HAL_PCD_IRQHandler+0x9b6>
 8001bb8:	f8b0 2050 	ldrh.w	r2, [r0, #80]	; 0x50
 8001bbc:	eb00 1101 	add.w	r1, r0, r1, lsl #4
 8001bc0:	f201 4104 	addw	r1, r1, #1028	; 0x404
 8001bc4:	b292      	uxth	r2, r2
 8001bc6:	5a8b      	ldrh	r3, [r1, r2]
 8001bc8:	f423 43f8 	bic.w	r3, r3, #31744	; 0x7c00
 8001bcc:	041b      	lsls	r3, r3, #16
 8001bce:	0c1b      	lsrs	r3, r3, #16
 8001bd0:	528b      	strh	r3, [r1, r2]
 8001bd2:	5a8b      	ldrh	r3, [r1, r2]
 8001bd4:	b29b      	uxth	r3, r3
 8001bd6:	f443 4300 	orr.w	r3, r3, #32768	; 0x8000
 8001bda:	528b      	strh	r3, [r1, r2]
      PCD_SET_EP_DBUF1_CNT(hpcd->Instance, ep->num, ep->is_in, 0U);
 8001bdc:	f897 3029 	ldrb.w	r3, [r7, #41]	; 0x29
 8001be0:	2b00      	cmp	r3, #0
 8001be2:	f040 811a 	bne.w	8001e1a <HAL_PCD_IRQHandler+0xa6a>
 8001be6:	f897 3028 	ldrb.w	r3, [r7, #40]	; 0x28
 8001bea:	f8b0 1050 	ldrh.w	r1, [r0, #80]	; 0x50
 8001bee:	eb00 1303 	add.w	r3, r0, r3, lsl #4
 8001bf2:	f203 430c 	addw	r3, r3, #1036	; 0x40c
 8001bf6:	b289      	uxth	r1, r1
 8001bf8:	5a5a      	ldrh	r2, [r3, r1]
 8001bfa:	f422 42f8 	bic.w	r2, r2, #31744	; 0x7c00
 8001bfe:	0412      	lsls	r2, r2, #16
 8001c00:	0c12      	lsrs	r2, r2, #16
 8001c02:	525a      	strh	r2, [r3, r1]
 8001c04:	5a5a      	ldrh	r2, [r3, r1]
 8001c06:	b292      	uxth	r2, r2
 8001c08:	f442 4200 	orr.w	r2, r2, #32768	; 0x8000
 8001c0c:	525a      	strh	r2, [r3, r1]
      HAL_PCD_DataInStageCallback(hpcd, ep->num);
 8001c0e:	4620      	mov	r0, r4
 8001c10:	f897 1028 	ldrb.w	r1, [r7, #40]	; 0x28
 8001c14:	f002 fbee 	bl	80043f4 <HAL_PCD_DataInStageCallback>
      if ((wEPVal & USB_EP_DTOG_RX) == 0U)
 8001c18:	f418 4f80 	tst.w	r8, #16384	; 0x4000
        PCD_FreeUserBuffer(hpcd->Instance, ep->num, 1U);
 8001c1c:	6820      	ldr	r0, [r4, #0]
      if ((wEPVal & USB_EP_DTOG_RX) == 0U)
 8001c1e:	f47f af74 	bne.w	8001b0a <HAL_PCD_IRQHandler+0x75a>
        PCD_FreeUserBuffer(hpcd->Instance, ep->num, 1U);
 8001c22:	4602      	mov	r2, r0
 8001c24:	f897 1028 	ldrb.w	r1, [r7, #40]	; 0x28
 8001c28:	f830 3021 	ldrh.w	r3, [r0, r1, lsl #2]
 8001c2c:	f423 43e0 	bic.w	r3, r3, #28672	; 0x7000
 8001c30:	f023 0370 	bic.w	r3, r3, #112	; 0x70
 8001c34:	041b      	lsls	r3, r3, #16
 8001c36:	0c1b      	lsrs	r3, r3, #16
 8001c38:	f443 4340 	orr.w	r3, r3, #49152	; 0xc000
 8001c3c:	f043 0380 	orr.w	r3, r3, #128	; 0x80
 8001c40:	f820 3021 	strh.w	r3, [r0, r1, lsl #2]
  PCD_SET_EP_TX_STATUS(hpcd->Instance, ep->num, USB_EP_TX_VALID);
 8001c44:	f897 1028 	ldrb.w	r1, [r7, #40]	; 0x28
 8001c48:	f830 3021 	ldrh.w	r3, [r0, r1, lsl #2]
 8001c4c:	b29b      	uxth	r3, r3
 8001c4e:	ea03 030b 	and.w	r3, r3, fp
 8001c52:	f083 0330 	eor.w	r3, r3, #48	; 0x30
 8001c56:	f443 4300 	orr.w	r3, r3, #32768	; 0x8000
 8001c5a:	f043 0380 	orr.w	r3, r3, #128	; 0x80
 8001c5e:	f820 3021 	strh.w	r3, [r0, r1, lsl #2]

  return HAL_OK;
 8001c62:	e499      	b.n	8001598 <HAL_PCD_IRQHandler+0x1e8>
 8001c64:	2300      	movs	r3, #0
 8001c66:	f8cc 3040 	str.w	r3, [ip, #64]	; 0x40
      PCD_SET_EP_DBUF0_CNT(hpcd->Instance, ep->num, ep->is_in, 0U);
 8001c6a:	f897 3029 	ldrb.w	r3, [r7, #41]	; 0x29
 8001c6e:	2b00      	cmp	r3, #0
 8001c70:	f040 8086 	bne.w	8001d80 <HAL_PCD_IRQHandler+0x9d0>
 8001c74:	f8b0 2050 	ldrh.w	r2, [r0, #80]	; 0x50
 8001c78:	eb00 1101 	add.w	r1, r0, r1, lsl #4
 8001c7c:	f201 4104 	addw	r1, r1, #1028	; 0x404
 8001c80:	b292      	uxth	r2, r2
 8001c82:	5a8b      	ldrh	r3, [r1, r2]
 8001c84:	f423 43f8 	bic.w	r3, r3, #31744	; 0x7c00
 8001c88:	041b      	lsls	r3, r3, #16
 8001c8a:	0c1b      	lsrs	r3, r3, #16
 8001c8c:	528b      	strh	r3, [r1, r2]
 8001c8e:	5a8b      	ldrh	r3, [r1, r2]
 8001c90:	b29b      	uxth	r3, r3
 8001c92:	f443 4300 	orr.w	r3, r3, #32768	; 0x8000
 8001c96:	528b      	strh	r3, [r1, r2]
      PCD_SET_EP_DBUF1_CNT(hpcd->Instance, ep->num, ep->is_in, 0U);
 8001c98:	f897 3029 	ldrb.w	r3, [r7, #41]	; 0x29
 8001c9c:	2b00      	cmp	r3, #0
 8001c9e:	f040 80e4 	bne.w	8001e6a <HAL_PCD_IRQHandler+0xaba>
 8001ca2:	f897 3028 	ldrb.w	r3, [r7, #40]	; 0x28
 8001ca6:	f8b0 1050 	ldrh.w	r1, [r0, #80]	; 0x50
 8001caa:	eb00 1303 	add.w	r3, r0, r3, lsl #4
 8001cae:	f203 430c 	addw	r3, r3, #1036	; 0x40c
 8001cb2:	b289      	uxth	r1, r1
 8001cb4:	5a5a      	ldrh	r2, [r3, r1]
 8001cb6:	f422 42f8 	bic.w	r2, r2, #31744	; 0x7c00
 8001cba:	0412      	lsls	r2, r2, #16
 8001cbc:	0c12      	lsrs	r2, r2, #16
 8001cbe:	525a      	strh	r2, [r3, r1]
 8001cc0:	5a5a      	ldrh	r2, [r3, r1]
 8001cc2:	b292      	uxth	r2, r2
 8001cc4:	f442 4200 	orr.w	r2, r2, #32768	; 0x8000
 8001cc8:	525a      	strh	r2, [r3, r1]
      HAL_PCD_DataInStageCallback(hpcd, ep->num);
 8001cca:	4620      	mov	r0, r4
 8001ccc:	f897 1028 	ldrb.w	r1, [r7, #40]	; 0x28
 8001cd0:	f002 fb90 	bl	80043f4 <HAL_PCD_DataInStageCallback>
      if ((wEPVal & USB_EP_DTOG_RX) != 0U)
 8001cd4:	f418 4f80 	tst.w	r8, #16384	; 0x4000
        PCD_FreeUserBuffer(hpcd->Instance, ep->num, 1U);
 8001cd8:	6820      	ldr	r0, [r4, #0]
      if ((wEPVal & USB_EP_DTOG_RX) != 0U)
 8001cda:	d1a2      	bne.n	8001c22 <HAL_PCD_IRQHandler+0x872>
 8001cdc:	4602      	mov	r2, r0
 8001cde:	e7b1      	b.n	8001c44 <HAL_PCD_IRQHandler+0x894>
            PCD_SET_EP_RX_CNT(hpcd->Instance, PCD_ENDP0, ep->maxpacket);
 8001ce0:	094e      	lsrs	r6, r1, #5
 8001ce2:	06cf      	lsls	r7, r1, #27
 8001ce4:	49a1      	ldr	r1, [pc, #644]	; (8001f6c <HAL_PCD_IRQHandler+0xbbc>)
 8001ce6:	bf08      	it	eq
 8001ce8:	f106 36ff 	addeq.w	r6, r6, #4294967295	; 0xffffffff
 8001cec:	ea41 2186 	orr.w	r1, r1, r6, lsl #10
 8001cf0:	b289      	uxth	r1, r1
 8001cf2:	52e9      	strh	r1, [r5, r3]
 8001cf4:	e664      	b.n	80019c0 <HAL_PCD_IRQHandler+0x610>
    count = (uint16_t)PCD_GET_EP_DBUF1_CNT(hpcd->Instance, ep->num);
 8001cf6:	3306      	adds	r3, #6
 8001cf8:	eb03 03c2 	add.w	r3, r3, r2, lsl #3
 8001cfc:	eb00 0343 	add.w	r3, r0, r3, lsl #1
 8001d00:	f8b3 3400 	ldrh.w	r3, [r3, #1024]	; 0x400
    if (ep->xfer_len >= count)
 8001d04:	f8d1 e180 	ldr.w	lr, [r1, #384]	; 0x180
    count = (uint16_t)PCD_GET_EP_DBUF1_CNT(hpcd->Instance, ep->num);
 8001d08:	f3c3 0309 	ubfx	r3, r3, #0, #10
    if (ep->xfer_len >= count)
 8001d0c:	459e      	cmp	lr, r3
 8001d0e:	461f      	mov	r7, r3
 8001d10:	d357      	bcc.n	8001dc2 <HAL_PCD_IRQHandler+0xa12>
      ep->xfer_len -= count;
 8001d12:	ebae 0e03 	sub.w	lr, lr, r3
 8001d16:	f8c1 e180 	str.w	lr, [r1, #384]	; 0x180
    if (ep->xfer_len == 0U)
 8001d1a:	f1be 0f00 	cmp.w	lr, #0
 8001d1e:	d052      	beq.n	8001dc6 <HAL_PCD_IRQHandler+0xa16>
    if ((wEPVal & USB_EP_DTOG_TX) == 0U)
 8001d20:	f018 0f40 	tst.w	r8, #64	; 0x40
 8001d24:	d112      	bne.n	8001d4c <HAL_PCD_IRQHandler+0x99c>
      PCD_FreeUserBuffer(hpcd->Instance, ep->num, 0U);
 8001d26:	19aa      	adds	r2, r5, r6
 8001d28:	eb04 02c2 	add.w	r2, r4, r2, lsl #3
 8001d2c:	f892 1168 	ldrb.w	r1, [r2, #360]	; 0x168
 8001d30:	f830 2021 	ldrh.w	r2, [r0, r1, lsl #2]
 8001d34:	f422 42e0 	bic.w	r2, r2, #28672	; 0x7000
 8001d38:	f022 0270 	bic.w	r2, r2, #112	; 0x70
 8001d3c:	0412      	lsls	r2, r2, #16
 8001d3e:	0c12      	lsrs	r2, r2, #16
 8001d40:	f442 4200 	orr.w	r2, r2, #32768	; 0x8000
 8001d44:	f042 02c0 	orr.w	r2, r2, #192	; 0xc0
 8001d48:	f820 2021 	strh.w	r2, [r0, r1, lsl #2]
    if (count != 0U)
 8001d4c:	2b00      	cmp	r3, #0
 8001d4e:	f43f acf5 	beq.w	800173c <HAL_PCD_IRQHandler+0x38c>
      USB_ReadPMA(hpcd->Instance, ep->xfer_buff, ep->pmaaddr1, count);
 8001d52:	19a9      	adds	r1, r5, r6
 8001d54:	eb04 01c1 	add.w	r1, r4, r1, lsl #3
 8001d58:	f8b1 2172 	ldrh.w	r2, [r1, #370]	; 0x172
 8001d5c:	f8d1 117c 	ldr.w	r1, [r1, #380]	; 0x17c
 8001d60:	f001 fde6 	bl	8003930 <USB_ReadPMA>
 8001d64:	e4eb      	b.n	800173e <HAL_PCD_IRQHandler+0x38e>
      PCD_SET_EP_DBUF0_CNT(hpcd->Instance, ep->num, ep->is_in, 0U);
 8001d66:	2b01      	cmp	r3, #1
 8001d68:	f47f af51 	bne.w	8001c0e <HAL_PCD_IRQHandler+0x85e>
 8001d6c:	2500      	movs	r5, #0
 8001d6e:	f8b0 3050 	ldrh.w	r3, [r0, #80]	; 0x50
 8001d72:	eb00 1201 	add.w	r2, r0, r1, lsl #4
 8001d76:	f202 4204 	addw	r2, r2, #1028	; 0x404
 8001d7a:	b29b      	uxth	r3, r3
 8001d7c:	52d5      	strh	r5, [r2, r3]
 8001d7e:	e72d      	b.n	8001bdc <HAL_PCD_IRQHandler+0x82c>
      PCD_SET_EP_DBUF0_CNT(hpcd->Instance, ep->num, ep->is_in, 0U);
 8001d80:	2b01      	cmp	r3, #1
 8001d82:	d1a2      	bne.n	8001cca <HAL_PCD_IRQHandler+0x91a>
 8001d84:	2500      	movs	r5, #0
 8001d86:	f8b0 3050 	ldrh.w	r3, [r0, #80]	; 0x50
 8001d8a:	eb00 1201 	add.w	r2, r0, r1, lsl #4
 8001d8e:	f202 4204 	addw	r2, r2, #1028	; 0x404
 8001d92:	b29b      	uxth	r3, r3
 8001d94:	52d5      	strh	r5, [r2, r3]
 8001d96:	e77f      	b.n	8001c98 <HAL_PCD_IRQHandler+0x8e8>
 8001d98:	f04f 0c00 	mov.w	ip, #0
 8001d9c:	f8c1 c180 	str.w	ip, [r1, #384]	; 0x180
      PCD_SET_EP_RX_STATUS(hpcd->Instance, ep->num, USB_EP_RX_NAK);
 8001da0:	f830 1022 	ldrh.w	r1, [r0, r2, lsl #2]
 8001da4:	f421 4180 	bic.w	r1, r1, #16384	; 0x4000
 8001da8:	f021 0170 	bic.w	r1, r1, #112	; 0x70
 8001dac:	0409      	lsls	r1, r1, #16
 8001dae:	0c09      	lsrs	r1, r1, #16
 8001db0:	f481 5100 	eor.w	r1, r1, #8192	; 0x2000
 8001db4:	f441 4100 	orr.w	r1, r1, #32768	; 0x8000
 8001db8:	f041 0180 	orr.w	r1, r1, #128	; 0x80
 8001dbc:	f820 1022 	strh.w	r1, [r0, r2, lsl #2]
 8001dc0:	e6d0      	b.n	8001b64 <HAL_PCD_IRQHandler+0x7b4>
 8001dc2:	f8c1 c180 	str.w	ip, [r1, #384]	; 0x180
      PCD_SET_EP_RX_STATUS(hpcd->Instance, ep->num, USB_EP_RX_NAK);
 8001dc6:	f830 1022 	ldrh.w	r1, [r0, r2, lsl #2]
 8001dca:	f421 4180 	bic.w	r1, r1, #16384	; 0x4000
 8001dce:	f021 0170 	bic.w	r1, r1, #112	; 0x70
 8001dd2:	0409      	lsls	r1, r1, #16
 8001dd4:	0c09      	lsrs	r1, r1, #16
 8001dd6:	f481 5100 	eor.w	r1, r1, #8192	; 0x2000
 8001dda:	f441 4100 	orr.w	r1, r1, #32768	; 0x8000
 8001dde:	f041 0180 	orr.w	r1, r1, #128	; 0x80
 8001de2:	f820 1022 	strh.w	r1, [r0, r2, lsl #2]
 8001de6:	e79b      	b.n	8001d20 <HAL_PCD_IRQHandler+0x970>
 8001de8:	fa1f f388 	uxth.w	r3, r8
        PCD_SET_EP_DBUF0_CNT(hpcd->Instance, ep->num, ep->is_in, len);
 8001dec:	2a01      	cmp	r2, #1
 8001dee:	f47f ac7a 	bne.w	80016e6 <HAL_PCD_IRQHandler+0x336>
 8001df2:	f897 2028 	ldrb.w	r2, [r7, #40]	; 0x28
 8001df6:	f8b0 c050 	ldrh.w	ip, [r0, #80]	; 0x50
 8001dfa:	eb00 1202 	add.w	r2, r0, r2, lsl #4
 8001dfe:	f202 4204 	addw	r2, r2, #1028	; 0x404
 8001e02:	fa1f fc8c 	uxth.w	ip, ip
 8001e06:	f822 300c 	strh.w	r3, [r2, ip]
 8001e0a:	e46c      	b.n	80016e6 <HAL_PCD_IRQHandler+0x336>
        else if (ep->xfer_len_db == 0U)
 8001e0c:	f1b8 0f00 	cmp.w	r8, #0
 8001e10:	d162      	bne.n	8001ed8 <HAL_PCD_IRQHandler+0xb28>
          ep->xfer_fill_db = 0U;
 8001e12:	469e      	mov	lr, r3
 8001e14:	f88c 804c 	strb.w	r8, [ip, #76]	; 0x4c
 8001e18:	e441      	b.n	800169e <HAL_PCD_IRQHandler+0x2ee>
      PCD_SET_EP_DBUF1_CNT(hpcd->Instance, ep->num, ep->is_in, 0U);
 8001e1a:	2b01      	cmp	r3, #1
 8001e1c:	f47f aef7 	bne.w	8001c0e <HAL_PCD_IRQHandler+0x85e>
 8001e20:	2100      	movs	r1, #0
 8001e22:	f897 3028 	ldrb.w	r3, [r7, #40]	; 0x28
 8001e26:	f8b0 2050 	ldrh.w	r2, [r0, #80]	; 0x50
 8001e2a:	eb00 1303 	add.w	r3, r0, r3, lsl #4
 8001e2e:	f203 430c 	addw	r3, r3, #1036	; 0x40c
 8001e32:	b292      	uxth	r2, r2
 8001e34:	5299      	strh	r1, [r3, r2]
 8001e36:	e6ea      	b.n	8001c0e <HAL_PCD_IRQHandler+0x85e>
 8001e38:	fa1f f388 	uxth.w	r3, r8
        PCD_SET_EP_DBUF1_CNT(hpcd->Instance, ep->num, ep->is_in, len);
 8001e3c:	2a01      	cmp	r2, #1
 8001e3e:	f47f ae5d 	bne.w	8001afc <HAL_PCD_IRQHandler+0x74c>
 8001e42:	f897 2028 	ldrb.w	r2, [r7, #40]	; 0x28
 8001e46:	f8b0 c050 	ldrh.w	ip, [r0, #80]	; 0x50
 8001e4a:	eb00 1202 	add.w	r2, r0, r2, lsl #4
 8001e4e:	f202 420c 	addw	r2, r2, #1036	; 0x40c
 8001e52:	fa1f fc8c 	uxth.w	ip, ip
 8001e56:	f822 300c 	strh.w	r3, [r2, ip]
 8001e5a:	e64f      	b.n	8001afc <HAL_PCD_IRQHandler+0x74c>
        else if (ep->xfer_len_db == 0U)
 8001e5c:	f1b8 0f00 	cmp.w	r8, #0
 8001e60:	d112      	bne.n	8001e88 <HAL_PCD_IRQHandler+0xad8>
          ep->xfer_fill_db = 0U;
 8001e62:	469e      	mov	lr, r3
 8001e64:	f88c 804c 	strb.w	r8, [ip, #76]	; 0x4c
 8001e68:	e624      	b.n	8001ab4 <HAL_PCD_IRQHandler+0x704>
      PCD_SET_EP_DBUF1_CNT(hpcd->Instance, ep->num, ep->is_in, 0U);
 8001e6a:	2b01      	cmp	r3, #1
 8001e6c:	f47f af2d 	bne.w	8001cca <HAL_PCD_IRQHandler+0x91a>
 8001e70:	2100      	movs	r1, #0
 8001e72:	f897 3028 	ldrb.w	r3, [r7, #40]	; 0x28
 8001e76:	f8b0 2050 	ldrh.w	r2, [r0, #80]	; 0x50
 8001e7a:	eb00 1303 	add.w	r3, r0, r3, lsl #4
 8001e7e:	f203 430c 	addw	r3, r3, #1036	; 0x40c
 8001e82:	b292      	uxth	r2, r2
 8001e84:	5299      	strh	r1, [r3, r2]
 8001e86:	e720      	b.n	8001cca <HAL_PCD_IRQHandler+0x91a>
          ep->xfer_len_db = 0U;
 8001e88:	2300      	movs	r3, #0
 8001e8a:	f8cc 3048 	str.w	r3, [ip, #72]	; 0x48
          ep->xfer_fill_db = 0;
 8001e8e:	f88c 304c 	strb.w	r3, [ip, #76]	; 0x4c
        PCD_SET_EP_DBUF1_CNT(hpcd->Instance, ep->num, ep->is_in, len);
 8001e92:	f897 2029 	ldrb.w	r2, [r7, #41]	; 0x29
 8001e96:	2a00      	cmp	r2, #0
 8001e98:	d1ce      	bne.n	8001e38 <HAL_PCD_IRQHandler+0xa88>
 8001e9a:	46c6      	mov	lr, r8
 8001e9c:	f897 2028 	ldrb.w	r2, [r7, #40]	; 0x28
 8001ea0:	f8b0 3050 	ldrh.w	r3, [r0, #80]	; 0x50
 8001ea4:	eb00 1202 	add.w	r2, r0, r2, lsl #4
 8001ea8:	b29b      	uxth	r3, r3
 8001eaa:	f202 420c 	addw	r2, r2, #1036	; 0x40c
 8001eae:	eb02 0903 	add.w	r9, r2, r3
 8001eb2:	fa1f f388 	uxth.w	r3, r8
 8001eb6:	f1be 0f3e 	cmp.w	lr, #62	; 0x3e
 8001eba:	d837      	bhi.n	8001f2c <HAL_PCD_IRQHandler+0xb7c>
 8001ebc:	ea4f 0c5e 	mov.w	ip, lr, lsr #1
 8001ec0:	f01e 0f01 	tst.w	lr, #1
 8001ec4:	bf18      	it	ne
 8001ec6:	f10c 0c01 	addne.w	ip, ip, #1
 8001eca:	ea4f 2c8c 	mov.w	ip, ip, lsl #10
 8001ece:	fa1f fc8c 	uxth.w	ip, ip
 8001ed2:	f8a9 c000 	strh.w	ip, [r9]
 8001ed6:	e611      	b.n	8001afc <HAL_PCD_IRQHandler+0x74c>
          ep->xfer_fill_db = 0U;
 8001ed8:	2300      	movs	r3, #0
 8001eda:	f88c 304c 	strb.w	r3, [ip, #76]	; 0x4c
          ep->xfer_len_db = 0U;
 8001ede:	f8cc 3048 	str.w	r3, [ip, #72]	; 0x48
        PCD_SET_EP_DBUF0_CNT(hpcd->Instance, ep->num, ep->is_in, len);
 8001ee2:	f897 2029 	ldrb.w	r2, [r7, #41]	; 0x29
 8001ee6:	2a00      	cmp	r2, #0
 8001ee8:	f47f af7e 	bne.w	8001de8 <HAL_PCD_IRQHandler+0xa38>
 8001eec:	46c6      	mov	lr, r8
 8001eee:	f897 2028 	ldrb.w	r2, [r7, #40]	; 0x28
 8001ef2:	f8b0 3050 	ldrh.w	r3, [r0, #80]	; 0x50
 8001ef6:	eb00 1202 	add.w	r2, r0, r2, lsl #4
 8001efa:	b29b      	uxth	r3, r3
 8001efc:	f202 4204 	addw	r2, r2, #1028	; 0x404
 8001f00:	eb02 0903 	add.w	r9, r2, r3
 8001f04:	fa1f f388 	uxth.w	r3, r8
 8001f08:	f1be 0f3e 	cmp.w	lr, #62	; 0x3e
 8001f0c:	d81d      	bhi.n	8001f4a <HAL_PCD_IRQHandler+0xb9a>
 8001f0e:	ea4f 0c5e 	mov.w	ip, lr, lsr #1
 8001f12:	f01e 0f01 	tst.w	lr, #1
 8001f16:	bf18      	it	ne
 8001f18:	f10c 0c01 	addne.w	ip, ip, #1
 8001f1c:	ea4f 2c8c 	mov.w	ip, ip, lsl #10
 8001f20:	fa1f fc8c 	uxth.w	ip, ip
 8001f24:	f8a9 c000 	strh.w	ip, [r9]
 8001f28:	f7ff bbdd 	b.w	80016e6 <HAL_PCD_IRQHandler+0x336>
        PCD_SET_EP_DBUF1_CNT(hpcd->Instance, ep->num, ep->is_in, len);
 8001f2c:	ea4f 1c5e 	mov.w	ip, lr, lsr #5
 8001f30:	4a0e      	ldr	r2, [pc, #56]	; (8001f6c <HAL_PCD_IRQHandler+0xbbc>)
 8001f32:	f01e 0f1f 	tst.w	lr, #31
 8001f36:	bf08      	it	eq
 8001f38:	f10c 3cff 	addeq.w	ip, ip, #4294967295	; 0xffffffff
 8001f3c:	ea42 2c8c 	orr.w	ip, r2, ip, lsl #10
 8001f40:	fa1f fc8c 	uxth.w	ip, ip
 8001f44:	f8a9 c000 	strh.w	ip, [r9]
 8001f48:	e5d8      	b.n	8001afc <HAL_PCD_IRQHandler+0x74c>
        PCD_SET_EP_DBUF0_CNT(hpcd->Instance, ep->num, ep->is_in, len);
 8001f4a:	ea4f 1c5e 	mov.w	ip, lr, lsr #5
 8001f4e:	4a07      	ldr	r2, [pc, #28]	; (8001f6c <HAL_PCD_IRQHandler+0xbbc>)
 8001f50:	f01e 0f1f 	tst.w	lr, #31
 8001f54:	bf08      	it	eq
 8001f56:	f10c 3cff 	addeq.w	ip, ip, #4294967295	; 0xffffffff
 8001f5a:	ea42 2c8c 	orr.w	ip, r2, ip, lsl #10
 8001f5e:	fa1f fc8c 	uxth.w	ip, ip
 8001f62:	f8a9 c000 	strh.w	ip, [r9]
 8001f66:	f7ff bbbe 	b.w	80016e6 <HAL_PCD_IRQHandler+0x336>
 8001f6a:	bf00      	nop
 8001f6c:	ffff8000 	.word	0xffff8000
 8001f70:	ffff8f0f 	.word	0xffff8f0f
 8001f74:	ffff8fbf 	.word	0xffff8fbf

08001f78 <HAL_PCD_SetAddress>:
  __HAL_LOCK(hpcd);
 8001f78:	f890 22a8 	ldrb.w	r2, [r0, #680]	; 0x2a8
 8001f7c:	2a01      	cmp	r2, #1
 8001f7e:	d00d      	beq.n	8001f9c <HAL_PCD_SetAddress+0x24>
 8001f80:	2201      	movs	r2, #1
{
 8001f82:	b510      	push	{r4, lr}
 8001f84:	4604      	mov	r4, r0
  hpcd->USB_Address = address;
 8001f86:	f880 1024 	strb.w	r1, [r0, #36]	; 0x24
  __HAL_LOCK(hpcd);
 8001f8a:	f880 22a8 	strb.w	r2, [r0, #680]	; 0x2a8
  (void)USB_SetDevAddress(hpcd->Instance, address);
 8001f8e:	6800      	ldr	r0, [r0, #0]
 8001f90:	f001 fcae 	bl	80038f0 <USB_SetDevAddress>
  __HAL_UNLOCK(hpcd);
 8001f94:	2000      	movs	r0, #0
 8001f96:	f884 02a8 	strb.w	r0, [r4, #680]	; 0x2a8
}
 8001f9a:	bd10      	pop	{r4, pc}
  __HAL_LOCK(hpcd);
 8001f9c:	2002      	movs	r0, #2
}
 8001f9e:	4770      	bx	lr

08001fa0 <HAL_PCD_EP_Open>:
{
 8001fa0:	b570      	push	{r4, r5, r6, lr}
 8001fa2:	4606      	mov	r6, r0
  if ((ep_addr & 0x80U) == 0x80U)
 8001fa4:	0608      	lsls	r0, r1, #24
 8001fa6:	d423      	bmi.n	8001ff0 <HAL_PCD_EP_Open+0x50>
    ep->is_in = 0U;
 8001fa8:	2400      	movs	r4, #0
 8001faa:	f001 0507 	and.w	r5, r1, #7
    ep = &hpcd->OUT_ep[ep_addr & EP_ADDR_MSK];
 8001fae:	eb05 0085 	add.w	r0, r5, r5, lsl #2
 8001fb2:	00c0      	lsls	r0, r0, #3
 8001fb4:	f500 71b4 	add.w	r1, r0, #360	; 0x168
    ep->is_in = 0U;
 8001fb8:	4430      	add	r0, r6
    ep = &hpcd->OUT_ep[ep_addr & EP_ADDR_MSK];
 8001fba:	4431      	add	r1, r6
    ep->is_in = 0U;
 8001fbc:	f880 4169 	strb.w	r4, [r0, #361]	; 0x169
  if (ep->is_in != 0U)
 8001fc0:	7848      	ldrb	r0, [r1, #1]
  ep->num = ep_addr & EP_ADDR_MSK;
 8001fc2:	700d      	strb	r5, [r1, #0]
  ep->maxpacket = ep_mps;
 8001fc4:	610a      	str	r2, [r1, #16]
  ep->type = ep_type;
 8001fc6:	70cb      	strb	r3, [r1, #3]
  if (ep->is_in != 0U)
 8001fc8:	b100      	cbz	r0, 8001fcc <HAL_PCD_EP_Open+0x2c>
    ep->tx_fifo_num = ep->num;
 8001fca:	81cd      	strh	r5, [r1, #14]
  if (ep_type == EP_TYPE_BULK)
 8001fcc:	2b02      	cmp	r3, #2
    ep->data_pid_start = 0U;
 8001fce:	bf04      	itt	eq
 8001fd0:	2300      	moveq	r3, #0
 8001fd2:	710b      	strbeq	r3, [r1, #4]
  __HAL_LOCK(hpcd);
 8001fd4:	f896 32a8 	ldrb.w	r3, [r6, #680]	; 0x2a8
 8001fd8:	2b01      	cmp	r3, #1
 8001fda:	d013      	beq.n	8002004 <HAL_PCD_EP_Open+0x64>
 8001fdc:	2301      	movs	r3, #1
  (void)USB_ActivateEndpoint(hpcd->Instance, ep);
 8001fde:	6830      	ldr	r0, [r6, #0]
  __HAL_LOCK(hpcd);
 8001fe0:	f886 32a8 	strb.w	r3, [r6, #680]	; 0x2a8
  (void)USB_ActivateEndpoint(hpcd->Instance, ep);
 8001fe4:	f000 fc88 	bl	80028f8 <USB_ActivateEndpoint>
  __HAL_UNLOCK(hpcd);
 8001fe8:	2000      	movs	r0, #0
 8001fea:	f886 02a8 	strb.w	r0, [r6, #680]	; 0x2a8
}
 8001fee:	bd70      	pop	{r4, r5, r6, pc}
    ep->is_in = 1U;
 8001ff0:	2001      	movs	r0, #1
 8001ff2:	f001 0507 	and.w	r5, r1, #7
    ep = &hpcd->IN_ep[ep_addr & EP_ADDR_MSK];
 8001ff6:	182c      	adds	r4, r5, r0
 8001ff8:	eb04 0484 	add.w	r4, r4, r4, lsl #2
 8001ffc:	eb06 01c4 	add.w	r1, r6, r4, lsl #3
    ep->is_in = 1U;
 8002000:	7048      	strb	r0, [r1, #1]
 8002002:	e7dd      	b.n	8001fc0 <HAL_PCD_EP_Open+0x20>
  __HAL_LOCK(hpcd);
 8002004:	2002      	movs	r0, #2
}
 8002006:	bd70      	pop	{r4, r5, r6, pc}

08002008 <HAL_PCD_EP_Close>:
  if ((ep_addr & 0x80U) == 0x80U)
 8002008:	060b      	lsls	r3, r1, #24
{
 800200a:	b510      	push	{r4, lr}
 800200c:	4604      	mov	r4, r0
  if ((ep_addr & 0x80U) == 0x80U)
 800200e:	d41a      	bmi.n	8002046 <HAL_PCD_EP_Close+0x3e>
    ep->is_in = 0U;
 8002010:	2000      	movs	r0, #0
 8002012:	f001 0307 	and.w	r3, r1, #7
    ep = &hpcd->OUT_ep[ep_addr & EP_ADDR_MSK];
 8002016:	eb03 0283 	add.w	r2, r3, r3, lsl #2
 800201a:	00d2      	lsls	r2, r2, #3
 800201c:	f502 71b4 	add.w	r1, r2, #360	; 0x168
 8002020:	4421      	add	r1, r4
    ep->is_in = 0U;
 8002022:	4422      	add	r2, r4
 8002024:	f882 0169 	strb.w	r0, [r2, #361]	; 0x169
  ep->num   = ep_addr & EP_ADDR_MSK;
 8002028:	700b      	strb	r3, [r1, #0]
  __HAL_LOCK(hpcd);
 800202a:	f894 32a8 	ldrb.w	r3, [r4, #680]	; 0x2a8
 800202e:	2b01      	cmp	r3, #1
 8002030:	d017      	beq.n	8002062 <HAL_PCD_EP_Close+0x5a>
 8002032:	2301      	movs	r3, #1
  (void)USB_DeactivateEndpoint(hpcd->Instance, ep);
 8002034:	6820      	ldr	r0, [r4, #0]
  __HAL_LOCK(hpcd);
 8002036:	f884 32a8 	strb.w	r3, [r4, #680]	; 0x2a8
  (void)USB_DeactivateEndpoint(hpcd->Instance, ep);
 800203a:	f000 fddf 	bl	8002bfc <USB_DeactivateEndpoint>
  __HAL_UNLOCK(hpcd);
 800203e:	2000      	movs	r0, #0
 8002040:	f884 02a8 	strb.w	r0, [r4, #680]	; 0x2a8
}
 8002044:	bd10      	pop	{r4, pc}
    ep->is_in = 1U;
 8002046:	2201      	movs	r2, #1
 8002048:	f001 0307 	and.w	r3, r1, #7
    ep = &hpcd->IN_ep[ep_addr & EP_ADDR_MSK];
 800204c:	1899      	adds	r1, r3, r2
 800204e:	eb01 0181 	add.w	r1, r1, r1, lsl #2
 8002052:	eb00 01c1 	add.w	r1, r0, r1, lsl #3
    ep->is_in = 1U;
 8002056:	704a      	strb	r2, [r1, #1]
  ep->num   = ep_addr & EP_ADDR_MSK;
 8002058:	700b      	strb	r3, [r1, #0]
  __HAL_LOCK(hpcd);
 800205a:	f894 32a8 	ldrb.w	r3, [r4, #680]	; 0x2a8
 800205e:	2b01      	cmp	r3, #1
 8002060:	d1e7      	bne.n	8002032 <HAL_PCD_EP_Close+0x2a>
 8002062:	2002      	movs	r0, #2
}
 8002064:	bd10      	pop	{r4, pc}
 8002066:	bf00      	nop

08002068 <HAL_PCD_EP_Receive>:
{
 8002068:	b570      	push	{r4, r5, r6, lr}
  ep->xfer_count = 0U;
 800206a:	2600      	movs	r6, #0
 800206c:	f001 0507 	and.w	r5, r1, #7
  ep->xfer_buff = pBuf;
 8002070:	eb05 0185 	add.w	r1, r5, r5, lsl #2
 8002074:	eb00 04c1 	add.w	r4, r0, r1, lsl #3
  ep->xfer_len = len;
 8002078:	e9c4 235f 	strd	r2, r3, [r4, #380]	; 0x17c
    (void)USB_EPStartXfer(hpcd->Instance, ep);
 800207c:	6800      	ldr	r0, [r0, #0]
  ep->num = ep_addr & EP_ADDR_MSK;
 800207e:	f884 5168 	strb.w	r5, [r4, #360]	; 0x168
    (void)USB_EPStartXfer(hpcd->Instance, ep);
 8002082:	f504 71b4 	add.w	r1, r4, #360	; 0x168
  ep->xfer_count = 0U;
 8002086:	f8c4 6184 	str.w	r6, [r4, #388]	; 0x184
  ep->is_in = 0U;
 800208a:	f884 6169 	strb.w	r6, [r4, #361]	; 0x169
    (void)USB_EPStartXfer(hpcd->Instance, ep);
 800208e:	f000 feab 	bl	8002de8 <USB_EPStartXfer>
}
 8002092:	4630      	mov	r0, r6
 8002094:	bd70      	pop	{r4, r5, r6, pc}
 8002096:	bf00      	nop

08002098 <HAL_PCD_EP_Transmit>:
{
 8002098:	b5f8      	push	{r3, r4, r5, r6, r7, lr}
  ep->xfer_fill_db = 1U;
 800209a:	2701      	movs	r7, #1
  ep->xfer_count = 0U;
 800209c:	2600      	movs	r6, #0
 800209e:	f001 0507 	and.w	r5, r1, #7
  ep->xfer_buff = pBuf;
 80020a2:	eb05 0485 	add.w	r4, r5, r5, lsl #2
  ep = &hpcd->IN_ep[ep_addr & EP_ADDR_MSK];
 80020a6:	19e9      	adds	r1, r5, r7
  ep->xfer_buff = pBuf;
 80020a8:	eb00 04c4 	add.w	r4, r0, r4, lsl #3
  ep = &hpcd->IN_ep[ep_addr & EP_ADDR_MSK];
 80020ac:	eb01 0181 	add.w	r1, r1, r1, lsl #2
    (void)USB_EPStartXfer(hpcd->Instance, ep);
 80020b0:	eb00 01c1 	add.w	r1, r0, r1, lsl #3
  ep->xfer_buff = pBuf;
 80020b4:	63e2      	str	r2, [r4, #60]	; 0x3c
    (void)USB_EPStartXfer(hpcd->Instance, ep);
 80020b6:	6800      	ldr	r0, [r0, #0]
  ep->xfer_len = len;
 80020b8:	6423      	str	r3, [r4, #64]	; 0x40
  ep->xfer_len_db = len;
 80020ba:	64a3      	str	r3, [r4, #72]	; 0x48
  ep->num = ep_addr & EP_ADDR_MSK;
 80020bc:	f884 5028 	strb.w	r5, [r4, #40]	; 0x28
  ep->xfer_fill_db = 1U;
 80020c0:	f884 704c 	strb.w	r7, [r4, #76]	; 0x4c
  ep->is_in = 1U;
 80020c4:	f884 7029 	strb.w	r7, [r4, #41]	; 0x29
  ep->xfer_count = 0U;
 80020c8:	6466      	str	r6, [r4, #68]	; 0x44
    (void)USB_EPStartXfer(hpcd->Instance, ep);
 80020ca:	f000 fe8d 	bl	8002de8 <USB_EPStartXfer>
}
 80020ce:	4630      	mov	r0, r6
 80020d0:	bdf8      	pop	{r3, r4, r5, r6, r7, pc}
 80020d2:	bf00      	nop

080020d4 <HAL_PCD_EP_SetStall>:
{
 80020d4:	b538      	push	{r3, r4, r5, lr}
  if (((uint32_t)ep_addr & EP_ADDR_MSK) > hpcd->Init.dev_endpoints)
 80020d6:	6843      	ldr	r3, [r0, #4]
 80020d8:	f001 0507 	and.w	r5, r1, #7
 80020dc:	429d      	cmp	r5, r3
 80020de:	d82d      	bhi.n	800213c <HAL_PCD_EP_SetStall+0x68>
  if ((0x80U & ep_addr) == 0x80U)
 80020e0:	060b      	lsls	r3, r1, #24
 80020e2:	4604      	mov	r4, r0
 80020e4:	d41a      	bmi.n	800211c <HAL_PCD_EP_SetStall+0x48>
    ep->is_in = 0U;
 80020e6:	2000      	movs	r0, #0
    ep = &hpcd->OUT_ep[ep_addr];
 80020e8:	eb01 0181 	add.w	r1, r1, r1, lsl #2
 80020ec:	00c9      	lsls	r1, r1, #3
    ep->is_in = 0U;
 80020ee:	1863      	adds	r3, r4, r1
 80020f0:	f883 0169 	strb.w	r0, [r3, #361]	; 0x169
  ep->is_stall = 1U;
 80020f4:	2301      	movs	r3, #1
    ep = &hpcd->OUT_ep[ep_addr];
 80020f6:	f501 72b4 	add.w	r2, r1, #360	; 0x168
 80020fa:	18a1      	adds	r1, r4, r2
  ep->num = ep_addr & EP_ADDR_MSK;
 80020fc:	700d      	strb	r5, [r1, #0]
  ep->is_stall = 1U;
 80020fe:	708b      	strb	r3, [r1, #2]
  __HAL_LOCK(hpcd);
 8002100:	f894 22a8 	ldrb.w	r2, [r4, #680]	; 0x2a8
 8002104:	429a      	cmp	r2, r3
 8002106:	d017      	beq.n	8002138 <HAL_PCD_EP_SetStall+0x64>
  (void)USB_EPSetStall(hpcd->Instance, ep);
 8002108:	6820      	ldr	r0, [r4, #0]
  __HAL_LOCK(hpcd);
 800210a:	f884 32a8 	strb.w	r3, [r4, #680]	; 0x2a8
  (void)USB_EPSetStall(hpcd->Instance, ep);
 800210e:	f001 fb6f 	bl	80037f0 <USB_EPSetStall>
  if ((ep_addr & EP_ADDR_MSK) == 0U)
 8002112:	b1ad      	cbz	r5, 8002140 <HAL_PCD_EP_SetStall+0x6c>
  __HAL_UNLOCK(hpcd);
 8002114:	2000      	movs	r0, #0
 8002116:	f884 02a8 	strb.w	r0, [r4, #680]	; 0x2a8
}
 800211a:	bd38      	pop	{r3, r4, r5, pc}
    ep->is_in = 1U;
 800211c:	2301      	movs	r3, #1
    ep = &hpcd->IN_ep[ep_addr & EP_ADDR_MSK];
 800211e:	18e9      	adds	r1, r5, r3
 8002120:	eb01 0181 	add.w	r1, r1, r1, lsl #2
 8002124:	eb00 01c1 	add.w	r1, r0, r1, lsl #3
    ep->is_in = 1U;
 8002128:	704b      	strb	r3, [r1, #1]
  ep->is_stall = 1U;
 800212a:	2301      	movs	r3, #1
  ep->num = ep_addr & EP_ADDR_MSK;
 800212c:	700d      	strb	r5, [r1, #0]
  ep->is_stall = 1U;
 800212e:	708b      	strb	r3, [r1, #2]
  __HAL_LOCK(hpcd);
 8002130:	f894 22a8 	ldrb.w	r2, [r4, #680]	; 0x2a8
 8002134:	429a      	cmp	r2, r3
 8002136:	d1e7      	bne.n	8002108 <HAL_PCD_EP_SetStall+0x34>
 8002138:	2002      	movs	r0, #2
}
 800213a:	bd38      	pop	{r3, r4, r5, pc}
    return HAL_ERROR;
 800213c:	2001      	movs	r0, #1
}
 800213e:	bd38      	pop	{r3, r4, r5, pc}
    (void)USB_EP0_OutStart(hpcd->Instance, (uint8_t *)hpcd->Setup);
 8002140:	6820      	ldr	r0, [r4, #0]
 8002142:	f504 712c 	add.w	r1, r4, #688	; 0x2b0
 8002146:	f001 fbe1 	bl	800390c <USB_EP0_OutStart>
 800214a:	e7e3      	b.n	8002114 <HAL_PCD_EP_SetStall+0x40>

0800214c <HAL_PCD_EP_ClrStall>:
{
 800214c:	b538      	push	{r3, r4, r5, lr}
  if (((uint32_t)ep_addr & 0x0FU) > hpcd->Init.dev_endpoints)
 800214e:	6843      	ldr	r3, [r0, #4]
 8002150:	f001 020f 	and.w	r2, r1, #15
 8002154:	429a      	cmp	r2, r3
 8002156:	d831      	bhi.n	80021bc <HAL_PCD_EP_ClrStall+0x70>
  if ((0x80U & ep_addr) == 0x80U)
 8002158:	060b      	lsls	r3, r1, #24
 800215a:	4604      	mov	r4, r0
 800215c:	d41c      	bmi.n	8002198 <HAL_PCD_EP_ClrStall+0x4c>
    ep->is_in = 0U;
 800215e:	2000      	movs	r0, #0
  ep->is_stall = 0U;
 8002160:	2500      	movs	r5, #0
 8002162:	f001 0307 	and.w	r3, r1, #7
    ep = &hpcd->OUT_ep[ep_addr & EP_ADDR_MSK];
 8002166:	eb03 0283 	add.w	r2, r3, r3, lsl #2
 800216a:	00d2      	lsls	r2, r2, #3
 800216c:	f502 71b4 	add.w	r1, r2, #360	; 0x168
 8002170:	4421      	add	r1, r4
    ep->is_in = 0U;
 8002172:	4422      	add	r2, r4
 8002174:	f882 0169 	strb.w	r0, [r2, #361]	; 0x169
  ep->num = ep_addr & EP_ADDR_MSK;
 8002178:	700b      	strb	r3, [r1, #0]
  ep->is_stall = 0U;
 800217a:	708d      	strb	r5, [r1, #2]
  __HAL_LOCK(hpcd);
 800217c:	f894 32a8 	ldrb.w	r3, [r4, #680]	; 0x2a8
 8002180:	2b01      	cmp	r3, #1
 8002182:	d019      	beq.n	80021b8 <HAL_PCD_EP_ClrStall+0x6c>
 8002184:	2301      	movs	r3, #1
  (void)USB_EPClearStall(hpcd->Instance, ep);
 8002186:	6820      	ldr	r0, [r4, #0]
  __HAL_LOCK(hpcd);
 8002188:	f884 32a8 	strb.w	r3, [r4, #680]	; 0x2a8
  (void)USB_EPClearStall(hpcd->Instance, ep);
 800218c:	f001 fb58 	bl	8003840 <USB_EPClearStall>
  __HAL_UNLOCK(hpcd);
 8002190:	f884 52a8 	strb.w	r5, [r4, #680]	; 0x2a8
  return HAL_OK;
 8002194:	4628      	mov	r0, r5
}
 8002196:	bd38      	pop	{r3, r4, r5, pc}
    ep->is_in = 1U;
 8002198:	2201      	movs	r2, #1
  ep->is_stall = 0U;
 800219a:	2500      	movs	r5, #0
 800219c:	f001 0307 	and.w	r3, r1, #7
    ep = &hpcd->IN_ep[ep_addr & EP_ADDR_MSK];
 80021a0:	1899      	adds	r1, r3, r2
 80021a2:	eb01 0181 	add.w	r1, r1, r1, lsl #2
 80021a6:	eb00 01c1 	add.w	r1, r0, r1, lsl #3
    ep->is_in = 1U;
 80021aa:	704a      	strb	r2, [r1, #1]
  ep->num = ep_addr & EP_ADDR_MSK;
 80021ac:	700b      	strb	r3, [r1, #0]
  ep->is_stall = 0U;
 80021ae:	708d      	strb	r5, [r1, #2]
  __HAL_LOCK(hpcd);
 80021b0:	f894 32a8 	ldrb.w	r3, [r4, #680]	; 0x2a8
 80021b4:	2b01      	cmp	r3, #1
 80021b6:	d1e5      	bne.n	8002184 <HAL_PCD_EP_ClrStall+0x38>
 80021b8:	2002      	movs	r0, #2
}
 80021ba:	bd38      	pop	{r3, r4, r5, pc}
    return HAL_ERROR;
 80021bc:	2001      	movs	r0, #1
}
 80021be:	bd38      	pop	{r3, r4, r5, pc}

080021c0 <HAL_PCDEx_PMAConfig>:
                                       uint16_t ep_kind, uint32_t pmaadress)
{
  PCD_EPTypeDef *ep;

  /* initialize ep structure*/
  if ((0x80U & ep_addr) == 0x80U)
 80021c0:	f011 0f80 	tst.w	r1, #128	; 0x80
 80021c4:	d00b      	beq.n	80021de <HAL_PCDEx_PMAConfig+0x1e>
  {
    ep = &hpcd->IN_ep[ep_addr & EP_ADDR_MSK];
 80021c6:	f001 0107 	and.w	r1, r1, #7
 80021ca:	3101      	adds	r1, #1
 80021cc:	eb01 0181 	add.w	r1, r1, r1, lsl #2
 80021d0:	eb00 01c1 	add.w	r1, r0, r1, lsl #3
  {
    ep = &hpcd->OUT_ep[ep_addr];
  }

  /* Here we check if the endpoint is single or double Buffer*/
  if (ep_kind == PCD_SNG_BUF)
 80021d4:	b95a      	cbnz	r2, 80021ee <HAL_PCDEx_PMAConfig+0x2e>
    ep->pmaaddr0 = (uint16_t)(pmaadress & 0xFFFFU);
    ep->pmaaddr1 = (uint16_t)((pmaadress & 0xFFFF0000U) >> 16);
  }

  return HAL_OK;
}
 80021d6:	2000      	movs	r0, #0
    ep->pmaadress = (uint16_t)pmaadress;
 80021d8:	80cb      	strh	r3, [r1, #6]
 80021da:	730a      	strb	r2, [r1, #12]
}
 80021dc:	4770      	bx	lr
    ep = &hpcd->OUT_ep[ep_addr];
 80021de:	eb01 0181 	add.w	r1, r1, r1, lsl #2
 80021e2:	eb00 01c1 	add.w	r1, r0, r1, lsl #3
 80021e6:	f501 71b4 	add.w	r1, r1, #360	; 0x168
  if (ep_kind == PCD_SNG_BUF)
 80021ea:	2a00      	cmp	r2, #0
 80021ec:	d0f3      	beq.n	80021d6 <HAL_PCDEx_PMAConfig+0x16>
    ep->doublebuffer = 1U;
 80021ee:	2201      	movs	r2, #1
}
 80021f0:	2000      	movs	r0, #0
    ep->pmaaddr0 = (uint16_t)(pmaadress & 0xFFFFU);
 80021f2:	608b      	str	r3, [r1, #8]
 80021f4:	730a      	strb	r2, [r1, #12]
}
 80021f6:	4770      	bx	lr

080021f8 <HAL_RCC_OscConfig>:
{
  uint32_t tickstart;
  uint32_t pll_config;

  /* Check Null pointer */
  if (RCC_OscInitStruct == NULL)
 80021f8:	2800      	cmp	r0, #0
 80021fa:	f000 81c3 	beq.w	8002584 <HAL_RCC_OscConfig+0x38c>
{
 80021fe:	e92d 41f0 	stmdb	sp!, {r4, r5, r6, r7, r8, lr}

  /* Check the parameters */
  assert_param(IS_RCC_OSCILLATORTYPE(RCC_OscInitStruct->OscillatorType));

  /*------------------------------- HSE Configuration ------------------------*/
  if (((RCC_OscInitStruct->OscillatorType) & RCC_OSCILLATORTYPE_HSE) == RCC_OSCILLATORTYPE_HSE)
 8002202:	6803      	ldr	r3, [r0, #0]
 8002204:	4604      	mov	r4, r0
 8002206:	07dd      	lsls	r5, r3, #31
{
 8002208:	b082      	sub	sp, #8
  if (((RCC_OscInitStruct->OscillatorType) & RCC_OSCILLATORTYPE_HSE) == RCC_OSCILLATORTYPE_HSE)
 800220a:	d535      	bpl.n	8002278 <HAL_RCC_OscConfig+0x80>
  {
    /* Check the parameters */
    assert_param(IS_RCC_HSE(RCC_OscInitStruct->HSEState));

    /* When the HSE is used as system clock or clock source for PLL in these cases it is not allowed to be disabled */
    if ((__HAL_RCC_GET_SYSCLK_SOURCE() == RCC_SYSCLKSOURCE_STATUS_HSE)
 800220c:	49a6      	ldr	r1, [pc, #664]	; (80024a8 <HAL_RCC_OscConfig+0x2b0>)
 800220e:	684a      	ldr	r2, [r1, #4]
 8002210:	f002 020c 	and.w	r2, r2, #12
 8002214:	2a04      	cmp	r2, #4
 8002216:	f000 80ef 	beq.w	80023f8 <HAL_RCC_OscConfig+0x200>
        || ((__HAL_RCC_GET_SYSCLK_SOURCE() == RCC_SYSCLKSOURCE_STATUS_PLLCLK) && (__HAL_RCC_GET_PLL_OSCSOURCE() == RCC_PLLSOURCE_HSE)))
 800221a:	684a      	ldr	r2, [r1, #4]
 800221c:	f002 020c 	and.w	r2, r2, #12
 8002220:	2a08      	cmp	r2, #8
 8002222:	f000 80e5 	beq.w	80023f0 <HAL_RCC_OscConfig+0x1f8>
      }
    }
    else
    {
      /* Set the new HSE configuration ---------------------------------------*/
      __HAL_RCC_HSE_CONFIG(RCC_OscInitStruct->HSEState);
 8002226:	6863      	ldr	r3, [r4, #4]
 8002228:	f5b3 3f80 	cmp.w	r3, #65536	; 0x10000
 800222c:	d010      	beq.n	8002250 <HAL_RCC_OscConfig+0x58>
 800222e:	2b00      	cmp	r3, #0
 8002230:	f000 810d 	beq.w	800244e <HAL_RCC_OscConfig+0x256>
 8002234:	f5b3 2fa0 	cmp.w	r3, #327680	; 0x50000
 8002238:	f000 818f 	beq.w	800255a <HAL_RCC_OscConfig+0x362>
 800223c:	4b9a      	ldr	r3, [pc, #616]	; (80024a8 <HAL_RCC_OscConfig+0x2b0>)
 800223e:	681a      	ldr	r2, [r3, #0]
 8002240:	f422 3280 	bic.w	r2, r2, #65536	; 0x10000
 8002244:	601a      	str	r2, [r3, #0]
 8002246:	681a      	ldr	r2, [r3, #0]
 8002248:	f422 2280 	bic.w	r2, r2, #262144	; 0x40000
 800224c:	601a      	str	r2, [r3, #0]
 800224e:	e004      	b.n	800225a <HAL_RCC_OscConfig+0x62>
 8002250:	4a95      	ldr	r2, [pc, #596]	; (80024a8 <HAL_RCC_OscConfig+0x2b0>)
 8002252:	6813      	ldr	r3, [r2, #0]
 8002254:	f443 3380 	orr.w	r3, r3, #65536	; 0x10000
 8002258:	6013      	str	r3, [r2, #0]

      /* Check the HSE State */
      if (RCC_OscInitStruct->HSEState != RCC_HSE_OFF)
      {
        /* Get Start Tick */
        tickstart = HAL_GetTick();
 800225a:	f7fe ff9d 	bl	8001198 <HAL_GetTick>

        /* Wait till HSE is ready */
        while (__HAL_RCC_GET_FLAG(RCC_FLAG_HSERDY) == RESET)
 800225e:	4e92      	ldr	r6, [pc, #584]	; (80024a8 <HAL_RCC_OscConfig+0x2b0>)
        tickstart = HAL_GetTick();
 8002260:	4605      	mov	r5, r0
        while (__HAL_RCC_GET_FLAG(RCC_FLAG_HSERDY) == RESET)
 8002262:	e005      	b.n	8002270 <HAL_RCC_OscConfig+0x78>
        {
          if ((HAL_GetTick() - tickstart) > HSE_TIMEOUT_VALUE)
 8002264:	f7fe ff98 	bl	8001198 <HAL_GetTick>
 8002268:	1b40      	subs	r0, r0, r5
 800226a:	2864      	cmp	r0, #100	; 0x64
 800226c:	f200 80eb 	bhi.w	8002446 <HAL_RCC_OscConfig+0x24e>
        while (__HAL_RCC_GET_FLAG(RCC_FLAG_HSERDY) == RESET)
 8002270:	6833      	ldr	r3, [r6, #0]
 8002272:	039a      	lsls	r2, r3, #14
 8002274:	d5f6      	bpl.n	8002264 <HAL_RCC_OscConfig+0x6c>
 8002276:	6823      	ldr	r3, [r4, #0]
        }
      }
    }
  }
  /*----------------------------- HSI Configuration --------------------------*/
  if (((RCC_OscInitStruct->OscillatorType) & RCC_OSCILLATORTYPE_HSI) == RCC_OSCILLATORTYPE_HSI)
 8002278:	079f      	lsls	r7, r3, #30
 800227a:	d528      	bpl.n	80022ce <HAL_RCC_OscConfig+0xd6>
    /* Check the parameters */
    assert_param(IS_RCC_HSI(RCC_OscInitStruct->HSIState));
    assert_param(IS_RCC_CALIBRATION_VALUE(RCC_OscInitStruct->HSICalibrationValue));

    /* Check if HSI is used as system clock or as PLL source when PLL is selected as system clock */
    if ((__HAL_RCC_GET_SYSCLK_SOURCE() == RCC_SYSCLKSOURCE_STATUS_HSI)
 800227c:	4a8a      	ldr	r2, [pc, #552]	; (80024a8 <HAL_RCC_OscConfig+0x2b0>)
 800227e:	6851      	ldr	r1, [r2, #4]
 8002280:	f011 0f0c 	tst.w	r1, #12
 8002284:	f000 808e 	beq.w	80023a4 <HAL_RCC_OscConfig+0x1ac>
        || ((__HAL_RCC_GET_SYSCLK_SOURCE() == RCC_SYSCLKSOURCE_STATUS_PLLCLK) && (__HAL_RCC_GET_PLL_OSCSOURCE() == RCC_PLLSOURCE_HSI_DIV2)))
 8002288:	6851      	ldr	r1, [r2, #4]
 800228a:	f001 010c 	and.w	r1, r1, #12
 800228e:	2908      	cmp	r1, #8
 8002290:	f000 8084 	beq.w	800239c <HAL_RCC_OscConfig+0x1a4>
      }
    }
    else
    {
      /* Check the HSI State */
      if (RCC_OscInitStruct->HSIState != RCC_HSI_OFF)
 8002294:	6923      	ldr	r3, [r4, #16]
 8002296:	2b00      	cmp	r3, #0
 8002298:	f000 8125 	beq.w	80024e6 <HAL_RCC_OscConfig+0x2ee>
      {
        /* Enable the Internal High Speed oscillator (HSI). */
        __HAL_RCC_HSI_ENABLE();
 800229c:	2201      	movs	r2, #1
 800229e:	4b83      	ldr	r3, [pc, #524]	; (80024ac <HAL_RCC_OscConfig+0x2b4>)

        /* Get Start Tick */
        tickstart = HAL_GetTick();

        /* Wait till HSI is ready */
        while (__HAL_RCC_GET_FLAG(RCC_FLAG_HSIRDY) == RESET)
 80022a0:	4e81      	ldr	r6, [pc, #516]	; (80024a8 <HAL_RCC_OscConfig+0x2b0>)
        __HAL_RCC_HSI_ENABLE();
 80022a2:	601a      	str	r2, [r3, #0]
        tickstart = HAL_GetTick();
 80022a4:	f7fe ff78 	bl	8001198 <HAL_GetTick>
 80022a8:	4605      	mov	r5, r0
        while (__HAL_RCC_GET_FLAG(RCC_FLAG_HSIRDY) == RESET)
 80022aa:	e005      	b.n	80022b8 <HAL_RCC_OscConfig+0xc0>
        {
          if ((HAL_GetTick() - tickstart) > HSI_TIMEOUT_VALUE)
 80022ac:	f7fe ff74 	bl	8001198 <HAL_GetTick>
 80022b0:	1b40      	subs	r0, r0, r5
 80022b2:	2802      	cmp	r0, #2
 80022b4:	f200 80c7 	bhi.w	8002446 <HAL_RCC_OscConfig+0x24e>
        while (__HAL_RCC_GET_FLAG(RCC_FLAG_HSIRDY) == RESET)
 80022b8:	6833      	ldr	r3, [r6, #0]
 80022ba:	0798      	lsls	r0, r3, #30
 80022bc:	d5f6      	bpl.n	80022ac <HAL_RCC_OscConfig+0xb4>
            return HAL_TIMEOUT;
          }
        }

        /* Adjusts the Internal High Speed oscillator (HSI) calibration value.*/
        __HAL_RCC_HSI_CALIBRATIONVALUE_ADJUST(RCC_OscInitStruct->HSICalibrationValue);
 80022be:	6833      	ldr	r3, [r6, #0]
 80022c0:	6962      	ldr	r2, [r4, #20]
 80022c2:	f023 03f8 	bic.w	r3, r3, #248	; 0xf8
 80022c6:	ea43 03c2 	orr.w	r3, r3, r2, lsl #3
 80022ca:	6033      	str	r3, [r6, #0]
 80022cc:	6823      	ldr	r3, [r4, #0]
        }
      }
    }
  }
  /*------------------------------ LSI Configuration -------------------------*/
  if (((RCC_OscInitStruct->OscillatorType) & RCC_OSCILLATORTYPE_LSI) == RCC_OSCILLATORTYPE_LSI)
 80022ce:	071a      	lsls	r2, r3, #28
 80022d0:	d41f      	bmi.n	8002312 <HAL_RCC_OscConfig+0x11a>
        }
      }
    }
  }
  /*------------------------------ LSE Configuration -------------------------*/
  if (((RCC_OscInitStruct->OscillatorType) & RCC_OSCILLATORTYPE_LSE) == RCC_OSCILLATORTYPE_LSE)
 80022d2:	075d      	lsls	r5, r3, #29
 80022d4:	d541      	bpl.n	800235a <HAL_RCC_OscConfig+0x162>
    /* Check the parameters */
    assert_param(IS_RCC_LSE(RCC_OscInitStruct->LSEState));

    /* Update LSE configuration in Backup Domain control register    */
    /* Requires to enable write access to Backup Domain of necessary */
    if (__HAL_RCC_PWR_IS_CLK_DISABLED())
 80022d6:	4b74      	ldr	r3, [pc, #464]	; (80024a8 <HAL_RCC_OscConfig+0x2b0>)
 80022d8:	69da      	ldr	r2, [r3, #28]
 80022da:	00d0      	lsls	r0, r2, #3
 80022dc:	d57d      	bpl.n	80023da <HAL_RCC_OscConfig+0x1e2>
    FlagStatus       pwrclkchanged = RESET;
 80022de:	2500      	movs	r5, #0
    {
      __HAL_RCC_PWR_CLK_ENABLE();
      pwrclkchanged = SET;
    }

    if (HAL_IS_BIT_CLR(PWR->CR, PWR_CR_DBP))
 80022e0:	4b73      	ldr	r3, [pc, #460]	; (80024b0 <HAL_RCC_OscConfig+0x2b8>)
 80022e2:	681a      	ldr	r2, [r3, #0]
 80022e4:	05d1      	lsls	r1, r2, #23
 80022e6:	f140 809d 	bpl.w	8002424 <HAL_RCC_OscConfig+0x22c>
        }
      }
    }

    /* Set the new LSE configuration -----------------------------------------*/
    __HAL_RCC_LSE_CONFIG(RCC_OscInitStruct->LSEState);
 80022ea:	68e3      	ldr	r3, [r4, #12]
 80022ec:	2b01      	cmp	r3, #1
 80022ee:	f000 810b 	beq.w	8002508 <HAL_RCC_OscConfig+0x310>
 80022f2:	2b00      	cmp	r3, #0
 80022f4:	f000 80c5 	beq.w	8002482 <HAL_RCC_OscConfig+0x28a>
 80022f8:	2b05      	cmp	r3, #5
 80022fa:	4b6b      	ldr	r3, [pc, #428]	; (80024a8 <HAL_RCC_OscConfig+0x2b0>)
 80022fc:	6a1a      	ldr	r2, [r3, #32]
 80022fe:	f000 8139 	beq.w	8002574 <HAL_RCC_OscConfig+0x37c>
 8002302:	f022 0201 	bic.w	r2, r2, #1
 8002306:	621a      	str	r2, [r3, #32]
 8002308:	6a1a      	ldr	r2, [r3, #32]
 800230a:	f022 0204 	bic.w	r2, r2, #4
 800230e:	621a      	str	r2, [r3, #32]
 8002310:	e0ff      	b.n	8002512 <HAL_RCC_OscConfig+0x31a>
    if (RCC_OscInitStruct->LSIState != RCC_LSI_OFF)
 8002312:	69a3      	ldr	r3, [r4, #24]
 8002314:	2b00      	cmp	r3, #0
 8002316:	d050      	beq.n	80023ba <HAL_RCC_OscConfig+0x1c2>
      __HAL_RCC_LSI_ENABLE();
 8002318:	2201      	movs	r2, #1
 800231a:	4b66      	ldr	r3, [pc, #408]	; (80024b4 <HAL_RCC_OscConfig+0x2bc>)
      while (__HAL_RCC_GET_FLAG(RCC_FLAG_LSIRDY) == RESET)
 800231c:	4e62      	ldr	r6, [pc, #392]	; (80024a8 <HAL_RCC_OscConfig+0x2b0>)
      __HAL_RCC_LSI_ENABLE();
 800231e:	601a      	str	r2, [r3, #0]
      tickstart = HAL_GetTick();
 8002320:	f7fe ff3a 	bl	8001198 <HAL_GetTick>
 8002324:	4605      	mov	r5, r0
      while (__HAL_RCC_GET_FLAG(RCC_FLAG_LSIRDY) == RESET)
 8002326:	e005      	b.n	8002334 <HAL_RCC_OscConfig+0x13c>
        if ((HAL_GetTick() - tickstart) > LSI_TIMEOUT_VALUE)
 8002328:	f7fe ff36 	bl	8001198 <HAL_GetTick>
 800232c:	1b40      	subs	r0, r0, r5
 800232e:	2802      	cmp	r0, #2
 8002330:	f200 8089 	bhi.w	8002446 <HAL_RCC_OscConfig+0x24e>
      while (__HAL_RCC_GET_FLAG(RCC_FLAG_LSIRDY) == RESET)
 8002334:	6a73      	ldr	r3, [r6, #36]	; 0x24
 8002336:	079b      	lsls	r3, r3, #30
 8002338:	d5f6      	bpl.n	8002328 <HAL_RCC_OscConfig+0x130>
  * @param  mdelay: specifies the delay time length, in milliseconds.
  * @retval None
  */
static void RCC_Delay(uint32_t mdelay)
{
  __IO uint32_t Delay = mdelay * (SystemCoreClock / 8U / 1000U);
 800233a:	4b5f      	ldr	r3, [pc, #380]	; (80024b8 <HAL_RCC_OscConfig+0x2c0>)
 800233c:	4a5f      	ldr	r2, [pc, #380]	; (80024bc <HAL_RCC_OscConfig+0x2c4>)
 800233e:	681b      	ldr	r3, [r3, #0]
 8002340:	fba2 2303 	umull	r2, r3, r2, r3
 8002344:	0a5b      	lsrs	r3, r3, #9
 8002346:	9301      	str	r3, [sp, #4]
  do
  {
    __NOP();
 8002348:	bf00      	nop
  }
  while (Delay --);
 800234a:	9b01      	ldr	r3, [sp, #4]
 800234c:	1e5a      	subs	r2, r3, #1
 800234e:	9201      	str	r2, [sp, #4]
 8002350:	2b00      	cmp	r3, #0
 8002352:	d1f9      	bne.n	8002348 <HAL_RCC_OscConfig+0x150>
 8002354:	6823      	ldr	r3, [r4, #0]
  if (((RCC_OscInitStruct->OscillatorType) & RCC_OSCILLATORTYPE_LSE) == RCC_OSCILLATORTYPE_LSE)
 8002356:	075d      	lsls	r5, r3, #29
 8002358:	d4bd      	bmi.n	80022d6 <HAL_RCC_OscConfig+0xde>
  if ((RCC_OscInitStruct->PLL.PLLState) != RCC_PLL_NONE)
 800235a:	69e0      	ldr	r0, [r4, #28]
 800235c:	b1d0      	cbz	r0, 8002394 <HAL_RCC_OscConfig+0x19c>
    if (__HAL_RCC_GET_SYSCLK_SOURCE() != RCC_SYSCLKSOURCE_STATUS_PLLCLK)
 800235e:	4d52      	ldr	r5, [pc, #328]	; (80024a8 <HAL_RCC_OscConfig+0x2b0>)
 8002360:	686a      	ldr	r2, [r5, #4]
 8002362:	f002 020c 	and.w	r2, r2, #12
 8002366:	2a08      	cmp	r2, #8
 8002368:	f000 80e6 	beq.w	8002538 <HAL_RCC_OscConfig+0x340>
      if ((RCC_OscInitStruct->PLL.PLLState) == RCC_PLL_ON)
 800236c:	2802      	cmp	r0, #2
        __HAL_RCC_PLL_DISABLE();
 800236e:	f04f 0100 	mov.w	r1, #0
 8002372:	4a53      	ldr	r2, [pc, #332]	; (80024c0 <HAL_RCC_OscConfig+0x2c8>)
      if ((RCC_OscInitStruct->PLL.PLLState) == RCC_PLL_ON)
 8002374:	f000 8108 	beq.w	8002588 <HAL_RCC_OscConfig+0x390>
        __HAL_RCC_PLL_DISABLE();
 8002378:	6011      	str	r1, [r2, #0]
        tickstart = HAL_GetTick();
 800237a:	f7fe ff0d 	bl	8001198 <HAL_GetTick>
        while (__HAL_RCC_GET_FLAG(RCC_FLAG_PLLRDY)  != RESET)
 800237e:	462c      	mov	r4, r5
        tickstart = HAL_GetTick();
 8002380:	4605      	mov	r5, r0
        while (__HAL_RCC_GET_FLAG(RCC_FLAG_PLLRDY)  != RESET)
 8002382:	e004      	b.n	800238e <HAL_RCC_OscConfig+0x196>
          if ((HAL_GetTick() - tickstart) > PLL_TIMEOUT_VALUE)
 8002384:	f7fe ff08 	bl	8001198 <HAL_GetTick>
 8002388:	1b40      	subs	r0, r0, r5
 800238a:	2802      	cmp	r0, #2
 800238c:	d85b      	bhi.n	8002446 <HAL_RCC_OscConfig+0x24e>
        while (__HAL_RCC_GET_FLAG(RCC_FLAG_PLLRDY)  != RESET)
 800238e:	6823      	ldr	r3, [r4, #0]
 8002390:	019b      	lsls	r3, r3, #6
 8002392:	d4f7      	bmi.n	8002384 <HAL_RCC_OscConfig+0x18c>
  return HAL_OK;
 8002394:	2000      	movs	r0, #0
}
 8002396:	b002      	add	sp, #8
 8002398:	e8bd 81f0 	ldmia.w	sp!, {r4, r5, r6, r7, r8, pc}
        || ((__HAL_RCC_GET_SYSCLK_SOURCE() == RCC_SYSCLKSOURCE_STATUS_PLLCLK) && (__HAL_RCC_GET_PLL_OSCSOURCE() == RCC_PLLSOURCE_HSI_DIV2)))
 800239c:	6852      	ldr	r2, [r2, #4]
 800239e:	03d6      	lsls	r6, r2, #15
 80023a0:	f53f af78 	bmi.w	8002294 <HAL_RCC_OscConfig+0x9c>
      if ((__HAL_RCC_GET_FLAG(RCC_FLAG_HSIRDY) != RESET) && (RCC_OscInitStruct->HSIState != RCC_HSI_ON))
 80023a4:	4a40      	ldr	r2, [pc, #256]	; (80024a8 <HAL_RCC_OscConfig+0x2b0>)
 80023a6:	6812      	ldr	r2, [r2, #0]
 80023a8:	0795      	lsls	r5, r2, #30
 80023aa:	d52f      	bpl.n	800240c <HAL_RCC_OscConfig+0x214>
 80023ac:	6922      	ldr	r2, [r4, #16]
 80023ae:	2a01      	cmp	r2, #1
 80023b0:	d02c      	beq.n	800240c <HAL_RCC_OscConfig+0x214>
        return HAL_ERROR;
 80023b2:	2001      	movs	r0, #1
}
 80023b4:	b002      	add	sp, #8
 80023b6:	e8bd 81f0 	ldmia.w	sp!, {r4, r5, r6, r7, r8, pc}
      __HAL_RCC_LSI_DISABLE();
 80023ba:	4a3e      	ldr	r2, [pc, #248]	; (80024b4 <HAL_RCC_OscConfig+0x2bc>)
      while (__HAL_RCC_GET_FLAG(RCC_FLAG_LSIRDY) != RESET)
 80023bc:	4e3a      	ldr	r6, [pc, #232]	; (80024a8 <HAL_RCC_OscConfig+0x2b0>)
      __HAL_RCC_LSI_DISABLE();
 80023be:	6013      	str	r3, [r2, #0]
      tickstart = HAL_GetTick();
 80023c0:	f7fe feea 	bl	8001198 <HAL_GetTick>
 80023c4:	4605      	mov	r5, r0
      while (__HAL_RCC_GET_FLAG(RCC_FLAG_LSIRDY) != RESET)
 80023c6:	e004      	b.n	80023d2 <HAL_RCC_OscConfig+0x1da>
        if ((HAL_GetTick() - tickstart) > LSI_TIMEOUT_VALUE)
 80023c8:	f7fe fee6 	bl	8001198 <HAL_GetTick>
 80023cc:	1b40      	subs	r0, r0, r5
 80023ce:	2802      	cmp	r0, #2
 80023d0:	d839      	bhi.n	8002446 <HAL_RCC_OscConfig+0x24e>
      while (__HAL_RCC_GET_FLAG(RCC_FLAG_LSIRDY) != RESET)
 80023d2:	6a73      	ldr	r3, [r6, #36]	; 0x24
 80023d4:	079f      	lsls	r7, r3, #30
 80023d6:	d4f7      	bmi.n	80023c8 <HAL_RCC_OscConfig+0x1d0>
 80023d8:	e7bc      	b.n	8002354 <HAL_RCC_OscConfig+0x15c>
      __HAL_RCC_PWR_CLK_ENABLE();
 80023da:	69da      	ldr	r2, [r3, #28]
      pwrclkchanged = SET;
 80023dc:	2501      	movs	r5, #1
      __HAL_RCC_PWR_CLK_ENABLE();
 80023de:	f042 5280 	orr.w	r2, r2, #268435456	; 0x10000000
 80023e2:	61da      	str	r2, [r3, #28]
 80023e4:	69db      	ldr	r3, [r3, #28]
 80023e6:	f003 5380 	and.w	r3, r3, #268435456	; 0x10000000
 80023ea:	9300      	str	r3, [sp, #0]
 80023ec:	9b00      	ldr	r3, [sp, #0]
      pwrclkchanged = SET;
 80023ee:	e777      	b.n	80022e0 <HAL_RCC_OscConfig+0xe8>
        || ((__HAL_RCC_GET_SYSCLK_SOURCE() == RCC_SYSCLKSOURCE_STATUS_PLLCLK) && (__HAL_RCC_GET_PLL_OSCSOURCE() == RCC_PLLSOURCE_HSE)))
 80023f0:	684a      	ldr	r2, [r1, #4]
 80023f2:	03d0      	lsls	r0, r2, #15
 80023f4:	f57f af17 	bpl.w	8002226 <HAL_RCC_OscConfig+0x2e>
      if ((__HAL_RCC_GET_FLAG(RCC_FLAG_HSERDY) != RESET) && (RCC_OscInitStruct->HSEState == RCC_HSE_OFF))
 80023f8:	4a2b      	ldr	r2, [pc, #172]	; (80024a8 <HAL_RCC_OscConfig+0x2b0>)
 80023fa:	6812      	ldr	r2, [r2, #0]
 80023fc:	0391      	lsls	r1, r2, #14
 80023fe:	f57f af3b 	bpl.w	8002278 <HAL_RCC_OscConfig+0x80>
 8002402:	6862      	ldr	r2, [r4, #4]
 8002404:	2a00      	cmp	r2, #0
 8002406:	f47f af37 	bne.w	8002278 <HAL_RCC_OscConfig+0x80>
 800240a:	e7d2      	b.n	80023b2 <HAL_RCC_OscConfig+0x1ba>
        __HAL_RCC_HSI_CALIBRATIONVALUE_ADJUST(RCC_OscInitStruct->HSICalibrationValue);
 800240c:	4926      	ldr	r1, [pc, #152]	; (80024a8 <HAL_RCC_OscConfig+0x2b0>)
 800240e:	6960      	ldr	r0, [r4, #20]
 8002410:	680a      	ldr	r2, [r1, #0]
 8002412:	f022 02f8 	bic.w	r2, r2, #248	; 0xf8
 8002416:	ea42 02c0 	orr.w	r2, r2, r0, lsl #3
 800241a:	600a      	str	r2, [r1, #0]
  if (((RCC_OscInitStruct->OscillatorType) & RCC_OSCILLATORTYPE_LSI) == RCC_OSCILLATORTYPE_LSI)
 800241c:	071a      	lsls	r2, r3, #28
 800241e:	f57f af58 	bpl.w	80022d2 <HAL_RCC_OscConfig+0xda>
 8002422:	e776      	b.n	8002312 <HAL_RCC_OscConfig+0x11a>
      SET_BIT(PWR->CR, PWR_CR_DBP);
 8002424:	681a      	ldr	r2, [r3, #0]
      while (HAL_IS_BIT_CLR(PWR->CR, PWR_CR_DBP))
 8002426:	461f      	mov	r7, r3
      SET_BIT(PWR->CR, PWR_CR_DBP);
 8002428:	f442 7280 	orr.w	r2, r2, #256	; 0x100
 800242c:	601a      	str	r2, [r3, #0]
      tickstart = HAL_GetTick();
 800242e:	f7fe feb3 	bl	8001198 <HAL_GetTick>
 8002432:	4606      	mov	r6, r0
      while (HAL_IS_BIT_CLR(PWR->CR, PWR_CR_DBP))
 8002434:	683b      	ldr	r3, [r7, #0]
 8002436:	05da      	lsls	r2, r3, #23
 8002438:	f53f af57 	bmi.w	80022ea <HAL_RCC_OscConfig+0xf2>
        if ((HAL_GetTick() - tickstart) > RCC_DBP_TIMEOUT_VALUE)
 800243c:	f7fe feac 	bl	8001198 <HAL_GetTick>
 8002440:	1b80      	subs	r0, r0, r6
 8002442:	2864      	cmp	r0, #100	; 0x64
 8002444:	d9f6      	bls.n	8002434 <HAL_RCC_OscConfig+0x23c>
            return HAL_TIMEOUT;
 8002446:	2003      	movs	r0, #3
}
 8002448:	b002      	add	sp, #8
 800244a:	e8bd 81f0 	ldmia.w	sp!, {r4, r5, r6, r7, r8, pc}
      __HAL_RCC_HSE_CONFIG(RCC_OscInitStruct->HSEState);
 800244e:	f103 4380 	add.w	r3, r3, #1073741824	; 0x40000000
 8002452:	f503 3304 	add.w	r3, r3, #135168	; 0x21000
 8002456:	681a      	ldr	r2, [r3, #0]
        while (__HAL_RCC_GET_FLAG(RCC_FLAG_HSERDY) != RESET)
 8002458:	461e      	mov	r6, r3
      __HAL_RCC_HSE_CONFIG(RCC_OscInitStruct->HSEState);
 800245a:	f422 3280 	bic.w	r2, r2, #65536	; 0x10000
 800245e:	601a      	str	r2, [r3, #0]
 8002460:	681a      	ldr	r2, [r3, #0]
 8002462:	f422 2280 	bic.w	r2, r2, #262144	; 0x40000
 8002466:	601a      	str	r2, [r3, #0]
        tickstart = HAL_GetTick();
 8002468:	f7fe fe96 	bl	8001198 <HAL_GetTick>
 800246c:	4605      	mov	r5, r0
        while (__HAL_RCC_GET_FLAG(RCC_FLAG_HSERDY) != RESET)
 800246e:	e004      	b.n	800247a <HAL_RCC_OscConfig+0x282>
          if ((HAL_GetTick() - tickstart) > HSE_TIMEOUT_VALUE)
 8002470:	f7fe fe92 	bl	8001198 <HAL_GetTick>
 8002474:	1b40      	subs	r0, r0, r5
 8002476:	2864      	cmp	r0, #100	; 0x64
 8002478:	d8e5      	bhi.n	8002446 <HAL_RCC_OscConfig+0x24e>
        while (__HAL_RCC_GET_FLAG(RCC_FLAG_HSERDY) != RESET)
 800247a:	6833      	ldr	r3, [r6, #0]
 800247c:	039b      	lsls	r3, r3, #14
 800247e:	d4f7      	bmi.n	8002470 <HAL_RCC_OscConfig+0x278>
 8002480:	e6f9      	b.n	8002276 <HAL_RCC_OscConfig+0x7e>
    __HAL_RCC_LSE_CONFIG(RCC_OscInitStruct->LSEState);
 8002482:	f103 4380 	add.w	r3, r3, #1073741824	; 0x40000000
 8002486:	f503 3304 	add.w	r3, r3, #135168	; 0x21000
 800248a:	6a1a      	ldr	r2, [r3, #32]
      while (__HAL_RCC_GET_FLAG(RCC_FLAG_LSERDY) != RESET)
 800248c:	461f      	mov	r7, r3
    __HAL_RCC_LSE_CONFIG(RCC_OscInitStruct->LSEState);
 800248e:	f022 0201 	bic.w	r2, r2, #1
 8002492:	621a      	str	r2, [r3, #32]
 8002494:	6a1a      	ldr	r2, [r3, #32]
        if ((HAL_GetTick() - tickstart) > RCC_LSE_TIMEOUT_VALUE)
 8002496:	f241 3888 	movw	r8, #5000	; 0x1388
    __HAL_RCC_LSE_CONFIG(RCC_OscInitStruct->LSEState);
 800249a:	f022 0204 	bic.w	r2, r2, #4
 800249e:	621a      	str	r2, [r3, #32]
      tickstart = HAL_GetTick();
 80024a0:	f7fe fe7a 	bl	8001198 <HAL_GetTick>
 80024a4:	4606      	mov	r6, r0
      while (__HAL_RCC_GET_FLAG(RCC_FLAG_LSERDY) != RESET)
 80024a6:	e012      	b.n	80024ce <HAL_RCC_OscConfig+0x2d6>
 80024a8:	40021000 	.word	0x40021000
 80024ac:	42420000 	.word	0x42420000
 80024b0:	40007000 	.word	0x40007000
 80024b4:	42420480 	.word	0x42420480
 80024b8:	20000000 	.word	0x20000000
 80024bc:	10624dd3 	.word	0x10624dd3
 80024c0:	42420060 	.word	0x42420060
        if ((HAL_GetTick() - tickstart) > RCC_LSE_TIMEOUT_VALUE)
 80024c4:	f7fe fe68 	bl	8001198 <HAL_GetTick>
 80024c8:	1b80      	subs	r0, r0, r6
 80024ca:	4540      	cmp	r0, r8
 80024cc:	d8bb      	bhi.n	8002446 <HAL_RCC_OscConfig+0x24e>
      while (__HAL_RCC_GET_FLAG(RCC_FLAG_LSERDY) != RESET)
 80024ce:	6a3b      	ldr	r3, [r7, #32]
 80024d0:	0798      	lsls	r0, r3, #30
 80024d2:	d4f7      	bmi.n	80024c4 <HAL_RCC_OscConfig+0x2cc>
    if (pwrclkchanged == SET)
 80024d4:	2d00      	cmp	r5, #0
 80024d6:	f43f af40 	beq.w	800235a <HAL_RCC_OscConfig+0x162>
      __HAL_RCC_PWR_CLK_DISABLE();
 80024da:	4a44      	ldr	r2, [pc, #272]	; (80025ec <HAL_RCC_OscConfig+0x3f4>)
 80024dc:	69d3      	ldr	r3, [r2, #28]
 80024de:	f023 5380 	bic.w	r3, r3, #268435456	; 0x10000000
 80024e2:	61d3      	str	r3, [r2, #28]
 80024e4:	e739      	b.n	800235a <HAL_RCC_OscConfig+0x162>
        __HAL_RCC_HSI_DISABLE();
 80024e6:	4a42      	ldr	r2, [pc, #264]	; (80025f0 <HAL_RCC_OscConfig+0x3f8>)
        while (__HAL_RCC_GET_FLAG(RCC_FLAG_HSIRDY) != RESET)
 80024e8:	4e40      	ldr	r6, [pc, #256]	; (80025ec <HAL_RCC_OscConfig+0x3f4>)
        __HAL_RCC_HSI_DISABLE();
 80024ea:	6013      	str	r3, [r2, #0]
        tickstart = HAL_GetTick();
 80024ec:	f7fe fe54 	bl	8001198 <HAL_GetTick>
 80024f0:	4605      	mov	r5, r0
        while (__HAL_RCC_GET_FLAG(RCC_FLAG_HSIRDY) != RESET)
 80024f2:	e004      	b.n	80024fe <HAL_RCC_OscConfig+0x306>
          if ((HAL_GetTick() - tickstart) > HSI_TIMEOUT_VALUE)
 80024f4:	f7fe fe50 	bl	8001198 <HAL_GetTick>
 80024f8:	1b40      	subs	r0, r0, r5
 80024fa:	2802      	cmp	r0, #2
 80024fc:	d8a3      	bhi.n	8002446 <HAL_RCC_OscConfig+0x24e>
        while (__HAL_RCC_GET_FLAG(RCC_FLAG_HSIRDY) != RESET)
 80024fe:	6833      	ldr	r3, [r6, #0]
 8002500:	0799      	lsls	r1, r3, #30
 8002502:	d4f7      	bmi.n	80024f4 <HAL_RCC_OscConfig+0x2fc>
 8002504:	6823      	ldr	r3, [r4, #0]
 8002506:	e6e2      	b.n	80022ce <HAL_RCC_OscConfig+0xd6>
    __HAL_RCC_LSE_CONFIG(RCC_OscInitStruct->LSEState);
 8002508:	4a38      	ldr	r2, [pc, #224]	; (80025ec <HAL_RCC_OscConfig+0x3f4>)
 800250a:	6a13      	ldr	r3, [r2, #32]
 800250c:	f043 0301 	orr.w	r3, r3, #1
 8002510:	6213      	str	r3, [r2, #32]
      tickstart = HAL_GetTick();
 8002512:	f7fe fe41 	bl	8001198 <HAL_GetTick>
        if ((HAL_GetTick() - tickstart) > RCC_LSE_TIMEOUT_VALUE)
 8002516:	f241 3888 	movw	r8, #5000	; 0x1388
      tickstart = HAL_GetTick();
 800251a:	4606      	mov	r6, r0
      while (__HAL_RCC_GET_FLAG(RCC_FLAG_LSERDY) == RESET)
 800251c:	4f33      	ldr	r7, [pc, #204]	; (80025ec <HAL_RCC_OscConfig+0x3f4>)
 800251e:	e004      	b.n	800252a <HAL_RCC_OscConfig+0x332>
        if ((HAL_GetTick() - tickstart) > RCC_LSE_TIMEOUT_VALUE)
 8002520:	f7fe fe3a 	bl	8001198 <HAL_GetTick>
 8002524:	1b80      	subs	r0, r0, r6
 8002526:	4540      	cmp	r0, r8
 8002528:	d88d      	bhi.n	8002446 <HAL_RCC_OscConfig+0x24e>
      while (__HAL_RCC_GET_FLAG(RCC_FLAG_LSERDY) == RESET)
 800252a:	6a3b      	ldr	r3, [r7, #32]
 800252c:	079b      	lsls	r3, r3, #30
 800252e:	d5f7      	bpl.n	8002520 <HAL_RCC_OscConfig+0x328>
    if (pwrclkchanged == SET)
 8002530:	2d00      	cmp	r5, #0
 8002532:	f43f af12 	beq.w	800235a <HAL_RCC_OscConfig+0x162>
 8002536:	e7d0      	b.n	80024da <HAL_RCC_OscConfig+0x2e2>
      if ((RCC_OscInitStruct->PLL.PLLState) == RCC_PLL_OFF)
 8002538:	2801      	cmp	r0, #1
 800253a:	f43f af2c 	beq.w	8002396 <HAL_RCC_OscConfig+0x19e>
        pll_config = RCC->CFGR;
 800253e:	686b      	ldr	r3, [r5, #4]
        if ((READ_BIT(pll_config, RCC_CFGR_PLLSRC) != RCC_OscInitStruct->PLL.PLLSource) ||
 8002540:	6a22      	ldr	r2, [r4, #32]
 8002542:	f403 3180 	and.w	r1, r3, #65536	; 0x10000
 8002546:	4291      	cmp	r1, r2
 8002548:	f47f af33 	bne.w	80023b2 <HAL_RCC_OscConfig+0x1ba>
 800254c:	6a60      	ldr	r0, [r4, #36]	; 0x24
            (READ_BIT(pll_config, RCC_CFGR_PLLMULL) != RCC_OscInitStruct->PLL.PLLMUL))
 800254e:	f403 1370 	and.w	r3, r3, #3932160	; 0x3c0000
  return HAL_OK;
 8002552:	1a18      	subs	r0, r3, r0
 8002554:	bf18      	it	ne
 8002556:	2001      	movne	r0, #1
 8002558:	e71d      	b.n	8002396 <HAL_RCC_OscConfig+0x19e>
      __HAL_RCC_HSE_CONFIG(RCC_OscInitStruct->HSEState);
 800255a:	f103 4380 	add.w	r3, r3, #1073741824	; 0x40000000
 800255e:	f5a3 333c 	sub.w	r3, r3, #192512	; 0x2f000
 8002562:	681a      	ldr	r2, [r3, #0]
 8002564:	f442 2280 	orr.w	r2, r2, #262144	; 0x40000
 8002568:	601a      	str	r2, [r3, #0]
 800256a:	681a      	ldr	r2, [r3, #0]
 800256c:	f442 3280 	orr.w	r2, r2, #65536	; 0x10000
 8002570:	601a      	str	r2, [r3, #0]
 8002572:	e672      	b.n	800225a <HAL_RCC_OscConfig+0x62>
    __HAL_RCC_LSE_CONFIG(RCC_OscInitStruct->LSEState);
 8002574:	f042 0204 	orr.w	r2, r2, #4
 8002578:	621a      	str	r2, [r3, #32]
 800257a:	6a1a      	ldr	r2, [r3, #32]
 800257c:	f042 0201 	orr.w	r2, r2, #1
 8002580:	621a      	str	r2, [r3, #32]
 8002582:	e7c6      	b.n	8002512 <HAL_RCC_OscConfig+0x31a>
    return HAL_ERROR;
 8002584:	2001      	movs	r0, #1
}
 8002586:	4770      	bx	lr
        __HAL_RCC_PLL_DISABLE();
 8002588:	6011      	str	r1, [r2, #0]
        tickstart = HAL_GetTick();
 800258a:	f7fe fe05 	bl	8001198 <HAL_GetTick>
 800258e:	4606      	mov	r6, r0
        while (__HAL_RCC_GET_FLAG(RCC_FLAG_PLLRDY)  != RESET)
 8002590:	e005      	b.n	800259e <HAL_RCC_OscConfig+0x3a6>
          if ((HAL_GetTick() - tickstart) > PLL_TIMEOUT_VALUE)
 8002592:	f7fe fe01 	bl	8001198 <HAL_GetTick>
 8002596:	1b80      	subs	r0, r0, r6
 8002598:	2802      	cmp	r0, #2
 800259a:	f63f af54 	bhi.w	8002446 <HAL_RCC_OscConfig+0x24e>
        while (__HAL_RCC_GET_FLAG(RCC_FLAG_PLLRDY)  != RESET)
 800259e:	682b      	ldr	r3, [r5, #0]
 80025a0:	0199      	lsls	r1, r3, #6
 80025a2:	d4f6      	bmi.n	8002592 <HAL_RCC_OscConfig+0x39a>
        if (RCC_OscInitStruct->PLL.PLLSource == RCC_PLLSOURCE_HSE)
 80025a4:	6a23      	ldr	r3, [r4, #32]
 80025a6:	f5b3 3f80 	cmp.w	r3, #65536	; 0x10000
 80025aa:	d105      	bne.n	80025b8 <HAL_RCC_OscConfig+0x3c0>
          __HAL_RCC_HSE_PREDIV_CONFIG(RCC_OscInitStruct->HSEPredivValue);
 80025ac:	686a      	ldr	r2, [r5, #4]
 80025ae:	68a1      	ldr	r1, [r4, #8]
 80025b0:	f422 3200 	bic.w	r2, r2, #131072	; 0x20000
 80025b4:	430a      	orrs	r2, r1
 80025b6:	606a      	str	r2, [r5, #4]
        __HAL_RCC_PLL_ENABLE();
 80025b8:	2001      	movs	r0, #1
        __HAL_RCC_PLL_CONFIG(RCC_OscInitStruct->PLL.PLLSource,
 80025ba:	4d0c      	ldr	r5, [pc, #48]	; (80025ec <HAL_RCC_OscConfig+0x3f4>)
 80025bc:	6a61      	ldr	r1, [r4, #36]	; 0x24
 80025be:	686a      	ldr	r2, [r5, #4]
 80025c0:	430b      	orrs	r3, r1
 80025c2:	f422 1274 	bic.w	r2, r2, #3997696	; 0x3d0000
        __HAL_RCC_PLL_ENABLE();
 80025c6:	490b      	ldr	r1, [pc, #44]	; (80025f4 <HAL_RCC_OscConfig+0x3fc>)
        __HAL_RCC_PLL_CONFIG(RCC_OscInitStruct->PLL.PLLSource,
 80025c8:	4313      	orrs	r3, r2
 80025ca:	606b      	str	r3, [r5, #4]
        __HAL_RCC_PLL_ENABLE();
 80025cc:	6008      	str	r0, [r1, #0]
        tickstart = HAL_GetTick();
 80025ce:	f7fe fde3 	bl	8001198 <HAL_GetTick>
        while (__HAL_RCC_GET_FLAG(RCC_FLAG_PLLRDY)  == RESET)
 80025d2:	462c      	mov	r4, r5
        tickstart = HAL_GetTick();
 80025d4:	4605      	mov	r5, r0
        while (__HAL_RCC_GET_FLAG(RCC_FLAG_PLLRDY)  == RESET)
 80025d6:	e005      	b.n	80025e4 <HAL_RCC_OscConfig+0x3ec>
          if ((HAL_GetTick() - tickstart) > PLL_TIMEOUT_VALUE)
 80025d8:	f7fe fdde 	bl	8001198 <HAL_GetTick>
 80025dc:	1b40      	subs	r0, r0, r5
 80025de:	2802      	cmp	r0, #2
 80025e0:	f63f af31 	bhi.w	8002446 <HAL_RCC_OscConfig+0x24e>
        while (__HAL_RCC_GET_FLAG(RCC_FLAG_PLLRDY)  == RESET)
 80025e4:	6823      	ldr	r3, [r4, #0]
 80025e6:	019a      	lsls	r2, r3, #6
 80025e8:	d5f6      	bpl.n	80025d8 <HAL_RCC_OscConfig+0x3e0>
 80025ea:	e6d3      	b.n	8002394 <HAL_RCC_OscConfig+0x19c>
 80025ec:	40021000 	.word	0x40021000
 80025f0:	42420000 	.word	0x42420000
 80025f4:	42420060 	.word	0x42420060

080025f8 <HAL_RCC_ClockConfig>:
  if (RCC_ClkInitStruct == NULL)
 80025f8:	2800      	cmp	r0, #0
 80025fa:	f000 80af 	beq.w	800275c <HAL_RCC_ClockConfig+0x164>
  if (FLatency > __HAL_FLASH_GET_LATENCY())
 80025fe:	4a5d      	ldr	r2, [pc, #372]	; (8002774 <HAL_RCC_ClockConfig+0x17c>)
{
 8002600:	e92d 41f0 	stmdb	sp!, {r4, r5, r6, r7, r8, lr}
  if (FLatency > __HAL_FLASH_GET_LATENCY())
 8002604:	6813      	ldr	r3, [r2, #0]
 8002606:	4604      	mov	r4, r0
 8002608:	f003 0307 	and.w	r3, r3, #7
 800260c:	428b      	cmp	r3, r1
 800260e:	460d      	mov	r5, r1
{
 8002610:	b086      	sub	sp, #24
  if (FLatency > __HAL_FLASH_GET_LATENCY())
 8002612:	d20d      	bcs.n	8002630 <HAL_RCC_ClockConfig+0x38>
    __HAL_FLASH_SET_LATENCY(FLatency);
 8002614:	6813      	ldr	r3, [r2, #0]
 8002616:	f023 0307 	bic.w	r3, r3, #7
 800261a:	430b      	orrs	r3, r1
 800261c:	6013      	str	r3, [r2, #0]
    if (__HAL_FLASH_GET_LATENCY() != FLatency)
 800261e:	6813      	ldr	r3, [r2, #0]
 8002620:	f003 0307 	and.w	r3, r3, #7
 8002624:	428b      	cmp	r3, r1
 8002626:	d003      	beq.n	8002630 <HAL_RCC_ClockConfig+0x38>
    return HAL_ERROR;
 8002628:	2001      	movs	r0, #1
}
 800262a:	b006      	add	sp, #24
 800262c:	e8bd 81f0 	ldmia.w	sp!, {r4, r5, r6, r7, r8, pc}
if (((RCC_ClkInitStruct->ClockType) & RCC_CLOCKTYPE_HCLK) == RCC_CLOCKTYPE_HCLK)
 8002630:	6823      	ldr	r3, [r4, #0]
 8002632:	0798      	lsls	r0, r3, #30
 8002634:	d514      	bpl.n	8002660 <HAL_RCC_ClockConfig+0x68>
    if (((RCC_ClkInitStruct->ClockType) & RCC_CLOCKTYPE_PCLK1) == RCC_CLOCKTYPE_PCLK1)
 8002636:	0759      	lsls	r1, r3, #29
 8002638:	d504      	bpl.n	8002644 <HAL_RCC_ClockConfig+0x4c>
      MODIFY_REG(RCC->CFGR, RCC_CFGR_PPRE1, RCC_HCLK_DIV16);
 800263a:	494f      	ldr	r1, [pc, #316]	; (8002778 <HAL_RCC_ClockConfig+0x180>)
 800263c:	684a      	ldr	r2, [r1, #4]
 800263e:	f442 62e0 	orr.w	r2, r2, #1792	; 0x700
 8002642:	604a      	str	r2, [r1, #4]
    if (((RCC_ClkInitStruct->ClockType) & RCC_CLOCKTYPE_PCLK2) == RCC_CLOCKTYPE_PCLK2)
 8002644:	071a      	lsls	r2, r3, #28
 8002646:	d504      	bpl.n	8002652 <HAL_RCC_ClockConfig+0x5a>
      MODIFY_REG(RCC->CFGR, RCC_CFGR_PPRE2, (RCC_HCLK_DIV16 << 3));
 8002648:	494b      	ldr	r1, [pc, #300]	; (8002778 <HAL_RCC_ClockConfig+0x180>)
 800264a:	684a      	ldr	r2, [r1, #4]
 800264c:	f442 5260 	orr.w	r2, r2, #14336	; 0x3800
 8002650:	604a      	str	r2, [r1, #4]
    MODIFY_REG(RCC->CFGR, RCC_CFGR_HPRE, RCC_ClkInitStruct->AHBCLKDivider);
 8002652:	4949      	ldr	r1, [pc, #292]	; (8002778 <HAL_RCC_ClockConfig+0x180>)
 8002654:	68a0      	ldr	r0, [r4, #8]
 8002656:	684a      	ldr	r2, [r1, #4]
 8002658:	f022 02f0 	bic.w	r2, r2, #240	; 0xf0
 800265c:	4302      	orrs	r2, r0
 800265e:	604a      	str	r2, [r1, #4]
  if (((RCC_ClkInitStruct->ClockType) & RCC_CLOCKTYPE_SYSCLK) == RCC_CLOCKTYPE_SYSCLK)
 8002660:	07db      	lsls	r3, r3, #31
 8002662:	d520      	bpl.n	80026a6 <HAL_RCC_ClockConfig+0xae>
    if (RCC_ClkInitStruct->SYSCLKSource == RCC_SYSCLKSOURCE_HSE)
 8002664:	6862      	ldr	r2, [r4, #4]
      if (__HAL_RCC_GET_FLAG(RCC_FLAG_HSERDY) == RESET)
 8002666:	4b44      	ldr	r3, [pc, #272]	; (8002778 <HAL_RCC_ClockConfig+0x180>)
    if (RCC_ClkInitStruct->SYSCLKSource == RCC_SYSCLKSOURCE_HSE)
 8002668:	2a01      	cmp	r2, #1
      if (__HAL_RCC_GET_FLAG(RCC_FLAG_HSERDY) == RESET)
 800266a:	681b      	ldr	r3, [r3, #0]
    if (RCC_ClkInitStruct->SYSCLKSource == RCC_SYSCLKSOURCE_HSE)
 800266c:	d078      	beq.n	8002760 <HAL_RCC_ClockConfig+0x168>
    else if (RCC_ClkInitStruct->SYSCLKSource == RCC_SYSCLKSOURCE_PLLCLK)
 800266e:	2a02      	cmp	r2, #2
 8002670:	d071      	beq.n	8002756 <HAL_RCC_ClockConfig+0x15e>
      if (__HAL_RCC_GET_FLAG(RCC_FLAG_HSIRDY) == RESET)
 8002672:	0798      	lsls	r0, r3, #30
 8002674:	d5d8      	bpl.n	8002628 <HAL_RCC_ClockConfig+0x30>
    __HAL_RCC_SYSCLK_CONFIG(RCC_ClkInitStruct->SYSCLKSource);
 8002676:	4e40      	ldr	r6, [pc, #256]	; (8002778 <HAL_RCC_ClockConfig+0x180>)
      if ((HAL_GetTick() - tickstart) > CLOCKSWITCH_TIMEOUT_VALUE)
 8002678:	f241 3888 	movw	r8, #5000	; 0x1388
    __HAL_RCC_SYSCLK_CONFIG(RCC_ClkInitStruct->SYSCLKSource);
 800267c:	6873      	ldr	r3, [r6, #4]
 800267e:	f023 0303 	bic.w	r3, r3, #3
 8002682:	4313      	orrs	r3, r2
 8002684:	6073      	str	r3, [r6, #4]
    tickstart = HAL_GetTick();
 8002686:	f7fe fd87 	bl	8001198 <HAL_GetTick>
 800268a:	4607      	mov	r7, r0
    while (__HAL_RCC_GET_SYSCLK_SOURCE() != (RCC_ClkInitStruct->SYSCLKSource << RCC_CFGR_SWS_Pos))
 800268c:	e004      	b.n	8002698 <HAL_RCC_ClockConfig+0xa0>
      if ((HAL_GetTick() - tickstart) > CLOCKSWITCH_TIMEOUT_VALUE)
 800268e:	f7fe fd83 	bl	8001198 <HAL_GetTick>
 8002692:	1bc0      	subs	r0, r0, r7
 8002694:	4540      	cmp	r0, r8
 8002696:	d866      	bhi.n	8002766 <HAL_RCC_ClockConfig+0x16e>
    while (__HAL_RCC_GET_SYSCLK_SOURCE() != (RCC_ClkInitStruct->SYSCLKSource << RCC_CFGR_SWS_Pos))
 8002698:	6873      	ldr	r3, [r6, #4]
 800269a:	6862      	ldr	r2, [r4, #4]
 800269c:	f003 030c 	and.w	r3, r3, #12
 80026a0:	ebb3 0f82 	cmp.w	r3, r2, lsl #2
 80026a4:	d1f3      	bne.n	800268e <HAL_RCC_ClockConfig+0x96>
  if (FLatency < __HAL_FLASH_GET_LATENCY())
 80026a6:	4a33      	ldr	r2, [pc, #204]	; (8002774 <HAL_RCC_ClockConfig+0x17c>)
 80026a8:	6813      	ldr	r3, [r2, #0]
 80026aa:	f003 0307 	and.w	r3, r3, #7
 80026ae:	42ab      	cmp	r3, r5
 80026b0:	d909      	bls.n	80026c6 <HAL_RCC_ClockConfig+0xce>
    __HAL_FLASH_SET_LATENCY(FLatency);
 80026b2:	6813      	ldr	r3, [r2, #0]
 80026b4:	f023 0307 	bic.w	r3, r3, #7
 80026b8:	432b      	orrs	r3, r5
 80026ba:	6013      	str	r3, [r2, #0]
    if (__HAL_FLASH_GET_LATENCY() != FLatency)
 80026bc:	6813      	ldr	r3, [r2, #0]
 80026be:	f003 0307 	and.w	r3, r3, #7
 80026c2:	42ab      	cmp	r3, r5
 80026c4:	d1b0      	bne.n	8002628 <HAL_RCC_ClockConfig+0x30>
if (((RCC_ClkInitStruct->ClockType) & RCC_CLOCKTYPE_PCLK1) == RCC_CLOCKTYPE_PCLK1)
 80026c6:	6823      	ldr	r3, [r4, #0]
 80026c8:	0759      	lsls	r1, r3, #29
 80026ca:	d506      	bpl.n	80026da <HAL_RCC_ClockConfig+0xe2>
    MODIFY_REG(RCC->CFGR, RCC_CFGR_PPRE1, RCC_ClkInitStruct->APB1CLKDivider);
 80026cc:	492a      	ldr	r1, [pc, #168]	; (8002778 <HAL_RCC_ClockConfig+0x180>)
 80026ce:	68e0      	ldr	r0, [r4, #12]
 80026d0:	684a      	ldr	r2, [r1, #4]
 80026d2:	f422 62e0 	bic.w	r2, r2, #1792	; 0x700
 80026d6:	4302      	orrs	r2, r0
 80026d8:	604a      	str	r2, [r1, #4]
  if (((RCC_ClkInitStruct->ClockType) & RCC_CLOCKTYPE_PCLK2) == RCC_CLOCKTYPE_PCLK2)
 80026da:	071a      	lsls	r2, r3, #28
 80026dc:	d507      	bpl.n	80026ee <HAL_RCC_ClockConfig+0xf6>
    MODIFY_REG(RCC->CFGR, RCC_CFGR_PPRE2, ((RCC_ClkInitStruct->APB2CLKDivider) << 3));
 80026de:	4a26      	ldr	r2, [pc, #152]	; (8002778 <HAL_RCC_ClockConfig+0x180>)
 80026e0:	6921      	ldr	r1, [r4, #16]
 80026e2:	6853      	ldr	r3, [r2, #4]
 80026e4:	f423 5360 	bic.w	r3, r3, #14336	; 0x3800
 80026e8:	ea43 03c1 	orr.w	r3, r3, r1, lsl #3
 80026ec:	6053      	str	r3, [r2, #4]
  const uint8_t aPredivFactorTable[2] = {1, 2};
 80026ee:	f240 2201 	movw	r2, #513	; 0x201
  const uint8_t aPLLMULFactorTable[16] = {2, 3, 4, 5, 6, 7, 8, 9, 10, 11, 12, 13, 14, 15, 16, 16};
 80026f2:	4b22      	ldr	r3, [pc, #136]	; (800277c <HAL_RCC_ClockConfig+0x184>)
 80026f4:	ac06      	add	r4, sp, #24
  const uint8_t aPredivFactorTable[2] = {1, 2};
 80026f6:	f8ad 2004 	strh.w	r2, [sp, #4]
  const uint8_t aPLLMULFactorTable[16] = {2, 3, 4, 5, 6, 7, 8, 9, 10, 11, 12, 13, 14, 15, 16, 16};
 80026fa:	cb0f      	ldmia	r3, {r0, r1, r2, r3}
 80026fc:	e904 000f 	stmdb	r4, {r0, r1, r2, r3}
  tmpreg = RCC->CFGR;
 8002700:	491d      	ldr	r1, [pc, #116]	; (8002778 <HAL_RCC_ClockConfig+0x180>)
 8002702:	684a      	ldr	r2, [r1, #4]
  switch (tmpreg & RCC_CFGR_SWS)
 8002704:	f002 030c 	and.w	r3, r2, #12
 8002708:	2b08      	cmp	r3, #8
 800270a:	d011      	beq.n	8002730 <HAL_RCC_ClockConfig+0x138>
      sysclockfreq = HSE_VALUE;
 800270c:	4b1c      	ldr	r3, [pc, #112]	; (8002780 <HAL_RCC_ClockConfig+0x188>)
  SystemCoreClock = HAL_RCC_GetSysClockFreq() >> AHBPrescTable[(RCC->CFGR & RCC_CFGR_HPRE) >> RCC_CFGR_HPRE_Pos];
 800270e:	4a1a      	ldr	r2, [pc, #104]	; (8002778 <HAL_RCC_ClockConfig+0x180>)
 8002710:	481c      	ldr	r0, [pc, #112]	; (8002784 <HAL_RCC_ClockConfig+0x18c>)
 8002712:	6852      	ldr	r2, [r2, #4]
  HAL_InitTick(uwTickPrio);
 8002714:	491c      	ldr	r1, [pc, #112]	; (8002788 <HAL_RCC_ClockConfig+0x190>)
  SystemCoreClock = HAL_RCC_GetSysClockFreq() >> AHBPrescTable[(RCC->CFGR & RCC_CFGR_HPRE) >> RCC_CFGR_HPRE_Pos];
 8002716:	f3c2 1203 	ubfx	r2, r2, #4, #4
 800271a:	5c80      	ldrb	r0, [r0, r2]
 800271c:	4a1b      	ldr	r2, [pc, #108]	; (800278c <HAL_RCC_ClockConfig+0x194>)
 800271e:	40c3      	lsrs	r3, r0
  HAL_InitTick(uwTickPrio);
 8002720:	6808      	ldr	r0, [r1, #0]
  SystemCoreClock = HAL_RCC_GetSysClockFreq() >> AHBPrescTable[(RCC->CFGR & RCC_CFGR_HPRE) >> RCC_CFGR_HPRE_Pos];
 8002722:	6013      	str	r3, [r2, #0]
  HAL_InitTick(uwTickPrio);
 8002724:	f7fe fd02 	bl	800112c <HAL_InitTick>
  return HAL_OK;
 8002728:	2000      	movs	r0, #0
}
 800272a:	b006      	add	sp, #24
 800272c:	e8bd 81f0 	ldmia.w	sp!, {r4, r5, r6, r7, r8, pc}
      pllmul = aPLLMULFactorTable[(uint32_t)(tmpreg & RCC_CFGR_PLLMULL) >> RCC_CFGR_PLLMULL_Pos];
 8002730:	f3c2 4383 	ubfx	r3, r2, #18, #4
 8002734:	4423      	add	r3, r4
 8002736:	f813 0c10 	ldrb.w	r0, [r3, #-16]
      if ((tmpreg & RCC_CFGR_PLLSRC) != RCC_PLLSOURCE_HSI_DIV2)
 800273a:	03d3      	lsls	r3, r2, #15
 800273c:	d515      	bpl.n	800276a <HAL_RCC_ClockConfig+0x172>
        prediv = aPredivFactorTable[(uint32_t)(RCC->CFGR & RCC_CFGR_PLLXTPRE) >> RCC_CFGR_PLLXTPRE_Pos];
 800273e:	684a      	ldr	r2, [r1, #4]
        pllclk = (uint32_t)((HSE_VALUE  * pllmul) / prediv);
 8002740:	4b0f      	ldr	r3, [pc, #60]	; (8002780 <HAL_RCC_ClockConfig+0x188>)
        prediv = aPredivFactorTable[(uint32_t)(RCC->CFGR & RCC_CFGR_PLLXTPRE) >> RCC_CFGR_PLLXTPRE_Pos];
 8002742:	f3c2 4240 	ubfx	r2, r2, #17, #1
        pllclk = (uint32_t)((HSE_VALUE  * pllmul) / prediv);
 8002746:	fb03 f300 	mul.w	r3, r3, r0
        prediv = aPredivFactorTable[(uint32_t)(RCC->CFGR & RCC_CFGR_PLLXTPRE) >> RCC_CFGR_PLLXTPRE_Pos];
 800274a:	4422      	add	r2, r4
 800274c:	f812 2c14 	ldrb.w	r2, [r2, #-20]
        pllclk = (uint32_t)((HSE_VALUE  * pllmul) / prediv);
 8002750:	fbb3 f3f2 	udiv	r3, r3, r2
 8002754:	e7db      	b.n	800270e <HAL_RCC_ClockConfig+0x116>
      if (__HAL_RCC_GET_FLAG(RCC_FLAG_PLLRDY) == RESET)
 8002756:	019e      	lsls	r6, r3, #6
 8002758:	d48d      	bmi.n	8002676 <HAL_RCC_ClockConfig+0x7e>
 800275a:	e765      	b.n	8002628 <HAL_RCC_ClockConfig+0x30>
    return HAL_ERROR;
 800275c:	2001      	movs	r0, #1
}
 800275e:	4770      	bx	lr
      if (__HAL_RCC_GET_FLAG(RCC_FLAG_HSERDY) == RESET)
 8002760:	039f      	lsls	r7, r3, #14
 8002762:	d488      	bmi.n	8002676 <HAL_RCC_ClockConfig+0x7e>
 8002764:	e760      	b.n	8002628 <HAL_RCC_ClockConfig+0x30>
        return HAL_TIMEOUT;
 8002766:	2003      	movs	r0, #3
 8002768:	e75f      	b.n	800262a <HAL_RCC_ClockConfig+0x32>
        pllclk = (uint32_t)((HSI_VALUE >> 1) * pllmul);
 800276a:	4b09      	ldr	r3, [pc, #36]	; (8002790 <HAL_RCC_ClockConfig+0x198>)
 800276c:	fb03 f300 	mul.w	r3, r3, r0
 8002770:	e7cd      	b.n	800270e <HAL_RCC_ClockConfig+0x116>
 8002772:	bf00      	nop
 8002774:	40022000 	.word	0x40022000
 8002778:	40021000 	.word	0x40021000
 800277c:	08004660 	.word	0x08004660
 8002780:	007a1200 	.word	0x007a1200
 8002784:	08004650 	.word	0x08004650
 8002788:	200000ac 	.word	0x200000ac
 800278c:	20000000 	.word	0x20000000
 8002790:	003d0900 	.word	0x003d0900

08002794 <HAL_RCCEx_PeriphCLKConfig>:
  *         manually disable it.
  *
  * @retval HAL status
  */
HAL_StatusTypeDef HAL_RCCEx_PeriphCLKConfig(RCC_PeriphCLKInitTypeDef  *PeriphClkInit)
{
 8002794:	e92d 41f0 	stmdb	sp!, {r4, r5, r6, r7, r8, lr}
 8002798:	4604      	mov	r4, r0

  /* Check the parameters */
  assert_param(IS_RCC_PERIPHCLOCK(PeriphClkInit->PeriphClockSelection));

  /*------------------------------- RTC/LCD Configuration ------------------------*/
  if ((((PeriphClkInit->PeriphClockSelection) & RCC_PERIPHCLK_RTC) == RCC_PERIPHCLK_RTC))
 800279a:	6800      	ldr	r0, [r0, #0]
{
 800279c:	b082      	sub	sp, #8
  if ((((PeriphClkInit->PeriphClockSelection) & RCC_PERIPHCLK_RTC) == RCC_PERIPHCLK_RTC))
 800279e:	07c3      	lsls	r3, r0, #31
 80027a0:	d52a      	bpl.n	80027f8 <HAL_RCCEx_PeriphCLKConfig+0x64>
    assert_param(IS_RCC_RTCCLKSOURCE(PeriphClkInit->RTCClockSelection));

    /* As soon as function is called to change RTC clock source, activation of the
       power domain is done. */
    /* Requires to enable write access to Backup Domain of necessary */
    if (__HAL_RCC_PWR_IS_CLK_DISABLED())
 80027a2:	4b39      	ldr	r3, [pc, #228]	; (8002888 <HAL_RCCEx_PeriphCLKConfig+0xf4>)
 80027a4:	69da      	ldr	r2, [r3, #28]
 80027a6:	00d7      	lsls	r7, r2, #3
 80027a8:	d53d      	bpl.n	8002826 <HAL_RCCEx_PeriphCLKConfig+0x92>
    {
      __HAL_RCC_PWR_CLK_ENABLE();
      pwrclkchanged = SET;
    }

    if (HAL_IS_BIT_CLR(PWR->CR, PWR_CR_DBP))
 80027aa:	4b38      	ldr	r3, [pc, #224]	; (800288c <HAL_RCCEx_PeriphCLKConfig+0xf8>)
    FlagStatus pwrclkchanged = RESET;
 80027ac:	2500      	movs	r5, #0
    if (HAL_IS_BIT_CLR(PWR->CR, PWR_CR_DBP))
 80027ae:	681a      	ldr	r2, [r3, #0]
 80027b0:	05d6      	lsls	r6, r2, #23
 80027b2:	d546      	bpl.n	8002842 <HAL_RCCEx_PeriphCLKConfig+0xae>
        }
      }
    }

    /* Reset the Backup domain only if the RTC Clock source selection is modified from reset value */
    temp_reg = (RCC->BDCR & RCC_BDCR_RTCSEL);
 80027b4:	4e34      	ldr	r6, [pc, #208]	; (8002888 <HAL_RCCEx_PeriphCLKConfig+0xf4>)
 80027b6:	6a33      	ldr	r3, [r6, #32]
    if ((temp_reg != 0x00000000U) && (temp_reg != (PeriphClkInit->RTCClockSelection & RCC_BDCR_RTCSEL)))
 80027b8:	f413 7340 	ands.w	r3, r3, #768	; 0x300
 80027bc:	d00f      	beq.n	80027de <HAL_RCCEx_PeriphCLKConfig+0x4a>
 80027be:	6861      	ldr	r1, [r4, #4]
 80027c0:	f401 7240 	and.w	r2, r1, #768	; 0x300
 80027c4:	429a      	cmp	r2, r3
 80027c6:	d00b      	beq.n	80027e0 <HAL_RCCEx_PeriphCLKConfig+0x4c>
    {
      /* Store the content of BDCR register before the reset of Backup Domain */
      temp_reg = (RCC->BDCR & ~(RCC_BDCR_RTCSEL));
      /* RTC Clock selection can be changed only if the Backup Domain is reset */
      __HAL_RCC_BACKUPRESET_FORCE();
 80027c8:	2701      	movs	r7, #1
      __HAL_RCC_BACKUPRESET_RELEASE();
 80027ca:	2000      	movs	r0, #0
      temp_reg = (RCC->BDCR & ~(RCC_BDCR_RTCSEL));
 80027cc:	6a33      	ldr	r3, [r6, #32]
      __HAL_RCC_BACKUPRESET_FORCE();
 80027ce:	4a30      	ldr	r2, [pc, #192]	; (8002890 <HAL_RCCEx_PeriphCLKConfig+0xfc>)
      temp_reg = (RCC->BDCR & ~(RCC_BDCR_RTCSEL));
 80027d0:	f423 7140 	bic.w	r1, r3, #768	; 0x300
      __HAL_RCC_BACKUPRESET_FORCE();
 80027d4:	6017      	str	r7, [r2, #0]
      __HAL_RCC_BACKUPRESET_RELEASE();
 80027d6:	6010      	str	r0, [r2, #0]
      /* Restore the Content of BDCR register */
      RCC->BDCR = temp_reg;
 80027d8:	6231      	str	r1, [r6, #32]

      /* Wait for LSERDY if LSE was enabled */
      if (HAL_IS_BIT_SET(temp_reg, RCC_BDCR_LSEON))
 80027da:	07d9      	lsls	r1, r3, #31
 80027dc:	d445      	bmi.n	800286a <HAL_RCCEx_PeriphCLKConfig+0xd6>
 80027de:	6861      	ldr	r1, [r4, #4]
            return HAL_TIMEOUT;
          }
        }
      }
    }
    __HAL_RCC_RTC_CONFIG(PeriphClkInit->RTCClockSelection);
 80027e0:	4a29      	ldr	r2, [pc, #164]	; (8002888 <HAL_RCCEx_PeriphCLKConfig+0xf4>)
 80027e2:	6a13      	ldr	r3, [r2, #32]
 80027e4:	f423 7340 	bic.w	r3, r3, #768	; 0x300
 80027e8:	430b      	orrs	r3, r1
 80027ea:	6213      	str	r3, [r2, #32]

    /* Require to disable power clock if necessary */
    if (pwrclkchanged == SET)
 80027ec:	b11d      	cbz	r5, 80027f6 <HAL_RCCEx_PeriphCLKConfig+0x62>
    {
      __HAL_RCC_PWR_CLK_DISABLE();
 80027ee:	69d3      	ldr	r3, [r2, #28]
 80027f0:	f023 5380 	bic.w	r3, r3, #268435456	; 0x10000000
 80027f4:	61d3      	str	r3, [r2, #28]
 80027f6:	6820      	ldr	r0, [r4, #0]
    }
  }

  /*------------------------------ ADC clock Configuration ------------------*/
  if (((PeriphClkInit->PeriphClockSelection) & RCC_PERIPHCLK_ADC) == RCC_PERIPHCLK_ADC)
 80027f8:	0783      	lsls	r3, r0, #30
 80027fa:	d506      	bpl.n	800280a <HAL_RCCEx_PeriphCLKConfig+0x76>
  {
    /* Check the parameters */
    assert_param(IS_RCC_ADCPLLCLK_DIV(PeriphClkInit->AdcClockSelection));

    /* Configure the ADC clock source */
    __HAL_RCC_ADC_CONFIG(PeriphClkInit->AdcClockSelection);
 80027fc:	4922      	ldr	r1, [pc, #136]	; (8002888 <HAL_RCCEx_PeriphCLKConfig+0xf4>)
 80027fe:	68a3      	ldr	r3, [r4, #8]
 8002800:	684a      	ldr	r2, [r1, #4]
 8002802:	f422 4240 	bic.w	r2, r2, #49152	; 0xc000
 8002806:	431a      	orrs	r2, r3
 8002808:	604a      	str	r2, [r1, #4]

#if defined(STM32F102x6) || defined(STM32F102xB) || defined(STM32F103x6)\
 || defined(STM32F103xB) || defined(STM32F103xE) || defined(STM32F103xG)\
 || defined(STM32F105xC) || defined(STM32F107xC)
  /*------------------------------ USB clock Configuration ------------------*/
  if (((PeriphClkInit->PeriphClockSelection) & RCC_PERIPHCLK_USB) == RCC_PERIPHCLK_USB)
 800280a:	f010 0010 	ands.w	r0, r0, #16
 800280e:	d007      	beq.n	8002820 <HAL_RCCEx_PeriphCLKConfig+0x8c>
    /* Configure the USB clock source */
    __HAL_RCC_USB_CONFIG(PeriphClkInit->UsbClockSelection);
  }
#endif /* STM32F102x6 || STM32F102xB || STM32F103x6 || STM32F103xB || STM32F103xE || STM32F103xG || STM32F105xC || STM32F107xC */

  return HAL_OK;
 8002810:	2000      	movs	r0, #0
    __HAL_RCC_USB_CONFIG(PeriphClkInit->UsbClockSelection);
 8002812:	4a1d      	ldr	r2, [pc, #116]	; (8002888 <HAL_RCCEx_PeriphCLKConfig+0xf4>)
 8002814:	68e1      	ldr	r1, [r4, #12]
 8002816:	6853      	ldr	r3, [r2, #4]
 8002818:	f423 0380 	bic.w	r3, r3, #4194304	; 0x400000
 800281c:	430b      	orrs	r3, r1
 800281e:	6053      	str	r3, [r2, #4]
}
 8002820:	b002      	add	sp, #8
 8002822:	e8bd 81f0 	ldmia.w	sp!, {r4, r5, r6, r7, r8, pc}
      __HAL_RCC_PWR_CLK_ENABLE();
 8002826:	69da      	ldr	r2, [r3, #28]
      pwrclkchanged = SET;
 8002828:	2501      	movs	r5, #1
      __HAL_RCC_PWR_CLK_ENABLE();
 800282a:	f042 5280 	orr.w	r2, r2, #268435456	; 0x10000000
 800282e:	61da      	str	r2, [r3, #28]
 8002830:	69db      	ldr	r3, [r3, #28]
 8002832:	f003 5380 	and.w	r3, r3, #268435456	; 0x10000000
 8002836:	9301      	str	r3, [sp, #4]
 8002838:	9b01      	ldr	r3, [sp, #4]
    if (HAL_IS_BIT_CLR(PWR->CR, PWR_CR_DBP))
 800283a:	4b14      	ldr	r3, [pc, #80]	; (800288c <HAL_RCCEx_PeriphCLKConfig+0xf8>)
 800283c:	681a      	ldr	r2, [r3, #0]
 800283e:	05d6      	lsls	r6, r2, #23
 8002840:	d4b8      	bmi.n	80027b4 <HAL_RCCEx_PeriphCLKConfig+0x20>
      SET_BIT(PWR->CR, PWR_CR_DBP);
 8002842:	681a      	ldr	r2, [r3, #0]
      while (HAL_IS_BIT_CLR(PWR->CR, PWR_CR_DBP))
 8002844:	461f      	mov	r7, r3
      SET_BIT(PWR->CR, PWR_CR_DBP);
 8002846:	f442 7280 	orr.w	r2, r2, #256	; 0x100
 800284a:	601a      	str	r2, [r3, #0]
      tickstart = HAL_GetTick();
 800284c:	f7fe fca4 	bl	8001198 <HAL_GetTick>
 8002850:	4606      	mov	r6, r0
      while (HAL_IS_BIT_CLR(PWR->CR, PWR_CR_DBP))
 8002852:	683b      	ldr	r3, [r7, #0]
 8002854:	05d8      	lsls	r0, r3, #23
 8002856:	d4ad      	bmi.n	80027b4 <HAL_RCCEx_PeriphCLKConfig+0x20>
        if ((HAL_GetTick() - tickstart) > RCC_DBP_TIMEOUT_VALUE)
 8002858:	f7fe fc9e 	bl	8001198 <HAL_GetTick>
 800285c:	1b83      	subs	r3, r0, r6
 800285e:	2b64      	cmp	r3, #100	; 0x64
 8002860:	d9f7      	bls.n	8002852 <HAL_RCCEx_PeriphCLKConfig+0xbe>
          return HAL_TIMEOUT;
 8002862:	2003      	movs	r0, #3
}
 8002864:	b002      	add	sp, #8
 8002866:	e8bd 81f0 	ldmia.w	sp!, {r4, r5, r6, r7, r8, pc}
        tickstart = HAL_GetTick();
 800286a:	f7fe fc95 	bl	8001198 <HAL_GetTick>
          if ((HAL_GetTick() - tickstart) > RCC_LSE_TIMEOUT_VALUE)
 800286e:	f241 3888 	movw	r8, #5000	; 0x1388
        tickstart = HAL_GetTick();
 8002872:	4607      	mov	r7, r0
        while (__HAL_RCC_GET_FLAG(RCC_FLAG_LSERDY) == RESET)
 8002874:	e004      	b.n	8002880 <HAL_RCCEx_PeriphCLKConfig+0xec>
          if ((HAL_GetTick() - tickstart) > RCC_LSE_TIMEOUT_VALUE)
 8002876:	f7fe fc8f 	bl	8001198 <HAL_GetTick>
 800287a:	1bc0      	subs	r0, r0, r7
 800287c:	4540      	cmp	r0, r8
 800287e:	d8f0      	bhi.n	8002862 <HAL_RCCEx_PeriphCLKConfig+0xce>
        while (__HAL_RCC_GET_FLAG(RCC_FLAG_LSERDY) == RESET)
 8002880:	6a33      	ldr	r3, [r6, #32]
 8002882:	079a      	lsls	r2, r3, #30
 8002884:	d5f7      	bpl.n	8002876 <HAL_RCCEx_PeriphCLKConfig+0xe2>
 8002886:	e7aa      	b.n	80027de <HAL_RCCEx_PeriphCLKConfig+0x4a>
 8002888:	40021000 	.word	0x40021000
 800288c:	40007000 	.word	0x40007000
 8002890:	42420440 	.word	0x42420440

08002894 <USB_CoreInit>:
  * @param  cfg pointer to a USB_CfgTypeDef structure that contains
  *         the configuration information for the specified USBx peripheral.
  * @retval HAL status
  */
HAL_StatusTypeDef USB_CoreInit(USB_TypeDef *USBx, USB_CfgTypeDef cfg)
{
 8002894:	b084      	sub	sp, #16
 8002896:	a801      	add	r0, sp, #4
 8002898:	e880 000e 	stmia.w	r0, {r1, r2, r3}
              only by USB OTG FS peripheral.
            - This function is added to ensure compatibility across platforms.
   */

  return HAL_OK;
}
 800289c:	b004      	add	sp, #16
 800289e:	2000      	movs	r0, #0
 80028a0:	4770      	bx	lr
 80028a2:	bf00      	nop

080028a4 <USB_EnableGlobalInt>:
  *         Enables the controller's Global Int in the AHB Config reg
  * @param  USBx Selected device
  * @retval HAL status
  */
HAL_StatusTypeDef USB_EnableGlobalInt(USB_TypeDef *USBx)
{
 80028a4:	4603      	mov	r3, r0
                   USB_CNTR_SUSPM | USB_CNTR_ERRM |
                   USB_CNTR_SOFM | USB_CNTR_ESOFM |
                   USB_CNTR_RESETM;

  /* Set interrupt mask */
  USBx->CNTR = (uint16_t)winterruptmask;
 80028a6:	f44f 423f 	mov.w	r2, #48896	; 0xbf00
  USBx->ISTR = 0U;
 80028aa:	2000      	movs	r0, #0
 80028ac:	f8a3 0044 	strh.w	r0, [r3, #68]	; 0x44
  USBx->CNTR = (uint16_t)winterruptmask;
 80028b0:	f8a3 2040 	strh.w	r2, [r3, #64]	; 0x40

  return HAL_OK;
}
 80028b4:	4770      	bx	lr
 80028b6:	bf00      	nop

080028b8 <USB_DisableGlobalInt>:
                   USB_CNTR_SUSPM | USB_CNTR_ERRM |
                   USB_CNTR_SOFM | USB_CNTR_ESOFM |
                   USB_CNTR_RESETM;

  /* Clear interrupt mask */
  USBx->CNTR &= (uint16_t)(~winterruptmask);
 80028b8:	f244 02ff 	movw	r2, #16639	; 0x40ff
{
 80028bc:	4603      	mov	r3, r0
  USBx->CNTR &= (uint16_t)(~winterruptmask);
 80028be:	f8b0 1040 	ldrh.w	r1, [r0, #64]	; 0x40

  return HAL_OK;
}
 80028c2:	2000      	movs	r0, #0
  USBx->CNTR &= (uint16_t)(~winterruptmask);
 80028c4:	400a      	ands	r2, r1
 80028c6:	f8a3 2040 	strh.w	r2, [r3, #64]	; 0x40
}
 80028ca:	4770      	bx	lr

080028cc <USB_SetCurrentMode>:
  /* NOTE : - This function is not required by USB Device FS peripheral, it is used
              only by USB OTG FS peripheral.
            - This function is added to ensure compatibility across platforms.
   */
  return HAL_OK;
}
 80028cc:	2000      	movs	r0, #0
 80028ce:	4770      	bx	lr

080028d0 <USB_DevInit>:
  * @param  cfg  pointer to a USB_CfgTypeDef structure that contains
  *         the configuration information for the specified USBx peripheral.
  * @retval HAL status
  */
HAL_StatusTypeDef USB_DevInit(USB_TypeDef *USBx, USB_CfgTypeDef cfg)
{
 80028d0:	b084      	sub	sp, #16
 80028d2:	b430      	push	{r4, r5}
 80028d4:	4604      	mov	r4, r0
  /* Prevent unused argument(s) compilation warning */
  UNUSED(cfg);

  /* Init Device */
  /* CNTR_FRES = 1 */
  USBx->CNTR = (uint16_t)USB_CNTR_FRES;
 80028d6:	2501      	movs	r5, #1

  /* CNTR_FRES = 0 */
  USBx->CNTR = 0U;
 80028d8:	2000      	movs	r0, #0
  USBx->CNTR = (uint16_t)USB_CNTR_FRES;
 80028da:	f8a4 5040 	strh.w	r5, [r4, #64]	; 0x40
{
 80028de:	ad03      	add	r5, sp, #12
  USBx->CNTR = 0U;
 80028e0:	f8a4 0040 	strh.w	r0, [r4, #64]	; 0x40
{
 80028e4:	e885 000e 	stmia.w	r5, {r1, r2, r3}

  /* Clear pending interrupts */
  USBx->ISTR = 0U;
 80028e8:	f8a4 0044 	strh.w	r0, [r4, #68]	; 0x44

  /*Set Btable Address*/
  USBx->BTABLE = BTABLE_ADDRESS;
 80028ec:	f8a4 0050 	strh.w	r0, [r4, #80]	; 0x50

  return HAL_OK;
}
 80028f0:	bc30      	pop	{r4, r5}
 80028f2:	b004      	add	sp, #16
 80028f4:	4770      	bx	lr
 80028f6:	bf00      	nop

080028f8 <USB_ActivateEndpoint>:
  * @param  USBx Selected device
  * @param  ep pointer to endpoint structure
  * @retval HAL status
  */
HAL_StatusTypeDef USB_ActivateEndpoint(USB_TypeDef *USBx, USB_EPTypeDef *ep)
{
 80028f8:	4603      	mov	r3, r0
 80028fa:	b470      	push	{r4, r5, r6}
  HAL_StatusTypeDef ret = HAL_OK;
  uint16_t wEpRegVal;

  wEpRegVal = PCD_GET_ENDPOINT(USBx, ep->num) & USB_EP_T_MASK;
 80028fc:	780d      	ldrb	r5, [r1, #0]

  /* initialize Endpoint */
  switch (ep->type)
 80028fe:	78c8      	ldrb	r0, [r1, #3]
  wEpRegVal = PCD_GET_ENDPOINT(USBx, ep->num) & USB_EP_T_MASK;
 8002900:	f833 2025 	ldrh.w	r2, [r3, r5, lsl #2]
 8002904:	f422 42ec 	bic.w	r2, r2, #30208	; 0x7600
 8002908:	f022 0270 	bic.w	r2, r2, #112	; 0x70
 800290c:	0412      	lsls	r2, r2, #16
 800290e:	0c12      	lsrs	r2, r2, #16
  switch (ep->type)
 8002910:	2803      	cmp	r0, #3
 8002912:	f200 816c 	bhi.w	8002bee <USB_ActivateEndpoint+0x2f6>
 8002916:	e8df f000 	tbb	[pc, r0]
 800291a:	5054      	.short	0x5054
 800291c:	0204      	.short	0x0204
    case EP_TYPE_BULK:
      wEpRegVal |= USB_EP_BULK;
      break;

    case EP_TYPE_INTR:
      wEpRegVal |= USB_EP_INTERRUPT;
 800291e:	f442 62c0 	orr.w	r2, r2, #1536	; 0x600
  HAL_StatusTypeDef ret = HAL_OK;
 8002922:	2000      	movs	r0, #0
    default:
      ret = HAL_ERROR;
      break;
  }

  PCD_SET_ENDPOINT(USBx, ep->num, (wEpRegVal | USB_EP_CTR_RX | USB_EP_CTR_TX));
 8002924:	f248 0480 	movw	r4, #32896	; 0x8080
 8002928:	4322      	orrs	r2, r4
 800292a:	f823 2025 	strh.w	r2, [r3, r5, lsl #2]

  PCD_SET_EP_ADDRESS(USBx, ep->num, ep->num);
 800292e:	780e      	ldrb	r6, [r1, #0]
 8002930:	4db0      	ldr	r5, [pc, #704]	; (8002bf4 <USB_ActivateEndpoint+0x2fc>)
 8002932:	f833 2026 	ldrh.w	r2, [r3, r6, lsl #2]
 8002936:	b292      	uxth	r2, r2
 8002938:	402a      	ands	r2, r5
 800293a:	4332      	orrs	r2, r6
 800293c:	4322      	orrs	r2, r4
 800293e:	f823 2026 	strh.w	r2, [r3, r6, lsl #2]

  if (ep->doublebuffer == 0U)
 8002942:	7b0a      	ldrb	r2, [r1, #12]
 8002944:	2a00      	cmp	r2, #0
 8002946:	f040 8089 	bne.w	8002a5c <USB_ActivateEndpoint+0x164>
  {
    if (ep->is_in != 0U)
 800294a:	784a      	ldrb	r2, [r1, #1]
 800294c:	2a00      	cmp	r2, #0
 800294e:	d03b      	beq.n	80029c8 <USB_ActivateEndpoint+0xd0>
    {
      /*Set the endpoint Transmit buffer address */
      PCD_SET_EP_TX_ADDRESS(USBx, ep->num, ep->pmaadress);
 8002950:	780a      	ldrb	r2, [r1, #0]
 8002952:	88cc      	ldrh	r4, [r1, #6]
 8002954:	f8b3 6050 	ldrh.w	r6, [r3, #80]	; 0x50
 8002958:	eb03 1202 	add.w	r2, r3, r2, lsl #4
 800295c:	0864      	lsrs	r4, r4, #1
 800295e:	f502 6280 	add.w	r2, r2, #1024	; 0x400
 8002962:	0064      	lsls	r4, r4, #1
 8002964:	b2b6      	uxth	r6, r6
 8002966:	5394      	strh	r4, [r2, r6]
      PCD_CLEAR_TX_DTOG(USBx, ep->num);
 8002968:	780c      	ldrb	r4, [r1, #0]
 800296a:	f833 6024 	ldrh.w	r6, [r3, r4, lsl #2]
 800296e:	eb03 0284 	add.w	r2, r3, r4, lsl #2
 8002972:	0676      	lsls	r6, r6, #25
 8002974:	d50c      	bpl.n	8002990 <USB_ActivateEndpoint+0x98>
 8002976:	f833 2024 	ldrh.w	r2, [r3, r4, lsl #2]
 800297a:	b292      	uxth	r2, r2
 800297c:	4015      	ands	r5, r2
 800297e:	f445 4500 	orr.w	r5, r5, #32768	; 0x8000
 8002982:	f045 05c0 	orr.w	r5, r5, #192	; 0xc0
 8002986:	f823 5024 	strh.w	r5, [r3, r4, lsl #2]
 800298a:	780a      	ldrb	r2, [r1, #0]
 800298c:	eb03 0282 	add.w	r2, r3, r2, lsl #2

      if (ep->type != EP_TYPE_ISOC)
 8002990:	78cb      	ldrb	r3, [r1, #3]
 8002992:	2b01      	cmp	r3, #1
      {
        /* Configure NAK status for the Endpoint */
        PCD_SET_EP_TX_STATUS(USBx, ep->num, USB_EP_TX_NAK);
 8002994:	8813      	ldrh	r3, [r2, #0]
 8002996:	f423 43e0 	bic.w	r3, r3, #28672	; 0x7000
 800299a:	f023 0340 	bic.w	r3, r3, #64	; 0x40
 800299e:	ea4f 4303 	mov.w	r3, r3, lsl #16
 80029a2:	ea4f 4313 	mov.w	r3, r3, lsr #16
      if (ep->type != EP_TYPE_ISOC)
 80029a6:	d052      	beq.n	8002a4e <USB_ActivateEndpoint+0x156>
      PCD_SET_EP_RX_STATUS(USBx, ep->num, USB_EP_RX_DIS);
    }
  }

  return ret;
}
 80029a8:	bc70      	pop	{r4, r5, r6}
        PCD_SET_EP_TX_STATUS(USBx, ep->num, USB_EP_TX_NAK);
 80029aa:	f083 0320 	eor.w	r3, r3, #32
 80029ae:	f443 4300 	orr.w	r3, r3, #32768	; 0x8000
 80029b2:	f043 0380 	orr.w	r3, r3, #128	; 0x80
 80029b6:	8013      	strh	r3, [r2, #0]
}
 80029b8:	4770      	bx	lr
  HAL_StatusTypeDef ret = HAL_OK;
 80029ba:	2000      	movs	r0, #0
      wEpRegVal |= USB_EP_ISOCHRONOUS;
 80029bc:	f442 6280 	orr.w	r2, r2, #1024	; 0x400
      break;
 80029c0:	e7b0      	b.n	8002924 <USB_ActivateEndpoint+0x2c>
      wEpRegVal |= USB_EP_CONTROL;
 80029c2:	f442 7200 	orr.w	r2, r2, #512	; 0x200
      break;
 80029c6:	e7ad      	b.n	8002924 <USB_ActivateEndpoint+0x2c>
      PCD_SET_EP_RX_ADDRESS(USBx, ep->num, ep->pmaadress);
 80029c8:	780a      	ldrb	r2, [r1, #0]
 80029ca:	88cc      	ldrh	r4, [r1, #6]
 80029cc:	f8b3 5050 	ldrh.w	r5, [r3, #80]	; 0x50
 80029d0:	eb03 1202 	add.w	r2, r3, r2, lsl #4
 80029d4:	0864      	lsrs	r4, r4, #1
 80029d6:	f502 6281 	add.w	r2, r2, #1032	; 0x408
 80029da:	0064      	lsls	r4, r4, #1
 80029dc:	b2ad      	uxth	r5, r5
 80029de:	5354      	strh	r4, [r2, r5]
      PCD_SET_EP_RX_CNT(USBx, ep->num, ep->maxpacket);
 80029e0:	780a      	ldrb	r2, [r1, #0]
 80029e2:	f8b3 4050 	ldrh.w	r4, [r3, #80]	; 0x50
 80029e6:	690d      	ldr	r5, [r1, #16]
 80029e8:	eb03 1202 	add.w	r2, r3, r2, lsl #4
 80029ec:	f202 420c 	addw	r2, r2, #1036	; 0x40c
 80029f0:	b2a4      	uxth	r4, r4
 80029f2:	2d00      	cmp	r5, #0
 80029f4:	f000 80e2 	beq.w	8002bbc <USB_ActivateEndpoint+0x2c4>
 80029f8:	2d3e      	cmp	r5, #62	; 0x3e
 80029fa:	f200 80ed 	bhi.w	8002bd8 <USB_ActivateEndpoint+0x2e0>
 80029fe:	086e      	lsrs	r6, r5, #1
 8002a00:	07ed      	lsls	r5, r5, #31
 8002a02:	bf48      	it	mi
 8002a04:	3601      	addmi	r6, #1
 8002a06:	02b6      	lsls	r6, r6, #10
 8002a08:	b2b6      	uxth	r6, r6
 8002a0a:	5316      	strh	r6, [r2, r4]
      PCD_CLEAR_RX_DTOG(USBx, ep->num);
 8002a0c:	780c      	ldrb	r4, [r1, #0]
 8002a0e:	f833 5024 	ldrh.w	r5, [r3, r4, lsl #2]
 8002a12:	eb03 0284 	add.w	r2, r3, r4, lsl #2
 8002a16:	046d      	lsls	r5, r5, #17
 8002a18:	d510      	bpl.n	8002a3c <USB_ActivateEndpoint+0x144>
 8002a1a:	f833 2024 	ldrh.w	r2, [r3, r4, lsl #2]
 8002a1e:	f422 42e0 	bic.w	r2, r2, #28672	; 0x7000
 8002a22:	f022 0270 	bic.w	r2, r2, #112	; 0x70
 8002a26:	0412      	lsls	r2, r2, #16
 8002a28:	0c12      	lsrs	r2, r2, #16
 8002a2a:	f442 4240 	orr.w	r2, r2, #49152	; 0xc000
 8002a2e:	f042 0280 	orr.w	r2, r2, #128	; 0x80
 8002a32:	f823 2024 	strh.w	r2, [r3, r4, lsl #2]
 8002a36:	780a      	ldrb	r2, [r1, #0]
 8002a38:	eb03 0282 	add.w	r2, r3, r2, lsl #2
      PCD_SET_EP_RX_STATUS(USBx, ep->num, USB_EP_RX_VALID);
 8002a3c:	8813      	ldrh	r3, [r2, #0]
 8002a3e:	f423 4380 	bic.w	r3, r3, #16384	; 0x4000
 8002a42:	f023 0370 	bic.w	r3, r3, #112	; 0x70
 8002a46:	041b      	lsls	r3, r3, #16
 8002a48:	0c1b      	lsrs	r3, r3, #16
 8002a4a:	f483 5340 	eor.w	r3, r3, #12288	; 0x3000
 8002a4e:	f443 4300 	orr.w	r3, r3, #32768	; 0x8000
 8002a52:	f043 0380 	orr.w	r3, r3, #128	; 0x80
 8002a56:	8013      	strh	r3, [r2, #0]
}
 8002a58:	bc70      	pop	{r4, r5, r6}
 8002a5a:	4770      	bx	lr
    PCD_SET_EP_DBUF(USBx, ep->num);
 8002a5c:	780c      	ldrb	r4, [r1, #0]
 8002a5e:	f833 2024 	ldrh.w	r2, [r3, r4, lsl #2]
 8002a62:	b292      	uxth	r2, r2
 8002a64:	402a      	ands	r2, r5
 8002a66:	f442 4201 	orr.w	r2, r2, #33024	; 0x8100
 8002a6a:	f042 0280 	orr.w	r2, r2, #128	; 0x80
 8002a6e:	f823 2024 	strh.w	r2, [r3, r4, lsl #2]
    PCD_SET_EP_DBUF_ADDR(USBx, ep->num, ep->pmaaddr0, ep->pmaaddr1);
 8002a72:	780a      	ldrb	r2, [r1, #0]
 8002a74:	890c      	ldrh	r4, [r1, #8]
 8002a76:	f8b3 6050 	ldrh.w	r6, [r3, #80]	; 0x50
 8002a7a:	eb03 1202 	add.w	r2, r3, r2, lsl #4
 8002a7e:	0864      	lsrs	r4, r4, #1
 8002a80:	f502 6280 	add.w	r2, r2, #1024	; 0x400
 8002a84:	0064      	lsls	r4, r4, #1
 8002a86:	b2b6      	uxth	r6, r6
 8002a88:	5394      	strh	r4, [r2, r6]
 8002a8a:	780a      	ldrb	r2, [r1, #0]
 8002a8c:	894c      	ldrh	r4, [r1, #10]
 8002a8e:	f8b3 6050 	ldrh.w	r6, [r3, #80]	; 0x50
 8002a92:	eb03 1202 	add.w	r2, r3, r2, lsl #4
 8002a96:	0864      	lsrs	r4, r4, #1
 8002a98:	f502 6281 	add.w	r2, r2, #1032	; 0x408
 8002a9c:	b2b6      	uxth	r6, r6
 8002a9e:	0064      	lsls	r4, r4, #1
 8002aa0:	5394      	strh	r4, [r2, r6]
    if (ep->is_in == 0U)
 8002aa2:	784a      	ldrb	r2, [r1, #1]
      PCD_CLEAR_RX_DTOG(USBx, ep->num);
 8002aa4:	780e      	ldrb	r6, [r1, #0]
    if (ep->is_in == 0U)
 8002aa6:	2a00      	cmp	r2, #0
 8002aa8:	d13f      	bne.n	8002b2a <USB_ActivateEndpoint+0x232>
      PCD_CLEAR_RX_DTOG(USBx, ep->num);
 8002aaa:	f833 2026 	ldrh.w	r2, [r3, r6, lsl #2]
 8002aae:	eb03 0486 	add.w	r4, r3, r6, lsl #2
 8002ab2:	0452      	lsls	r2, r2, #17
 8002ab4:	d50c      	bpl.n	8002ad0 <USB_ActivateEndpoint+0x1d8>
 8002ab6:	f833 2026 	ldrh.w	r2, [r3, r6, lsl #2]
 8002aba:	b292      	uxth	r2, r2
 8002abc:	4015      	ands	r5, r2
 8002abe:	f445 4540 	orr.w	r5, r5, #49152	; 0xc000
 8002ac2:	f045 0580 	orr.w	r5, r5, #128	; 0x80
 8002ac6:	f823 5026 	strh.w	r5, [r3, r6, lsl #2]
 8002aca:	780c      	ldrb	r4, [r1, #0]
 8002acc:	eb03 0484 	add.w	r4, r3, r4, lsl #2
      PCD_CLEAR_TX_DTOG(USBx, ep->num);
 8002ad0:	8822      	ldrh	r2, [r4, #0]
 8002ad2:	0655      	lsls	r5, r2, #25
 8002ad4:	d50e      	bpl.n	8002af4 <USB_ActivateEndpoint+0x1fc>
 8002ad6:	8822      	ldrh	r2, [r4, #0]
 8002ad8:	f422 42e0 	bic.w	r2, r2, #28672	; 0x7000
 8002adc:	f022 0270 	bic.w	r2, r2, #112	; 0x70
 8002ae0:	0412      	lsls	r2, r2, #16
 8002ae2:	0c12      	lsrs	r2, r2, #16
 8002ae4:	f442 4200 	orr.w	r2, r2, #32768	; 0x8000
 8002ae8:	f042 02c0 	orr.w	r2, r2, #192	; 0xc0
 8002aec:	8022      	strh	r2, [r4, #0]
 8002aee:	780c      	ldrb	r4, [r1, #0]
 8002af0:	eb03 0484 	add.w	r4, r3, r4, lsl #2
      PCD_SET_EP_RX_STATUS(USBx, ep->num, USB_EP_RX_VALID);
 8002af4:	f248 0580 	movw	r5, #32896	; 0x8080
 8002af8:	8822      	ldrh	r2, [r4, #0]
 8002afa:	f422 4280 	bic.w	r2, r2, #16384	; 0x4000
 8002afe:	f022 0270 	bic.w	r2, r2, #112	; 0x70
 8002b02:	0412      	lsls	r2, r2, #16
 8002b04:	0c12      	lsrs	r2, r2, #16
 8002b06:	f482 5240 	eor.w	r2, r2, #12288	; 0x3000
 8002b0a:	432a      	orrs	r2, r5
 8002b0c:	8022      	strh	r2, [r4, #0]
      PCD_SET_EP_TX_STATUS(USBx, ep->num, USB_EP_TX_DIS);
 8002b0e:	7809      	ldrb	r1, [r1, #0]
 8002b10:	f833 2021 	ldrh.w	r2, [r3, r1, lsl #2]
 8002b14:	f422 42e0 	bic.w	r2, r2, #28672	; 0x7000
 8002b18:	f022 0240 	bic.w	r2, r2, #64	; 0x40
 8002b1c:	0412      	lsls	r2, r2, #16
 8002b1e:	0c12      	lsrs	r2, r2, #16
 8002b20:	432a      	orrs	r2, r5
 8002b22:	f823 2021 	strh.w	r2, [r3, r1, lsl #2]
}
 8002b26:	bc70      	pop	{r4, r5, r6}
 8002b28:	4770      	bx	lr
      PCD_CLEAR_RX_DTOG(USBx, ep->num);
 8002b2a:	f833 2026 	ldrh.w	r2, [r3, r6, lsl #2]
 8002b2e:	eb03 0486 	add.w	r4, r3, r6, lsl #2
 8002b32:	0452      	lsls	r2, r2, #17
 8002b34:	d50c      	bpl.n	8002b50 <USB_ActivateEndpoint+0x258>
 8002b36:	f833 2026 	ldrh.w	r2, [r3, r6, lsl #2]
 8002b3a:	b292      	uxth	r2, r2
 8002b3c:	4015      	ands	r5, r2
 8002b3e:	f445 4540 	orr.w	r5, r5, #49152	; 0xc000
 8002b42:	f045 0580 	orr.w	r5, r5, #128	; 0x80
 8002b46:	f823 5026 	strh.w	r5, [r3, r6, lsl #2]
 8002b4a:	780c      	ldrb	r4, [r1, #0]
 8002b4c:	eb03 0484 	add.w	r4, r3, r4, lsl #2
      PCD_CLEAR_TX_DTOG(USBx, ep->num);
 8002b50:	8822      	ldrh	r2, [r4, #0]
 8002b52:	0652      	lsls	r2, r2, #25
 8002b54:	d50e      	bpl.n	8002b74 <USB_ActivateEndpoint+0x27c>
 8002b56:	8822      	ldrh	r2, [r4, #0]
 8002b58:	f422 42e0 	bic.w	r2, r2, #28672	; 0x7000
 8002b5c:	f022 0270 	bic.w	r2, r2, #112	; 0x70
 8002b60:	0412      	lsls	r2, r2, #16
 8002b62:	0c12      	lsrs	r2, r2, #16
 8002b64:	f442 4200 	orr.w	r2, r2, #32768	; 0x8000
 8002b68:	f042 02c0 	orr.w	r2, r2, #192	; 0xc0
 8002b6c:	8022      	strh	r2, [r4, #0]
 8002b6e:	780c      	ldrb	r4, [r1, #0]
 8002b70:	eb03 0484 	add.w	r4, r3, r4, lsl #2
      if (ep->type != EP_TYPE_ISOC)
 8002b74:	78ca      	ldrb	r2, [r1, #3]
 8002b76:	2a01      	cmp	r2, #1
        PCD_SET_EP_TX_STATUS(USBx, ep->num, USB_EP_TX_NAK);
 8002b78:	8822      	ldrh	r2, [r4, #0]
 8002b7a:	f422 42e0 	bic.w	r2, r2, #28672	; 0x7000
 8002b7e:	f022 0240 	bic.w	r2, r2, #64	; 0x40
 8002b82:	ea4f 4202 	mov.w	r2, r2, lsl #16
 8002b86:	ea4f 4212 	mov.w	r2, r2, lsr #16
 8002b8a:	bf18      	it	ne
 8002b8c:	f082 0220 	eorne.w	r2, r2, #32
        PCD_SET_EP_TX_STATUS(USBx, ep->num, USB_EP_TX_DIS);
 8002b90:	f442 4200 	orr.w	r2, r2, #32768	; 0x8000
 8002b94:	f042 0280 	orr.w	r2, r2, #128	; 0x80
 8002b98:	8022      	strh	r2, [r4, #0]
      PCD_SET_EP_RX_STATUS(USBx, ep->num, USB_EP_RX_DIS);
 8002b9a:	7809      	ldrb	r1, [r1, #0]
}
 8002b9c:	bc70      	pop	{r4, r5, r6}
      PCD_SET_EP_RX_STATUS(USBx, ep->num, USB_EP_RX_DIS);
 8002b9e:	f833 2021 	ldrh.w	r2, [r3, r1, lsl #2]
 8002ba2:	f422 4280 	bic.w	r2, r2, #16384	; 0x4000
 8002ba6:	f022 0270 	bic.w	r2, r2, #112	; 0x70
 8002baa:	0412      	lsls	r2, r2, #16
 8002bac:	0c12      	lsrs	r2, r2, #16
 8002bae:	f442 4200 	orr.w	r2, r2, #32768	; 0x8000
 8002bb2:	f042 0280 	orr.w	r2, r2, #128	; 0x80
 8002bb6:	f823 2021 	strh.w	r2, [r3, r1, lsl #2]
}
 8002bba:	4770      	bx	lr
      PCD_SET_EP_RX_CNT(USBx, ep->num, ep->maxpacket);
 8002bbc:	5b15      	ldrh	r5, [r2, r4]
 8002bbe:	f425 45f8 	bic.w	r5, r5, #31744	; 0x7c00
 8002bc2:	042d      	lsls	r5, r5, #16
 8002bc4:	0c2d      	lsrs	r5, r5, #16
 8002bc6:	5315      	strh	r5, [r2, r4]
 8002bc8:	5b15      	ldrh	r5, [r2, r4]
 8002bca:	ea6f 4545 	mvn.w	r5, r5, lsl #17
 8002bce:	ea6f 4555 	mvn.w	r5, r5, lsr #17
 8002bd2:	b2ad      	uxth	r5, r5
 8002bd4:	5315      	strh	r5, [r2, r4]
 8002bd6:	e719      	b.n	8002a0c <USB_ActivateEndpoint+0x114>
 8002bd8:	096e      	lsrs	r6, r5, #5
 8002bda:	06ed      	lsls	r5, r5, #27
 8002bdc:	4d06      	ldr	r5, [pc, #24]	; (8002bf8 <USB_ActivateEndpoint+0x300>)
 8002bde:	bf08      	it	eq
 8002be0:	f106 36ff 	addeq.w	r6, r6, #4294967295	; 0xffffffff
 8002be4:	ea45 2586 	orr.w	r5, r5, r6, lsl #10
 8002be8:	b2ad      	uxth	r5, r5
 8002bea:	5315      	strh	r5, [r2, r4]
 8002bec:	e70e      	b.n	8002a0c <USB_ActivateEndpoint+0x114>
      ret = HAL_ERROR;
 8002bee:	2001      	movs	r0, #1
 8002bf0:	e698      	b.n	8002924 <USB_ActivateEndpoint+0x2c>
 8002bf2:	bf00      	nop
 8002bf4:	ffff8f8f 	.word	0xffff8f8f
 8002bf8:	ffff8000 	.word	0xffff8000

08002bfc <USB_DeactivateEndpoint>:
  * @param  ep pointer to endpoint structure
  * @retval HAL status
  */
HAL_StatusTypeDef USB_DeactivateEndpoint(USB_TypeDef *USBx, USB_EPTypeDef *ep)
{
  if (ep->doublebuffer == 0U)
 8002bfc:	7b0b      	ldrb	r3, [r1, #12]
{
 8002bfe:	b410      	push	{r4}
  if (ep->doublebuffer == 0U)
 8002c00:	b9d3      	cbnz	r3, 8002c38 <USB_DeactivateEndpoint+0x3c>
  {
    if (ep->is_in != 0U)
 8002c02:	784b      	ldrb	r3, [r1, #1]
    {
      PCD_CLEAR_TX_DTOG(USBx, ep->num);
 8002c04:	780c      	ldrb	r4, [r1, #0]
    if (ep->is_in != 0U)
 8002c06:	2b00      	cmp	r3, #0
 8002c08:	f000 80be 	beq.w	8002d88 <USB_DeactivateEndpoint+0x18c>
      PCD_CLEAR_TX_DTOG(USBx, ep->num);
 8002c0c:	f830 3024 	ldrh.w	r3, [r0, r4, lsl #2]
 8002c10:	eb00 0284 	add.w	r2, r0, r4, lsl #2
 8002c14:	065b      	lsls	r3, r3, #25
 8002c16:	f100 80d4 	bmi.w	8002dc2 <USB_DeactivateEndpoint+0x1c6>

      /* Configure DISABLE status for the Endpoint*/
      PCD_SET_EP_TX_STATUS(USBx, ep->num, USB_EP_TX_DIS);
 8002c1a:	8813      	ldrh	r3, [r2, #0]
 8002c1c:	f423 43e0 	bic.w	r3, r3, #28672	; 0x7000
 8002c20:	f023 0340 	bic.w	r3, r3, #64	; 0x40
    else
    {
      PCD_CLEAR_RX_DTOG(USBx, ep->num);

      /* Configure DISABLE status for the Endpoint*/
      PCD_SET_EP_RX_STATUS(USBx, ep->num, USB_EP_RX_DIS);
 8002c24:	041b      	lsls	r3, r3, #16
 8002c26:	0c1b      	lsrs	r3, r3, #16
 8002c28:	f443 4300 	orr.w	r3, r3, #32768	; 0x8000
 8002c2c:	f043 0380 	orr.w	r3, r3, #128	; 0x80
      PCD_SET_EP_RX_STATUS(USBx, ep->num, USB_EP_RX_DIS);
    }
  }

  return HAL_OK;
}
 8002c30:	2000      	movs	r0, #0
 8002c32:	bc10      	pop	{r4}
      PCD_SET_EP_RX_STATUS(USBx, ep->num, USB_EP_RX_DIS);
 8002c34:	8013      	strh	r3, [r2, #0]
}
 8002c36:	4770      	bx	lr
    if (ep->is_in == 0U)
 8002c38:	784b      	ldrb	r3, [r1, #1]
      PCD_CLEAR_RX_DTOG(USBx, ep->num);
 8002c3a:	780c      	ldrb	r4, [r1, #0]
    if (ep->is_in == 0U)
 8002c3c:	2b00      	cmp	r3, #0
 8002c3e:	d151      	bne.n	8002ce4 <USB_DeactivateEndpoint+0xe8>
      PCD_CLEAR_RX_DTOG(USBx, ep->num);
 8002c40:	f830 3024 	ldrh.w	r3, [r0, r4, lsl #2]
 8002c44:	eb00 0284 	add.w	r2, r0, r4, lsl #2
 8002c48:	045b      	lsls	r3, r3, #17
 8002c4a:	d510      	bpl.n	8002c6e <USB_DeactivateEndpoint+0x72>
 8002c4c:	f830 3024 	ldrh.w	r3, [r0, r4, lsl #2]
 8002c50:	f423 43e0 	bic.w	r3, r3, #28672	; 0x7000
 8002c54:	f023 0370 	bic.w	r3, r3, #112	; 0x70
 8002c58:	041b      	lsls	r3, r3, #16
 8002c5a:	0c1b      	lsrs	r3, r3, #16
 8002c5c:	f443 4340 	orr.w	r3, r3, #49152	; 0xc000
 8002c60:	f043 0380 	orr.w	r3, r3, #128	; 0x80
 8002c64:	f820 3024 	strh.w	r3, [r0, r4, lsl #2]
 8002c68:	780a      	ldrb	r2, [r1, #0]
 8002c6a:	eb00 0282 	add.w	r2, r0, r2, lsl #2
      PCD_CLEAR_TX_DTOG(USBx, ep->num);
 8002c6e:	8813      	ldrh	r3, [r2, #0]
 8002c70:	065c      	lsls	r4, r3, #25
 8002c72:	d50e      	bpl.n	8002c92 <USB_DeactivateEndpoint+0x96>
 8002c74:	8813      	ldrh	r3, [r2, #0]
 8002c76:	f423 43e0 	bic.w	r3, r3, #28672	; 0x7000
 8002c7a:	f023 0370 	bic.w	r3, r3, #112	; 0x70
 8002c7e:	041b      	lsls	r3, r3, #16
 8002c80:	0c1b      	lsrs	r3, r3, #16
 8002c82:	f443 4300 	orr.w	r3, r3, #32768	; 0x8000
 8002c86:	f043 03c0 	orr.w	r3, r3, #192	; 0xc0
 8002c8a:	8013      	strh	r3, [r2, #0]
 8002c8c:	780a      	ldrb	r2, [r1, #0]
 8002c8e:	eb00 0282 	add.w	r2, r0, r2, lsl #2
      PCD_SET_EP_RX_STATUS(USBx, ep->num, USB_EP_RX_DIS);
 8002c92:	f248 0480 	movw	r4, #32896	; 0x8080
      PCD_TX_DTOG(USBx, ep->num);
 8002c96:	8813      	ldrh	r3, [r2, #0]
 8002c98:	f423 43e0 	bic.w	r3, r3, #28672	; 0x7000
 8002c9c:	f023 0370 	bic.w	r3, r3, #112	; 0x70
 8002ca0:	041b      	lsls	r3, r3, #16
 8002ca2:	0c1b      	lsrs	r3, r3, #16
 8002ca4:	f443 4300 	orr.w	r3, r3, #32768	; 0x8000
 8002ca8:	f043 03c0 	orr.w	r3, r3, #192	; 0xc0
 8002cac:	8013      	strh	r3, [r2, #0]
      PCD_SET_EP_RX_STATUS(USBx, ep->num, USB_EP_RX_DIS);
 8002cae:	780a      	ldrb	r2, [r1, #0]
 8002cb0:	f830 3022 	ldrh.w	r3, [r0, r2, lsl #2]
 8002cb4:	f423 4380 	bic.w	r3, r3, #16384	; 0x4000
 8002cb8:	f023 0370 	bic.w	r3, r3, #112	; 0x70
 8002cbc:	041b      	lsls	r3, r3, #16
 8002cbe:	0c1b      	lsrs	r3, r3, #16
 8002cc0:	4323      	orrs	r3, r4
 8002cc2:	f820 3022 	strh.w	r3, [r0, r2, lsl #2]
      PCD_SET_EP_TX_STATUS(USBx, ep->num, USB_EP_TX_DIS);
 8002cc6:	780a      	ldrb	r2, [r1, #0]
 8002cc8:	f830 3022 	ldrh.w	r3, [r0, r2, lsl #2]
 8002ccc:	f423 43e0 	bic.w	r3, r3, #28672	; 0x7000
 8002cd0:	f023 0340 	bic.w	r3, r3, #64	; 0x40
 8002cd4:	041b      	lsls	r3, r3, #16
 8002cd6:	0c1b      	lsrs	r3, r3, #16
 8002cd8:	4323      	orrs	r3, r4
 8002cda:	f820 3022 	strh.w	r3, [r0, r2, lsl #2]
}
 8002cde:	bc10      	pop	{r4}
 8002ce0:	2000      	movs	r0, #0
 8002ce2:	4770      	bx	lr
      PCD_CLEAR_RX_DTOG(USBx, ep->num);
 8002ce4:	f830 3024 	ldrh.w	r3, [r0, r4, lsl #2]
 8002ce8:	eb00 0284 	add.w	r2, r0, r4, lsl #2
 8002cec:	045b      	lsls	r3, r3, #17
 8002cee:	d510      	bpl.n	8002d12 <USB_DeactivateEndpoint+0x116>
 8002cf0:	f830 3024 	ldrh.w	r3, [r0, r4, lsl #2]
 8002cf4:	f423 43e0 	bic.w	r3, r3, #28672	; 0x7000
 8002cf8:	f023 0370 	bic.w	r3, r3, #112	; 0x70
 8002cfc:	041b      	lsls	r3, r3, #16
 8002cfe:	0c1b      	lsrs	r3, r3, #16
 8002d00:	f443 4340 	orr.w	r3, r3, #49152	; 0xc000
 8002d04:	f043 0380 	orr.w	r3, r3, #128	; 0x80
 8002d08:	f820 3024 	strh.w	r3, [r0, r4, lsl #2]
 8002d0c:	780a      	ldrb	r2, [r1, #0]
 8002d0e:	eb00 0282 	add.w	r2, r0, r2, lsl #2
      PCD_CLEAR_TX_DTOG(USBx, ep->num);
 8002d12:	8813      	ldrh	r3, [r2, #0]
 8002d14:	065b      	lsls	r3, r3, #25
 8002d16:	d50e      	bpl.n	8002d36 <USB_DeactivateEndpoint+0x13a>
 8002d18:	8813      	ldrh	r3, [r2, #0]
 8002d1a:	f423 43e0 	bic.w	r3, r3, #28672	; 0x7000
 8002d1e:	f023 0370 	bic.w	r3, r3, #112	; 0x70
 8002d22:	041b      	lsls	r3, r3, #16
 8002d24:	0c1b      	lsrs	r3, r3, #16
 8002d26:	f443 4300 	orr.w	r3, r3, #32768	; 0x8000
 8002d2a:	f043 03c0 	orr.w	r3, r3, #192	; 0xc0
 8002d2e:	8013      	strh	r3, [r2, #0]
 8002d30:	780a      	ldrb	r2, [r1, #0]
 8002d32:	eb00 0282 	add.w	r2, r0, r2, lsl #2
      PCD_SET_EP_TX_STATUS(USBx, ep->num, USB_EP_TX_DIS);
 8002d36:	f248 0480 	movw	r4, #32896	; 0x8080
      PCD_RX_DTOG(USBx, ep->num);
 8002d3a:	8813      	ldrh	r3, [r2, #0]
 8002d3c:	f423 43e0 	bic.w	r3, r3, #28672	; 0x7000
 8002d40:	f023 0370 	bic.w	r3, r3, #112	; 0x70
 8002d44:	041b      	lsls	r3, r3, #16
 8002d46:	0c1b      	lsrs	r3, r3, #16
 8002d48:	f443 4340 	orr.w	r3, r3, #49152	; 0xc000
 8002d4c:	f043 0380 	orr.w	r3, r3, #128	; 0x80
 8002d50:	8013      	strh	r3, [r2, #0]
      PCD_SET_EP_TX_STATUS(USBx, ep->num, USB_EP_TX_DIS);
 8002d52:	780a      	ldrb	r2, [r1, #0]
 8002d54:	f830 3022 	ldrh.w	r3, [r0, r2, lsl #2]
 8002d58:	f423 43e0 	bic.w	r3, r3, #28672	; 0x7000
 8002d5c:	f023 0340 	bic.w	r3, r3, #64	; 0x40
 8002d60:	041b      	lsls	r3, r3, #16
 8002d62:	0c1b      	lsrs	r3, r3, #16
 8002d64:	4323      	orrs	r3, r4
 8002d66:	f820 3022 	strh.w	r3, [r0, r2, lsl #2]
      PCD_SET_EP_RX_STATUS(USBx, ep->num, USB_EP_RX_DIS);
 8002d6a:	780a      	ldrb	r2, [r1, #0]
 8002d6c:	f830 3022 	ldrh.w	r3, [r0, r2, lsl #2]
 8002d70:	f423 4380 	bic.w	r3, r3, #16384	; 0x4000
 8002d74:	f023 0370 	bic.w	r3, r3, #112	; 0x70
 8002d78:	041b      	lsls	r3, r3, #16
 8002d7a:	0c1b      	lsrs	r3, r3, #16
 8002d7c:	4323      	orrs	r3, r4
 8002d7e:	f820 3022 	strh.w	r3, [r0, r2, lsl #2]
}
 8002d82:	bc10      	pop	{r4}
 8002d84:	2000      	movs	r0, #0
 8002d86:	4770      	bx	lr
      PCD_CLEAR_RX_DTOG(USBx, ep->num);
 8002d88:	f830 3024 	ldrh.w	r3, [r0, r4, lsl #2]
 8002d8c:	eb00 0284 	add.w	r2, r0, r4, lsl #2
 8002d90:	045b      	lsls	r3, r3, #17
 8002d92:	d510      	bpl.n	8002db6 <USB_DeactivateEndpoint+0x1ba>
 8002d94:	f830 3024 	ldrh.w	r3, [r0, r4, lsl #2]
 8002d98:	f423 43e0 	bic.w	r3, r3, #28672	; 0x7000
 8002d9c:	f023 0370 	bic.w	r3, r3, #112	; 0x70
 8002da0:	041b      	lsls	r3, r3, #16
 8002da2:	0c1b      	lsrs	r3, r3, #16
 8002da4:	f443 4340 	orr.w	r3, r3, #49152	; 0xc000
 8002da8:	f043 0380 	orr.w	r3, r3, #128	; 0x80
 8002dac:	f820 3024 	strh.w	r3, [r0, r4, lsl #2]
 8002db0:	780a      	ldrb	r2, [r1, #0]
 8002db2:	eb00 0282 	add.w	r2, r0, r2, lsl #2
      PCD_SET_EP_RX_STATUS(USBx, ep->num, USB_EP_RX_DIS);
 8002db6:	8813      	ldrh	r3, [r2, #0]
 8002db8:	f423 4380 	bic.w	r3, r3, #16384	; 0x4000
 8002dbc:	f023 0370 	bic.w	r3, r3, #112	; 0x70
 8002dc0:	e730      	b.n	8002c24 <USB_DeactivateEndpoint+0x28>
      PCD_CLEAR_TX_DTOG(USBx, ep->num);
 8002dc2:	f830 3024 	ldrh.w	r3, [r0, r4, lsl #2]
 8002dc6:	f423 43e0 	bic.w	r3, r3, #28672	; 0x7000
 8002dca:	f023 0370 	bic.w	r3, r3, #112	; 0x70
 8002dce:	041b      	lsls	r3, r3, #16
 8002dd0:	0c1b      	lsrs	r3, r3, #16
 8002dd2:	f443 4300 	orr.w	r3, r3, #32768	; 0x8000
 8002dd6:	f043 03c0 	orr.w	r3, r3, #192	; 0xc0
 8002dda:	f820 3024 	strh.w	r3, [r0, r4, lsl #2]
 8002dde:	780a      	ldrb	r2, [r1, #0]
 8002de0:	eb00 0282 	add.w	r2, r0, r2, lsl #2
 8002de4:	e719      	b.n	8002c1a <USB_DeactivateEndpoint+0x1e>
 8002de6:	bf00      	nop

08002de8 <USB_EPStartXfer>:
  * @param  USBx Selected device
  * @param  ep pointer to endpoint structure
  * @retval HAL status
  */
HAL_StatusTypeDef USB_EPStartXfer(USB_TypeDef *USBx, USB_EPTypeDef *ep)
{
 8002de8:	b5f0      	push	{r4, r5, r6, r7, lr}
  uint32_t len;
  uint16_t pmabuffer;
  uint16_t wEPVal;

  /* IN endpoint */
  if (ep->is_in == 1U)
 8002dea:	784a      	ldrb	r2, [r1, #1]
{
 8002dec:	4603      	mov	r3, r0
  if (ep->is_in == 1U)
 8002dee:	2a01      	cmp	r2, #1
 8002df0:	d06d      	beq.n	8002ece <USB_EPStartXfer+0xe6>

    PCD_SET_EP_TX_STATUS(USBx, ep->num, USB_EP_TX_VALID);
  }
  else /* OUT endpoint */
  {
    if (ep->doublebuffer == 0U)
 8002df2:	7b08      	ldrb	r0, [r1, #12]
 8002df4:	2800      	cmp	r0, #0
 8002df6:	d03b      	beq.n	8002e70 <USB_EPStartXfer+0x88>
    }
    else
    {
      /* First Transfer Coming From HAL_PCD_EP_Receive & From ISR */
      /* Set the Double buffer counter */
      if (ep->type == EP_TYPE_BULK)
 8002df8:	78c8      	ldrb	r0, [r1, #3]
 8002dfa:	2802      	cmp	r0, #2
 8002dfc:	f000 8124 	beq.w	8003048 <USB_EPStartXfer+0x260>
            PCD_FreeUserBuffer(USBx, ep->num, 0U);
          }
        }
      }
      /* iso out double */
      else if (ep->type == EP_TYPE_ISOC)
 8002e00:	2801      	cmp	r0, #1
 8002e02:	f040 811f 	bne.w	8003044 <USB_EPStartXfer+0x25c>
      {
        /* Multi packet transfer */
        if (ep->xfer_len > ep->maxpacket)
 8002e06:	6988      	ldr	r0, [r1, #24]
 8002e08:	690c      	ldr	r4, [r1, #16]
 8002e0a:	42a0      	cmp	r0, r4
          ep->xfer_len -= len;
        }
        else
        {
          len = ep->xfer_len;
          ep->xfer_len = 0U;
 8002e0c:	bf94      	ite	ls
 8002e0e:	2500      	movls	r5, #0
          ep->xfer_len -= len;
 8002e10:	1b05      	subhi	r5, r0, r4
 8002e12:	618d      	str	r5, [r1, #24]
 8002e14:	bf88      	it	hi
 8002e16:	4620      	movhi	r0, r4
        }
        PCD_SET_EP_DBUF_CNT(USBx, ep->num, ep->is_in, len);
 8002e18:	bb32      	cbnz	r2, 8002e68 <USB_EPStartXfer+0x80>
 8002e1a:	f8b3 2050 	ldrh.w	r2, [r3, #80]	; 0x50
 8002e1e:	780c      	ldrb	r4, [r1, #0]
 8002e20:	b292      	uxth	r2, r2
 8002e22:	f203 4504 	addw	r5, r3, #1028	; 0x404
 8002e26:	442a      	add	r2, r5
 8002e28:	0124      	lsls	r4, r4, #4
 8002e2a:	2800      	cmp	r0, #0
 8002e2c:	f000 829d 	beq.w	800336a <USB_EPStartXfer+0x582>
 8002e30:	283e      	cmp	r0, #62	; 0x3e
 8002e32:	f200 838f 	bhi.w	8003554 <USB_EPStartXfer+0x76c>
 8002e36:	0845      	lsrs	r5, r0, #1
 8002e38:	462e      	mov	r6, r5
 8002e3a:	f010 0701 	ands.w	r7, r0, #1
 8002e3e:	bf18      	it	ne
 8002e40:	1c6e      	addne	r6, r5, #1
 8002e42:	02b6      	lsls	r6, r6, #10
 8002e44:	b2b6      	uxth	r6, r6
 8002e46:	52a6      	strh	r6, [r4, r2]
 8002e48:	784c      	ldrb	r4, [r1, #1]
 8002e4a:	2c00      	cmp	r4, #0
 8002e4c:	f000 8370 	beq.w	8003530 <USB_EPStartXfer+0x748>
 8002e50:	2c01      	cmp	r4, #1
 8002e52:	d109      	bne.n	8002e68 <USB_EPStartXfer+0x80>
 8002e54:	f8b3 2050 	ldrh.w	r2, [r3, #80]	; 0x50
 8002e58:	780c      	ldrb	r4, [r1, #0]
 8002e5a:	b292      	uxth	r2, r2
 8002e5c:	f202 420c 	addw	r2, r2, #1036	; 0x40c
 8002e60:	b280      	uxth	r0, r0
 8002e62:	eb02 1204 	add.w	r2, r2, r4, lsl #4
 8002e66:	5298      	strh	r0, [r3, r2]
 8002e68:	780a      	ldrb	r2, [r1, #0]
 8002e6a:	eb03 0282 	add.w	r2, r3, r2, lsl #2
 8002e6e:	e01e      	b.n	8002eae <USB_EPStartXfer+0xc6>
      if (ep->xfer_len > ep->maxpacket)
 8002e70:	698c      	ldr	r4, [r1, #24]
 8002e72:	690a      	ldr	r2, [r1, #16]
      PCD_SET_EP_RX_CNT(USBx, ep->num, len);
 8002e74:	780d      	ldrb	r5, [r1, #0]
      if (ep->xfer_len > ep->maxpacket)
 8002e76:	4294      	cmp	r4, r2
        ep->xfer_len -= len;
 8002e78:	bf84      	itt	hi
 8002e7a:	1aa0      	subhi	r0, r4, r2
 8002e7c:	4614      	movhi	r4, r2
      PCD_SET_EP_RX_CNT(USBx, ep->num, len);
 8002e7e:	f8b3 2050 	ldrh.w	r2, [r3, #80]	; 0x50
 8002e82:	6188      	str	r0, [r1, #24]
 8002e84:	b292      	uxth	r2, r2
 8002e86:	f203 400c 	addw	r0, r3, #1036	; 0x40c
 8002e8a:	4402      	add	r2, r0
 8002e8c:	0128      	lsls	r0, r5, #4
 8002e8e:	2c00      	cmp	r4, #0
 8002e90:	f000 80c7 	beq.w	8003022 <USB_EPStartXfer+0x23a>
 8002e94:	2c3e      	cmp	r4, #62	; 0x3e
 8002e96:	f200 811f 	bhi.w	80030d8 <USB_EPStartXfer+0x2f0>
 8002e9a:	0865      	lsrs	r5, r4, #1
 8002e9c:	07e4      	lsls	r4, r4, #31
 8002e9e:	bf48      	it	mi
 8002ea0:	3501      	addmi	r5, #1
 8002ea2:	02ad      	lsls	r5, r5, #10
 8002ea4:	b2ad      	uxth	r5, r5
 8002ea6:	5285      	strh	r5, [r0, r2]
 8002ea8:	780a      	ldrb	r2, [r1, #0]
 8002eaa:	eb03 0282 	add.w	r2, r3, r2, lsl #2
      {
        return HAL_ERROR;
      }
    }

    PCD_SET_EP_RX_STATUS(USBx, ep->num, USB_EP_RX_VALID);
 8002eae:	8813      	ldrh	r3, [r2, #0]
  }

  return HAL_OK;
 8002eb0:	2000      	movs	r0, #0
    PCD_SET_EP_RX_STATUS(USBx, ep->num, USB_EP_RX_VALID);
 8002eb2:	f423 4380 	bic.w	r3, r3, #16384	; 0x4000
 8002eb6:	f023 0370 	bic.w	r3, r3, #112	; 0x70
 8002eba:	041b      	lsls	r3, r3, #16
 8002ebc:	0c1b      	lsrs	r3, r3, #16
 8002ebe:	f483 5340 	eor.w	r3, r3, #12288	; 0x3000
 8002ec2:	f443 4300 	orr.w	r3, r3, #32768	; 0x8000
 8002ec6:	f043 0380 	orr.w	r3, r3, #128	; 0x80
 8002eca:	8013      	strh	r3, [r2, #0]
}
 8002ecc:	bdf0      	pop	{r4, r5, r6, r7, pc}
    if (ep->xfer_len > ep->maxpacket)
 8002ece:	690e      	ldr	r6, [r1, #16]
 8002ed0:	698a      	ldr	r2, [r1, #24]
    if (ep->doublebuffer == 0U)
 8002ed2:	7b08      	ldrb	r0, [r1, #12]
 8002ed4:	42b2      	cmp	r2, r6
 8002ed6:	bf28      	it	cs
 8002ed8:	4632      	movcs	r2, r6
 8002eda:	2800      	cmp	r0, #0
 8002edc:	d071      	beq.n	8002fc2 <USB_EPStartXfer+0x1da>
      if (ep->type == EP_TYPE_BULK)
 8002ede:	78c8      	ldrb	r0, [r1, #3]
 8002ee0:	2802      	cmp	r0, #2
 8002ee2:	f000 8107 	beq.w	80030f4 <USB_EPStartXfer+0x30c>
        PCD_SET_EP_DBUF(USBx, ep->num);
 8002ee6:	780d      	ldrb	r5, [r1, #0]
        ep->xfer_len_db -= len;
 8002ee8:	6a08      	ldr	r0, [r1, #32]
        PCD_SET_EP_DBUF(USBx, ep->num);
 8002eea:	f833 4025 	ldrh.w	r4, [r3, r5, lsl #2]
        ep->xfer_len_db -= len;
 8002eee:	1a80      	subs	r0, r0, r2
        PCD_SET_EP_DBUF(USBx, ep->num);
 8002ef0:	f424 44e0 	bic.w	r4, r4, #28672	; 0x7000
 8002ef4:	f024 0470 	bic.w	r4, r4, #112	; 0x70
 8002ef8:	0424      	lsls	r4, r4, #16
 8002efa:	0c24      	lsrs	r4, r4, #16
 8002efc:	f444 4401 	orr.w	r4, r4, #33024	; 0x8100
 8002f00:	f044 0480 	orr.w	r4, r4, #128	; 0x80
 8002f04:	f823 4025 	strh.w	r4, [r3, r5, lsl #2]
        if ((PCD_GET_ENDPOINT(USBx, ep->num) & USB_EP_DTOG_TX) != 0U)
 8002f08:	780c      	ldrb	r4, [r1, #0]
        ep->xfer_len_db -= len;
 8002f0a:	6208      	str	r0, [r1, #32]
        if ((PCD_GET_ENDPOINT(USBx, ep->num) & USB_EP_DTOG_TX) != 0U)
 8002f0c:	f833 5024 	ldrh.w	r5, [r3, r4, lsl #2]
 8002f10:	f015 0f40 	tst.w	r5, #64	; 0x40
          PCD_SET_EP_DBUF1_CNT(USBx, ep->num, ep->is_in, len);
 8002f14:	784d      	ldrb	r5, [r1, #1]
        if ((PCD_GET_ENDPOINT(USBx, ep->num) & USB_EP_DTOG_TX) != 0U)
 8002f16:	f000 814d 	beq.w	80031b4 <USB_EPStartXfer+0x3cc>
          PCD_SET_EP_DBUF1_CNT(USBx, ep->num, ep->is_in, len);
 8002f1a:	2d00      	cmp	r5, #0
 8002f1c:	f000 81cc 	beq.w	80032b8 <USB_EPStartXfer+0x4d0>
 8002f20:	2d01      	cmp	r5, #1
 8002f22:	d108      	bne.n	8002f36 <USB_EPStartXfer+0x14e>
 8002f24:	f8b3 7050 	ldrh.w	r7, [r3, #80]	; 0x50
 8002f28:	f203 450c 	addw	r5, r3, #1036	; 0x40c
 8002f2c:	b2bf      	uxth	r7, r7
 8002f2e:	443d      	add	r5, r7
 8002f30:	0124      	lsls	r4, r4, #4
 8002f32:	b297      	uxth	r7, r2
 8002f34:	532f      	strh	r7, [r5, r4]
  * @param   wNBytes no. of bytes to be copied.
  * @retval None
  */
void USB_WritePMA(USB_TypeDef *USBx, uint8_t *pbUsrBuf, uint16_t wPMABufAddr, uint16_t wNBytes)
{
  uint32_t n = ((uint32_t)wNBytes + 1U) >> 1;
 8002f36:	b297      	uxth	r7, r2
  uint32_t BaseAddr = (uint32_t)USBx;
  uint32_t i, temp1, temp2;
  __IO uint16_t *pdwVal;
  uint8_t *pBuf = pbUsrBuf;

  pdwVal = (__IO uint16_t *)(BaseAddr + 0x400U + ((uint32_t)wPMABufAddr * PMA_ACCESS));
 8002f38:	894d      	ldrh	r5, [r1, #10]
  uint32_t n = ((uint32_t)wNBytes + 1U) >> 1;
 8002f3a:	3701      	adds	r7, #1
  pdwVal = (__IO uint16_t *)(BaseAddr + 0x400U + ((uint32_t)wPMABufAddr * PMA_ACCESS));
 8002f3c:	f503 6480 	add.w	r4, r3, #1024	; 0x400

  for (i = n; i != 0U; i--)
 8002f40:	087f      	lsrs	r7, r7, #1
          USB_WritePMA(USBx, ep->xfer_buff, pmabuffer, (uint16_t)len);
 8002f42:	f8d1 e014 	ldr.w	lr, [r1, #20]
  pdwVal = (__IO uint16_t *)(BaseAddr + 0x400U + ((uint32_t)wPMABufAddr * PMA_ACCESS));
 8002f46:	eb04 0445 	add.w	r4, r4, r5, lsl #1
  for (i = n; i != 0U; i--)
 8002f4a:	d008      	beq.n	8002f5e <USB_EPStartXfer+0x176>
              ep->xfer_len_db = 0U;
 8002f4c:	4675      	mov	r5, lr
 8002f4e:	eb04 0787 	add.w	r7, r4, r7, lsl #2
  {
    temp1 = *pBuf;
 8002f52:	f835 cb02 	ldrh.w	ip, [r5], #2
    pBuf++;
    temp2 = temp1 | ((uint16_t)((uint16_t) *pBuf << 8));
    *pdwVal = (uint16_t)temp2;
 8002f56:	f824 cb04 	strh.w	ip, [r4], #4
  for (i = n; i != 0U; i--)
 8002f5a:	42bc      	cmp	r4, r7
 8002f5c:	d1f9      	bne.n	8002f52 <USB_EPStartXfer+0x16a>
          if (ep->xfer_len_db > ep->maxpacket)
 8002f5e:	4286      	cmp	r6, r0
            ep->xfer_len_db -= len;
 8002f60:	bf36      	itet	cc
 8002f62:	1a85      	subcc	r5, r0, r2
            ep->xfer_len_db = 0U;
 8002f64:	2500      	movcs	r5, #0
 8002f66:	4610      	movcc	r0, r2
          ep->xfer_buff += len;
 8002f68:	eb0e 0402 	add.w	r4, lr, r2
 8002f6c:	614c      	str	r4, [r1, #20]
            ep->xfer_len_db -= len;
 8002f6e:	620d      	str	r5, [r1, #32]
          if (len > 0U)
 8002f70:	2800      	cmp	r0, #0
 8002f72:	d043      	beq.n	8002ffc <USB_EPStartXfer+0x214>
            PCD_SET_EP_DBUF0_CNT(USBx, ep->num, ep->is_in, len);
 8002f74:	784a      	ldrb	r2, [r1, #1]
 8002f76:	2a00      	cmp	r2, #0
 8002f78:	f040 8297 	bne.w	80034aa <USB_EPStartXfer+0x6c2>
 8002f7c:	f8b3 2050 	ldrh.w	r2, [r3, #80]	; 0x50
 8002f80:	780e      	ldrb	r6, [r1, #0]
 8002f82:	b292      	uxth	r2, r2
 8002f84:	f203 4504 	addw	r5, r3, #1028	; 0x404
 8002f88:	283e      	cmp	r0, #62	; 0x3e
 8002f8a:	442a      	add	r2, r5
 8002f8c:	ea4f 1606 	mov.w	r6, r6, lsl #4
 8002f90:	f200 8392 	bhi.w	80036b8 <USB_EPStartXfer+0x8d0>
 8002f94:	0845      	lsrs	r5, r0, #1
 8002f96:	07c7      	lsls	r7, r0, #31
 8002f98:	bf48      	it	mi
 8002f9a:	3501      	addmi	r5, #1
 8002f9c:	02ad      	lsls	r5, r5, #10
 8002f9e:	b2ad      	uxth	r5, r5
 8002fa0:	52b5      	strh	r5, [r6, r2]
  pdwVal = (__IO uint16_t *)(BaseAddr + 0x400U + ((uint32_t)wPMABufAddr * PMA_ACCESS));
 8002fa2:	890e      	ldrh	r6, [r1, #8]
  uint32_t n = ((uint32_t)wNBytes + 1U) >> 1;
 8002fa4:	3001      	adds	r0, #1
  pdwVal = (__IO uint16_t *)(BaseAddr + 0x400U + ((uint32_t)wPMABufAddr * PMA_ACCESS));
 8002fa6:	f503 6280 	add.w	r2, r3, #1024	; 0x400
  uint32_t n = ((uint32_t)wNBytes + 1U) >> 1;
 8002faa:	0845      	lsrs	r5, r0, #1
  pdwVal = (__IO uint16_t *)(BaseAddr + 0x400U + ((uint32_t)wPMABufAddr * PMA_ACCESS));
 8002fac:	eb02 0246 	add.w	r2, r2, r6, lsl #1
  for (i = n; i != 0U; i--)
 8002fb0:	eb04 0545 	add.w	r5, r4, r5, lsl #1
    temp1 = *pBuf;
 8002fb4:	f834 0b02 	ldrh.w	r0, [r4], #2
  for (i = n; i != 0U; i--)
 8002fb8:	42a5      	cmp	r5, r4
    *pdwVal = (uint16_t)temp2;
 8002fba:	f822 0b04 	strh.w	r0, [r2], #4
  for (i = n; i != 0U; i--)
 8002fbe:	d1f9      	bne.n	8002fb4 <USB_EPStartXfer+0x1cc>
 8002fc0:	e01c      	b.n	8002ffc <USB_EPStartXfer+0x214>
  uint32_t n = ((uint32_t)wNBytes + 1U) >> 1;
 8002fc2:	b295      	uxth	r5, r2
  pdwVal = (__IO uint16_t *)(BaseAddr + 0x400U + ((uint32_t)wPMABufAddr * PMA_ACCESS));
 8002fc4:	88cc      	ldrh	r4, [r1, #6]
  uint32_t n = ((uint32_t)wNBytes + 1U) >> 1;
 8002fc6:	3501      	adds	r5, #1
      USB_WritePMA(USBx, ep->xfer_buff, ep->pmaadress, (uint16_t)len);
 8002fc8:	b296      	uxth	r6, r2
 8002fca:	694a      	ldr	r2, [r1, #20]
  pdwVal = (__IO uint16_t *)(BaseAddr + 0x400U + ((uint32_t)wPMABufAddr * PMA_ACCESS));
 8002fcc:	f503 6080 	add.w	r0, r3, #1024	; 0x400
  for (i = n; i != 0U; i--)
 8002fd0:	086d      	lsrs	r5, r5, #1
  pdwVal = (__IO uint16_t *)(BaseAddr + 0x400U + ((uint32_t)wPMABufAddr * PMA_ACCESS));
 8002fd2:	eb00 0044 	add.w	r0, r0, r4, lsl #1
  for (i = n; i != 0U; i--)
 8002fd6:	bf18      	it	ne
 8002fd8:	eb02 0545 	addne.w	r5, r2, r5, lsl #1
 8002fdc:	d005      	beq.n	8002fea <USB_EPStartXfer+0x202>
    temp1 = *pBuf;
 8002fde:	f832 4b02 	ldrh.w	r4, [r2], #2
  for (i = n; i != 0U; i--)
 8002fe2:	42aa      	cmp	r2, r5
    *pdwVal = (uint16_t)temp2;
 8002fe4:	f820 4b04 	strh.w	r4, [r0], #4
  for (i = n; i != 0U; i--)
 8002fe8:	d1f9      	bne.n	8002fde <USB_EPStartXfer+0x1f6>
      PCD_SET_EP_TX_CNT(USBx, ep->num, len);
 8002fea:	f8b3 0050 	ldrh.w	r0, [r3, #80]	; 0x50
 8002fee:	780c      	ldrb	r4, [r1, #0]
 8002ff0:	b282      	uxth	r2, r0
 8002ff2:	f203 4004 	addw	r0, r3, #1028	; 0x404
 8002ff6:	4410      	add	r0, r2
 8002ff8:	0124      	lsls	r4, r4, #4
 8002ffa:	5226      	strh	r6, [r4, r0]
    PCD_SET_EP_TX_STATUS(USBx, ep->num, USB_EP_TX_VALID);
 8002ffc:	7809      	ldrb	r1, [r1, #0]
  return HAL_OK;
 8002ffe:	2000      	movs	r0, #0
    PCD_SET_EP_TX_STATUS(USBx, ep->num, USB_EP_TX_VALID);
 8003000:	f833 2021 	ldrh.w	r2, [r3, r1, lsl #2]
 8003004:	f422 42e0 	bic.w	r2, r2, #28672	; 0x7000
 8003008:	f022 0240 	bic.w	r2, r2, #64	; 0x40
 800300c:	0412      	lsls	r2, r2, #16
 800300e:	0c12      	lsrs	r2, r2, #16
 8003010:	f082 0230 	eor.w	r2, r2, #48	; 0x30
 8003014:	f442 4200 	orr.w	r2, r2, #32768	; 0x8000
 8003018:	f042 0280 	orr.w	r2, r2, #128	; 0x80
 800301c:	f823 2021 	strh.w	r2, [r3, r1, lsl #2]
}
 8003020:	bdf0      	pop	{r4, r5, r6, r7, pc}
      PCD_SET_EP_RX_CNT(USBx, ep->num, len);
 8003022:	5a84      	ldrh	r4, [r0, r2]
 8003024:	f424 44f8 	bic.w	r4, r4, #31744	; 0x7c00
 8003028:	0424      	lsls	r4, r4, #16
 800302a:	0c24      	lsrs	r4, r4, #16
 800302c:	5284      	strh	r4, [r0, r2]
 800302e:	5a84      	ldrh	r4, [r0, r2]
 8003030:	ea6f 4444 	mvn.w	r4, r4, lsl #17
 8003034:	ea6f 4454 	mvn.w	r4, r4, lsr #17
 8003038:	b2a4      	uxth	r4, r4
 800303a:	5284      	strh	r4, [r0, r2]
 800303c:	780a      	ldrb	r2, [r1, #0]
 800303e:	eb03 0282 	add.w	r2, r3, r2, lsl #2
 8003042:	e734      	b.n	8002eae <USB_EPStartXfer+0xc6>
        return HAL_ERROR;
 8003044:	2001      	movs	r0, #1
}
 8003046:	bdf0      	pop	{r4, r5, r6, r7, pc}
        PCD_SET_EP_DBUF_CNT(USBx, ep->num, ep->is_in, ep->maxpacket);
 8003048:	bb12      	cbnz	r2, 8003090 <USB_EPStartXfer+0x2a8>
 800304a:	f8b3 2050 	ldrh.w	r2, [r3, #80]	; 0x50
 800304e:	7808      	ldrb	r0, [r1, #0]
 8003050:	690c      	ldr	r4, [r1, #16]
 8003052:	b292      	uxth	r2, r2
 8003054:	f203 4504 	addw	r5, r3, #1028	; 0x404
 8003058:	442a      	add	r2, r5
 800305a:	0100      	lsls	r0, r0, #4
 800305c:	2c00      	cmp	r4, #0
 800305e:	f000 8146 	beq.w	80032ee <USB_EPStartXfer+0x506>
 8003062:	2c3e      	cmp	r4, #62	; 0x3e
 8003064:	f200 81ac 	bhi.w	80033c0 <USB_EPStartXfer+0x5d8>
 8003068:	0865      	lsrs	r5, r4, #1
 800306a:	07e6      	lsls	r6, r4, #31
 800306c:	bf48      	it	mi
 800306e:	3501      	addmi	r5, #1
 8003070:	02ad      	lsls	r5, r5, #10
 8003072:	b2ad      	uxth	r5, r5
 8003074:	5285      	strh	r5, [r0, r2]
 8003076:	784a      	ldrb	r2, [r1, #1]
 8003078:	2a00      	cmp	r2, #0
 800307a:	f040 81af 	bne.w	80033dc <USB_EPStartXfer+0x5f4>
 800307e:	f8b3 2050 	ldrh.w	r2, [r3, #80]	; 0x50
 8003082:	7808      	ldrb	r0, [r1, #0]
 8003084:	b294      	uxth	r4, r2
 8003086:	f203 420c 	addw	r2, r3, #1036	; 0x40c
 800308a:	4422      	add	r2, r4
 800308c:	0100      	lsls	r0, r0, #4
 800308e:	5285      	strh	r5, [r0, r2]
        if (ep->xfer_count != 0U)
 8003090:	69ca      	ldr	r2, [r1, #28]
 8003092:	2a00      	cmp	r2, #0
 8003094:	f43f aee8 	beq.w	8002e68 <USB_EPStartXfer+0x80>
          wEPVal = PCD_GET_ENDPOINT(USBx, ep->num);
 8003098:	f244 0440 	movw	r4, #16448	; 0x4040
 800309c:	7808      	ldrb	r0, [r1, #0]
 800309e:	f833 5020 	ldrh.w	r5, [r3, r0, lsl #2]
 80030a2:	eb03 0280 	add.w	r2, r3, r0, lsl #2
 80030a6:	ea04 0605 	and.w	r6, r4, r5
          if ((((wEPVal & USB_EP_DTOG_RX) != 0U) && ((wEPVal & USB_EP_DTOG_TX) != 0U)) ||
 80030aa:	43ac      	bics	r4, r5
 80030ac:	d002      	beq.n	80030b4 <USB_EPStartXfer+0x2cc>
 80030ae:	2e00      	cmp	r6, #0
 80030b0:	f47f aefd 	bne.w	8002eae <USB_EPStartXfer+0xc6>
            PCD_FreeUserBuffer(USBx, ep->num, 0U);
 80030b4:	f833 2020 	ldrh.w	r2, [r3, r0, lsl #2]
 80030b8:	f422 42e0 	bic.w	r2, r2, #28672	; 0x7000
 80030bc:	f022 0270 	bic.w	r2, r2, #112	; 0x70
 80030c0:	0412      	lsls	r2, r2, #16
 80030c2:	0c12      	lsrs	r2, r2, #16
 80030c4:	f442 4200 	orr.w	r2, r2, #32768	; 0x8000
 80030c8:	f042 02c0 	orr.w	r2, r2, #192	; 0xc0
 80030cc:	f823 2020 	strh.w	r2, [r3, r0, lsl #2]
 80030d0:	780a      	ldrb	r2, [r1, #0]
 80030d2:	eb03 0282 	add.w	r2, r3, r2, lsl #2
 80030d6:	e6ea      	b.n	8002eae <USB_EPStartXfer+0xc6>
      PCD_SET_EP_RX_CNT(USBx, ep->num, len);
 80030d8:	0965      	lsrs	r5, r4, #5
 80030da:	06e7      	lsls	r7, r4, #27
 80030dc:	4cb7      	ldr	r4, [pc, #732]	; (80033bc <USB_EPStartXfer+0x5d4>)
 80030de:	bf08      	it	eq
 80030e0:	f105 35ff 	addeq.w	r5, r5, #4294967295	; 0xffffffff
 80030e4:	ea44 2485 	orr.w	r4, r4, r5, lsl #10
 80030e8:	b2a4      	uxth	r4, r4
 80030ea:	5284      	strh	r4, [r0, r2]
 80030ec:	780a      	ldrb	r2, [r1, #0]
 80030ee:	eb03 0282 	add.w	r2, r3, r2, lsl #2
 80030f2:	e6dc      	b.n	8002eae <USB_EPStartXfer+0xc6>
        if (ep->xfer_len_db > ep->maxpacket)
 80030f4:	6a08      	ldr	r0, [r1, #32]
          PCD_SET_EP_DBUF(USBx, ep->num);
 80030f6:	780d      	ldrb	r5, [r1, #0]
        if (ep->xfer_len_db > ep->maxpacket)
 80030f8:	4286      	cmp	r6, r0
 80030fa:	f080 80b0 	bcs.w	800325e <USB_EPStartXfer+0x476>
          PCD_SET_EP_DBUF(USBx, ep->num);
 80030fe:	f833 4025 	ldrh.w	r4, [r3, r5, lsl #2]
          ep->xfer_len_db -= len;
 8003102:	1a80      	subs	r0, r0, r2
          PCD_SET_EP_DBUF(USBx, ep->num);
 8003104:	f424 44e0 	bic.w	r4, r4, #28672	; 0x7000
 8003108:	f024 0470 	bic.w	r4, r4, #112	; 0x70
 800310c:	0424      	lsls	r4, r4, #16
 800310e:	0c24      	lsrs	r4, r4, #16
 8003110:	f444 4401 	orr.w	r4, r4, #33024	; 0x8100
 8003114:	f044 0480 	orr.w	r4, r4, #128	; 0x80
 8003118:	f823 4025 	strh.w	r4, [r3, r5, lsl #2]
          if ((PCD_GET_ENDPOINT(USBx, ep->num) & USB_EP_DTOG_TX) != 0U)
 800311c:	780c      	ldrb	r4, [r1, #0]
          ep->xfer_len_db -= len;
 800311e:	6208      	str	r0, [r1, #32]
          if ((PCD_GET_ENDPOINT(USBx, ep->num) & USB_EP_DTOG_TX) != 0U)
 8003120:	f833 5024 	ldrh.w	r5, [r3, r4, lsl #2]
 8003124:	f015 0f40 	tst.w	r5, #64	; 0x40
            PCD_SET_EP_DBUF1_CNT(USBx, ep->num, ep->is_in, len);
 8003128:	784d      	ldrb	r5, [r1, #1]
          if ((PCD_GET_ENDPOINT(USBx, ep->num) & USB_EP_DTOG_TX) != 0U)
 800312a:	f000 8165 	beq.w	80033f8 <USB_EPStartXfer+0x610>
            PCD_SET_EP_DBUF1_CNT(USBx, ep->num, ep->is_in, len);
 800312e:	2d00      	cmp	r5, #0
 8003130:	f040 8253 	bne.w	80035da <USB_EPStartXfer+0x7f2>
 8003134:	f8b3 7050 	ldrh.w	r7, [r3, #80]	; 0x50
 8003138:	f203 450c 	addw	r5, r3, #1036	; 0x40c
 800313c:	b2bf      	uxth	r7, r7
 800313e:	0124      	lsls	r4, r4, #4
 8003140:	443d      	add	r5, r7
 8003142:	2a00      	cmp	r2, #0
 8003144:	f040 82ff 	bne.w	8003746 <USB_EPStartXfer+0x95e>
 8003148:	5b2f      	ldrh	r7, [r5, r4]
            USB_WritePMA(USBx, ep->xfer_buff, pmabuffer, (uint16_t)len);
 800314a:	f8d1 e014 	ldr.w	lr, [r1, #20]
            PCD_SET_EP_DBUF1_CNT(USBx, ep->num, ep->is_in, len);
 800314e:	f427 47f8 	bic.w	r7, r7, #31744	; 0x7c00
 8003152:	043f      	lsls	r7, r7, #16
 8003154:	0c3f      	lsrs	r7, r7, #16
 8003156:	532f      	strh	r7, [r5, r4]
 8003158:	5b2f      	ldrh	r7, [r5, r4]
 800315a:	ea6f 4747 	mvn.w	r7, r7, lsl #17
 800315e:	ea6f 4757 	mvn.w	r7, r7, lsr #17
 8003162:	b2bf      	uxth	r7, r7
 8003164:	532f      	strh	r7, [r5, r4]
            if (ep->xfer_len_db > ep->maxpacket)
 8003166:	4286      	cmp	r6, r0
              ep->xfer_len_db = 0U;
 8003168:	bf2c      	ite	cs
 800316a:	2500      	movcs	r5, #0
              ep->xfer_len_db -= len;
 800316c:	1a85      	subcc	r5, r0, r2
            ep->xfer_buff += len;
 800316e:	eb0e 0402 	add.w	r4, lr, r2
 8003172:	bf38      	it	cc
 8003174:	4610      	movcc	r0, r2
            PCD_SET_EP_DBUF0_CNT(USBx, ep->num, ep->is_in, len);
 8003176:	784a      	ldrb	r2, [r1, #1]
            ep->xfer_buff += len;
 8003178:	614c      	str	r4, [r1, #20]
              ep->xfer_len_db -= len;
 800317a:	620d      	str	r5, [r1, #32]
            PCD_SET_EP_DBUF0_CNT(USBx, ep->num, ep->is_in, len);
 800317c:	2a00      	cmp	r2, #0
 800317e:	f040 820d 	bne.w	800359c <USB_EPStartXfer+0x7b4>
 8003182:	f8b3 5050 	ldrh.w	r5, [r3, #80]	; 0x50
 8003186:	780a      	ldrb	r2, [r1, #0]
 8003188:	b2ad      	uxth	r5, r5
 800318a:	f203 4604 	addw	r6, r3, #1028	; 0x404
 800318e:	4435      	add	r5, r6
 8003190:	0112      	lsls	r2, r2, #4
 8003192:	2800      	cmp	r0, #0
 8003194:	f040 82eb 	bne.w	800376e <USB_EPStartXfer+0x986>
 8003198:	5b50      	ldrh	r0, [r2, r5]
 800319a:	f420 40f8 	bic.w	r0, r0, #31744	; 0x7c00
 800319e:	0400      	lsls	r0, r0, #16
 80031a0:	0c00      	lsrs	r0, r0, #16
 80031a2:	5350      	strh	r0, [r2, r5]
 80031a4:	5b50      	ldrh	r0, [r2, r5]
 80031a6:	ea6f 4040 	mvn.w	r0, r0, lsl #17
 80031aa:	ea6f 4050 	mvn.w	r0, r0, lsr #17
 80031ae:	b280      	uxth	r0, r0
 80031b0:	5350      	strh	r0, [r2, r5]
  for (i = n; i != 0U; i--)
 80031b2:	e723      	b.n	8002ffc <USB_EPStartXfer+0x214>
          PCD_SET_EP_DBUF0_CNT(USBx, ep->num, ep->is_in, len);
 80031b4:	2d00      	cmp	r5, #0
 80031b6:	f000 80be 	beq.w	8003336 <USB_EPStartXfer+0x54e>
 80031ba:	2d01      	cmp	r5, #1
 80031bc:	d108      	bne.n	80031d0 <USB_EPStartXfer+0x3e8>
 80031be:	f8b3 7050 	ldrh.w	r7, [r3, #80]	; 0x50
 80031c2:	f203 4504 	addw	r5, r3, #1028	; 0x404
 80031c6:	b2bf      	uxth	r7, r7
 80031c8:	443d      	add	r5, r7
 80031ca:	0124      	lsls	r4, r4, #4
 80031cc:	b297      	uxth	r7, r2
 80031ce:	532f      	strh	r7, [r5, r4]
  pdwVal = (__IO uint16_t *)(BaseAddr + 0x400U + ((uint32_t)wPMABufAddr * PMA_ACCESS));
 80031d0:	890d      	ldrh	r5, [r1, #8]
  uint32_t n = ((uint32_t)wNBytes + 1U) >> 1;
 80031d2:	b297      	uxth	r7, r2
 80031d4:	3701      	adds	r7, #1
  pdwVal = (__IO uint16_t *)(BaseAddr + 0x400U + ((uint32_t)wPMABufAddr * PMA_ACCESS));
 80031d6:	eb03 0545 	add.w	r5, r3, r5, lsl #1
  for (i = n; i != 0U; i--)
 80031da:	087f      	lsrs	r7, r7, #1
          USB_WritePMA(USBx, ep->xfer_buff, pmabuffer, (uint16_t)len);
 80031dc:	f8d1 e014 	ldr.w	lr, [r1, #20]
  pdwVal = (__IO uint16_t *)(BaseAddr + 0x400U + ((uint32_t)wPMABufAddr * PMA_ACCESS));
 80031e0:	f505 6580 	add.w	r5, r5, #1024	; 0x400
  for (i = n; i != 0U; i--)
 80031e4:	d008      	beq.n	80031f8 <USB_EPStartXfer+0x410>
            ep->xfer_len_db = 0U;
 80031e6:	4674      	mov	r4, lr
 80031e8:	eb0e 0747 	add.w	r7, lr, r7, lsl #1
    temp1 = *pBuf;
 80031ec:	f834 cb02 	ldrh.w	ip, [r4], #2
  for (i = n; i != 0U; i--)
 80031f0:	42bc      	cmp	r4, r7
    *pdwVal = (uint16_t)temp2;
 80031f2:	f825 cb04 	strh.w	ip, [r5], #4
  for (i = n; i != 0U; i--)
 80031f6:	d1f9      	bne.n	80031ec <USB_EPStartXfer+0x404>
          if (ep->xfer_len_db > ep->maxpacket)
 80031f8:	4286      	cmp	r6, r0
            ep->xfer_len_db -= len;
 80031fa:	bf36      	itet	cc
 80031fc:	1a84      	subcc	r4, r0, r2
            ep->xfer_len_db = 0U;
 80031fe:	2400      	movcs	r4, #0
 8003200:	4610      	movcc	r0, r2
          ep->xfer_buff += len;
 8003202:	eb0e 0502 	add.w	r5, lr, r2
 8003206:	614d      	str	r5, [r1, #20]
            ep->xfer_len_db -= len;
 8003208:	620c      	str	r4, [r1, #32]
          if (len > 0U)
 800320a:	2800      	cmp	r0, #0
 800320c:	f43f aef6 	beq.w	8002ffc <USB_EPStartXfer+0x214>
            PCD_SET_EP_DBUF1_CNT(USBx, ep->num, ep->is_in, len);
 8003210:	784a      	ldrb	r2, [r1, #1]
 8003212:	2a00      	cmp	r2, #0
 8003214:	f040 8175 	bne.w	8003502 <USB_EPStartXfer+0x71a>
 8003218:	f8b3 2050 	ldrh.w	r2, [r3, #80]	; 0x50
 800321c:	780c      	ldrb	r4, [r1, #0]
 800321e:	b292      	uxth	r2, r2
 8003220:	f202 420c 	addw	r2, r2, #1036	; 0x40c
 8003224:	eb02 1204 	add.w	r2, r2, r4, lsl #4
 8003228:	283e      	cmp	r0, #62	; 0x3e
 800322a:	441a      	add	r2, r3
 800322c:	f200 824f 	bhi.w	80036ce <USB_EPStartXfer+0x8e6>
 8003230:	0844      	lsrs	r4, r0, #1
 8003232:	07c6      	lsls	r6, r0, #31
 8003234:	bf48      	it	mi
 8003236:	3401      	addmi	r4, #1
 8003238:	02a4      	lsls	r4, r4, #10
 800323a:	b2a4      	uxth	r4, r4
 800323c:	8014      	strh	r4, [r2, #0]
  pdwVal = (__IO uint16_t *)(BaseAddr + 0x400U + ((uint32_t)wPMABufAddr * PMA_ACCESS));
 800323e:	894c      	ldrh	r4, [r1, #10]
  uint32_t n = ((uint32_t)wNBytes + 1U) >> 1;
 8003240:	1c42      	adds	r2, r0, #1
  pdwVal = (__IO uint16_t *)(BaseAddr + 0x400U + ((uint32_t)wPMABufAddr * PMA_ACCESS));
 8003242:	eb03 0044 	add.w	r0, r3, r4, lsl #1
  uint32_t n = ((uint32_t)wNBytes + 1U) >> 1;
 8003246:	0852      	lsrs	r2, r2, #1
  pdwVal = (__IO uint16_t *)(BaseAddr + 0x400U + ((uint32_t)wPMABufAddr * PMA_ACCESS));
 8003248:	f500 6080 	add.w	r0, r0, #1024	; 0x400
  for (i = n; i != 0U; i--)
 800324c:	eb00 0282 	add.w	r2, r0, r2, lsl #2
    temp1 = *pBuf;
 8003250:	f835 4b02 	ldrh.w	r4, [r5], #2
    *pdwVal = (uint16_t)temp2;
 8003254:	f820 4b04 	strh.w	r4, [r0], #4
  for (i = n; i != 0U; i--)
 8003258:	4282      	cmp	r2, r0
 800325a:	d1f9      	bne.n	8003250 <USB_EPStartXfer+0x468>
 800325c:	e6ce      	b.n	8002ffc <USB_EPStartXfer+0x214>
          PCD_CLEAR_EP_DBUF(USBx, ep->num);
 800325e:	f833 2025 	ldrh.w	r2, [r3, r5, lsl #2]
          PCD_SET_EP_TX_CNT(USBx, ep->num, len);
 8003262:	f203 4404 	addw	r4, r3, #1028	; 0x404
          PCD_CLEAR_EP_DBUF(USBx, ep->num);
 8003266:	f422 42e2 	bic.w	r2, r2, #28928	; 0x7100
 800326a:	f022 0270 	bic.w	r2, r2, #112	; 0x70
 800326e:	0412      	lsls	r2, r2, #16
 8003270:	0c12      	lsrs	r2, r2, #16
 8003272:	f442 4200 	orr.w	r2, r2, #32768	; 0x8000
 8003276:	f042 0280 	orr.w	r2, r2, #128	; 0x80
 800327a:	f823 2025 	strh.w	r2, [r3, r5, lsl #2]
          PCD_SET_EP_TX_CNT(USBx, ep->num, len);
 800327e:	f8b3 2050 	ldrh.w	r2, [r3, #80]	; 0x50
 8003282:	b287      	uxth	r7, r0
 8003284:	b296      	uxth	r6, r2
 8003286:	4622      	mov	r2, r4
  uint32_t n = ((uint32_t)wNBytes + 1U) >> 1;
 8003288:	4638      	mov	r0, r7
          PCD_SET_EP_TX_CNT(USBx, ep->num, len);
 800328a:	780d      	ldrb	r5, [r1, #0]
 800328c:	4432      	add	r2, r6
 800328e:	012c      	lsls	r4, r5, #4
 8003290:	52a7      	strh	r7, [r4, r2]
  pdwVal = (__IO uint16_t *)(BaseAddr + 0x400U + ((uint32_t)wPMABufAddr * PMA_ACCESS));
 8003292:	890c      	ldrh	r4, [r1, #8]
  uint32_t n = ((uint32_t)wNBytes + 1U) >> 1;
 8003294:	3001      	adds	r0, #1
  pdwVal = (__IO uint16_t *)(BaseAddr + 0x400U + ((uint32_t)wPMABufAddr * PMA_ACCESS));
 8003296:	f503 6280 	add.w	r2, r3, #1024	; 0x400
  for (i = n; i != 0U; i--)
 800329a:	0840      	lsrs	r0, r0, #1
  pdwVal = (__IO uint16_t *)(BaseAddr + 0x400U + ((uint32_t)wPMABufAddr * PMA_ACCESS));
 800329c:	eb02 0244 	add.w	r2, r2, r4, lsl #1
          USB_WritePMA(USBx, ep->xfer_buff, pmabuffer, (uint16_t)len);
 80032a0:	694c      	ldr	r4, [r1, #20]
  for (i = n; i != 0U; i--)
 80032a2:	f43f aeab 	beq.w	8002ffc <USB_EPStartXfer+0x214>
 80032a6:	eb02 0080 	add.w	r0, r2, r0, lsl #2
    temp1 = *pBuf;
 80032aa:	f834 5b02 	ldrh.w	r5, [r4], #2
    *pdwVal = (uint16_t)temp2;
 80032ae:	f822 5b04 	strh.w	r5, [r2], #4
  for (i = n; i != 0U; i--)
 80032b2:	4290      	cmp	r0, r2
 80032b4:	d1f9      	bne.n	80032aa <USB_EPStartXfer+0x4c2>
 80032b6:	e6a1      	b.n	8002ffc <USB_EPStartXfer+0x214>
          PCD_SET_EP_DBUF1_CNT(USBx, ep->num, ep->is_in, len);
 80032b8:	f8b3 c050 	ldrh.w	ip, [r3, #80]	; 0x50
 80032bc:	f203 470c 	addw	r7, r3, #1036	; 0x40c
 80032c0:	fa1f fc8c 	uxth.w	ip, ip
 80032c4:	0125      	lsls	r5, r4, #4
 80032c6:	4467      	add	r7, ip
 80032c8:	2a00      	cmp	r2, #0
 80032ca:	f040 8105 	bne.w	80034d8 <USB_EPStartXfer+0x6f0>
 80032ce:	5b7c      	ldrh	r4, [r7, r5]
          USB_WritePMA(USBx, ep->xfer_buff, pmabuffer, (uint16_t)len);
 80032d0:	f8d1 e014 	ldr.w	lr, [r1, #20]
          PCD_SET_EP_DBUF1_CNT(USBx, ep->num, ep->is_in, len);
 80032d4:	f424 44f8 	bic.w	r4, r4, #31744	; 0x7c00
 80032d8:	0424      	lsls	r4, r4, #16
 80032da:	0c24      	lsrs	r4, r4, #16
 80032dc:	537c      	strh	r4, [r7, r5]
 80032de:	5b7c      	ldrh	r4, [r7, r5]
 80032e0:	ea6f 4444 	mvn.w	r4, r4, lsl #17
 80032e4:	ea6f 4454 	mvn.w	r4, r4, lsr #17
 80032e8:	b2a4      	uxth	r4, r4
 80032ea:	537c      	strh	r4, [r7, r5]
  for (i = n; i != 0U; i--)
 80032ec:	e637      	b.n	8002f5e <USB_EPStartXfer+0x176>
        PCD_SET_EP_DBUF_CNT(USBx, ep->num, ep->is_in, ep->maxpacket);
 80032ee:	5a85      	ldrh	r5, [r0, r2]
 80032f0:	f425 45f8 	bic.w	r5, r5, #31744	; 0x7c00
 80032f4:	042d      	lsls	r5, r5, #16
 80032f6:	0c2d      	lsrs	r5, r5, #16
 80032f8:	5285      	strh	r5, [r0, r2]
 80032fa:	5a85      	ldrh	r5, [r0, r2]
 80032fc:	ea6f 4545 	mvn.w	r5, r5, lsl #17
 8003300:	ea6f 4555 	mvn.w	r5, r5, lsr #17
 8003304:	b2ad      	uxth	r5, r5
 8003306:	5285      	strh	r5, [r0, r2]
 8003308:	784a      	ldrb	r2, [r1, #1]
 800330a:	2a00      	cmp	r2, #0
 800330c:	d166      	bne.n	80033dc <USB_EPStartXfer+0x5f4>
 800330e:	f8b3 4050 	ldrh.w	r4, [r3, #80]	; 0x50
 8003312:	7808      	ldrb	r0, [r1, #0]
 8003314:	b2a2      	uxth	r2, r4
 8003316:	f203 440c 	addw	r4, r3, #1036	; 0x40c
 800331a:	4414      	add	r4, r2
 800331c:	0100      	lsls	r0, r0, #4
 800331e:	5a22      	ldrh	r2, [r4, r0]
 8003320:	f422 42f8 	bic.w	r2, r2, #31744	; 0x7c00
 8003324:	0412      	lsls	r2, r2, #16
 8003326:	0c12      	lsrs	r2, r2, #16
 8003328:	5222      	strh	r2, [r4, r0]
 800332a:	5a22      	ldrh	r2, [r4, r0]
 800332c:	b292      	uxth	r2, r2
 800332e:	f442 4200 	orr.w	r2, r2, #32768	; 0x8000
 8003332:	5222      	strh	r2, [r4, r0]
 8003334:	e6ac      	b.n	8003090 <USB_EPStartXfer+0x2a8>
          PCD_SET_EP_DBUF0_CNT(USBx, ep->num, ep->is_in, len);
 8003336:	f8b3 5050 	ldrh.w	r5, [r3, #80]	; 0x50
 800333a:	f203 4704 	addw	r7, r3, #1028	; 0x404
 800333e:	b2ad      	uxth	r5, r5
 8003340:	0124      	lsls	r4, r4, #4
 8003342:	442f      	add	r7, r5
 8003344:	2a00      	cmp	r2, #0
 8003346:	f040 809b 	bne.w	8003480 <USB_EPStartXfer+0x698>
 800334a:	5b3d      	ldrh	r5, [r7, r4]
          USB_WritePMA(USBx, ep->xfer_buff, pmabuffer, (uint16_t)len);
 800334c:	f8d1 e014 	ldr.w	lr, [r1, #20]
          PCD_SET_EP_DBUF0_CNT(USBx, ep->num, ep->is_in, len);
 8003350:	f425 45f8 	bic.w	r5, r5, #31744	; 0x7c00
 8003354:	042d      	lsls	r5, r5, #16
 8003356:	0c2d      	lsrs	r5, r5, #16
 8003358:	533d      	strh	r5, [r7, r4]
 800335a:	5b3d      	ldrh	r5, [r7, r4]
 800335c:	ea6f 4545 	mvn.w	r5, r5, lsl #17
 8003360:	ea6f 4555 	mvn.w	r5, r5, lsr #17
 8003364:	b2ad      	uxth	r5, r5
 8003366:	533d      	strh	r5, [r7, r4]
  for (i = n; i != 0U; i--)
 8003368:	e746      	b.n	80031f8 <USB_EPStartXfer+0x410>
        PCD_SET_EP_DBUF_CNT(USBx, ep->num, ep->is_in, len);
 800336a:	5aa5      	ldrh	r5, [r4, r2]
 800336c:	f425 45f8 	bic.w	r5, r5, #31744	; 0x7c00
 8003370:	042d      	lsls	r5, r5, #16
 8003372:	0c2d      	lsrs	r5, r5, #16
 8003374:	52a5      	strh	r5, [r4, r2]
 8003376:	5aa5      	ldrh	r5, [r4, r2]
 8003378:	ea6f 4545 	mvn.w	r5, r5, lsl #17
 800337c:	ea6f 4555 	mvn.w	r5, r5, lsr #17
 8003380:	b2ad      	uxth	r5, r5
 8003382:	52a5      	strh	r5, [r4, r2]
 8003384:	784c      	ldrb	r4, [r1, #1]
 8003386:	2c00      	cmp	r4, #0
 8003388:	f47f ad62 	bne.w	8002e50 <USB_EPStartXfer+0x68>
 800338c:	f8b3 4050 	ldrh.w	r4, [r3, #80]	; 0x50
 8003390:	7808      	ldrb	r0, [r1, #0]
 8003392:	b2a2      	uxth	r2, r4
 8003394:	f203 440c 	addw	r4, r3, #1036	; 0x40c
 8003398:	4414      	add	r4, r2
 800339a:	0100      	lsls	r0, r0, #4
 800339c:	5a22      	ldrh	r2, [r4, r0]
 800339e:	f422 42f8 	bic.w	r2, r2, #31744	; 0x7c00
 80033a2:	0412      	lsls	r2, r2, #16
 80033a4:	0c12      	lsrs	r2, r2, #16
 80033a6:	5222      	strh	r2, [r4, r0]
 80033a8:	5a22      	ldrh	r2, [r4, r0]
 80033aa:	b292      	uxth	r2, r2
 80033ac:	f442 4200 	orr.w	r2, r2, #32768	; 0x8000
 80033b0:	5222      	strh	r2, [r4, r0]
 80033b2:	780a      	ldrb	r2, [r1, #0]
 80033b4:	eb03 0282 	add.w	r2, r3, r2, lsl #2
 80033b8:	e579      	b.n	8002eae <USB_EPStartXfer+0xc6>
 80033ba:	bf00      	nop
 80033bc:	ffff8000 	.word	0xffff8000
        PCD_SET_EP_DBUF_CNT(USBx, ep->num, ep->is_in, ep->maxpacket);
 80033c0:	0966      	lsrs	r6, r4, #5
 80033c2:	06e5      	lsls	r5, r4, #27
 80033c4:	4dbb      	ldr	r5, [pc, #748]	; (80036b4 <USB_EPStartXfer+0x8cc>)
 80033c6:	bf08      	it	eq
 80033c8:	f106 36ff 	addeq.w	r6, r6, #4294967295	; 0xffffffff
 80033cc:	ea45 2586 	orr.w	r5, r5, r6, lsl #10
 80033d0:	b2ad      	uxth	r5, r5
 80033d2:	5285      	strh	r5, [r0, r2]
 80033d4:	784a      	ldrb	r2, [r1, #1]
 80033d6:	2a00      	cmp	r2, #0
 80033d8:	f43f ae51 	beq.w	800307e <USB_EPStartXfer+0x296>
 80033dc:	2a01      	cmp	r2, #1
 80033de:	f47f ae57 	bne.w	8003090 <USB_EPStartXfer+0x2a8>
 80033e2:	f8b3 2050 	ldrh.w	r2, [r3, #80]	; 0x50
 80033e6:	7808      	ldrb	r0, [r1, #0]
 80033e8:	b295      	uxth	r5, r2
 80033ea:	f203 420c 	addw	r2, r3, #1036	; 0x40c
 80033ee:	b2a4      	uxth	r4, r4
 80033f0:	442a      	add	r2, r5
 80033f2:	0100      	lsls	r0, r0, #4
 80033f4:	5284      	strh	r4, [r0, r2]
 80033f6:	e64b      	b.n	8003090 <USB_EPStartXfer+0x2a8>
            PCD_SET_EP_DBUF0_CNT(USBx, ep->num, ep->is_in, len);
 80033f8:	2d00      	cmp	r5, #0
 80033fa:	f040 812e 	bne.w	800365a <USB_EPStartXfer+0x872>
 80033fe:	f8b3 7050 	ldrh.w	r7, [r3, #80]	; 0x50
 8003402:	f203 4504 	addw	r5, r3, #1028	; 0x404
 8003406:	b2bf      	uxth	r7, r7
 8003408:	0124      	lsls	r4, r4, #4
 800340a:	443d      	add	r5, r7
 800340c:	2a00      	cmp	r2, #0
 800340e:	f040 8186 	bne.w	800371e <USB_EPStartXfer+0x936>
 8003412:	5b2f      	ldrh	r7, [r5, r4]
            USB_WritePMA(USBx, ep->xfer_buff, pmabuffer, (uint16_t)len);
 8003414:	f8d1 e014 	ldr.w	lr, [r1, #20]
            PCD_SET_EP_DBUF0_CNT(USBx, ep->num, ep->is_in, len);
 8003418:	f427 47f8 	bic.w	r7, r7, #31744	; 0x7c00
 800341c:	043f      	lsls	r7, r7, #16
 800341e:	0c3f      	lsrs	r7, r7, #16
 8003420:	532f      	strh	r7, [r5, r4]
 8003422:	5b2f      	ldrh	r7, [r5, r4]
 8003424:	ea6f 4747 	mvn.w	r7, r7, lsl #17
 8003428:	ea6f 4757 	mvn.w	r7, r7, lsr #17
 800342c:	b2bf      	uxth	r7, r7
 800342e:	532f      	strh	r7, [r5, r4]
            if (ep->xfer_len_db > ep->maxpacket)
 8003430:	4286      	cmp	r6, r0
              ep->xfer_len_db = 0U;
 8003432:	bf2c      	ite	cs
 8003434:	2500      	movcs	r5, #0
              ep->xfer_len_db -= len;
 8003436:	1a85      	subcc	r5, r0, r2
            ep->xfer_buff += len;
 8003438:	eb0e 0402 	add.w	r4, lr, r2
 800343c:	bf38      	it	cc
 800343e:	4610      	movcc	r0, r2
            PCD_SET_EP_DBUF1_CNT(USBx, ep->num, ep->is_in, len);
 8003440:	784a      	ldrb	r2, [r1, #1]
            ep->xfer_buff += len;
 8003442:	614c      	str	r4, [r1, #20]
              ep->xfer_len_db -= len;
 8003444:	620d      	str	r5, [r1, #32]
            PCD_SET_EP_DBUF1_CNT(USBx, ep->num, ep->is_in, len);
 8003446:	2a00      	cmp	r2, #0
 8003448:	f040 80e8 	bne.w	800361c <USB_EPStartXfer+0x834>
 800344c:	f8b3 2050 	ldrh.w	r2, [r3, #80]	; 0x50
 8003450:	780d      	ldrb	r5, [r1, #0]
 8003452:	b292      	uxth	r2, r2
 8003454:	f202 420c 	addw	r2, r2, #1036	; 0x40c
 8003458:	eb02 1205 	add.w	r2, r2, r5, lsl #4
 800345c:	189d      	adds	r5, r3, r2
 800345e:	2800      	cmp	r0, #0
 8003460:	f040 814c 	bne.w	80036fc <USB_EPStartXfer+0x914>
 8003464:	5a98      	ldrh	r0, [r3, r2]
 8003466:	f420 40f8 	bic.w	r0, r0, #31744	; 0x7c00
 800346a:	0400      	lsls	r0, r0, #16
 800346c:	0c00      	lsrs	r0, r0, #16
 800346e:	5298      	strh	r0, [r3, r2]
 8003470:	5a98      	ldrh	r0, [r3, r2]
 8003472:	ea6f 4040 	mvn.w	r0, r0, lsl #17
 8003476:	ea6f 4050 	mvn.w	r0, r0, lsr #17
 800347a:	b280      	uxth	r0, r0
 800347c:	5298      	strh	r0, [r3, r2]
  for (i = n; i != 0U; i--)
 800347e:	e5bd      	b.n	8002ffc <USB_EPStartXfer+0x214>
          PCD_SET_EP_DBUF0_CNT(USBx, ep->num, ep->is_in, len);
 8003480:	2a3e      	cmp	r2, #62	; 0x3e
 8003482:	f200 810b 	bhi.w	800369c <USB_EPStartXfer+0x8b4>
 8003486:	0855      	lsrs	r5, r2, #1
 8003488:	f012 0f01 	tst.w	r2, #1
 800348c:	bf18      	it	ne
 800348e:	3501      	addne	r5, #1
 8003490:	02ad      	lsls	r5, r5, #10
 8003492:	b2ad      	uxth	r5, r5
 8003494:	533d      	strh	r5, [r7, r4]
  pdwVal = (__IO uint16_t *)(BaseAddr + 0x400U + ((uint32_t)wPMABufAddr * PMA_ACCESS));
 8003496:	890c      	ldrh	r4, [r1, #8]
 8003498:	f503 6580 	add.w	r5, r3, #1024	; 0x400
  uint32_t n = ((uint32_t)wNBytes + 1U) >> 1;
 800349c:	1c57      	adds	r7, r2, #1
          USB_WritePMA(USBx, ep->xfer_buff, pmabuffer, (uint16_t)len);
 800349e:	f8d1 e014 	ldr.w	lr, [r1, #20]
  pdwVal = (__IO uint16_t *)(BaseAddr + 0x400U + ((uint32_t)wPMABufAddr * PMA_ACCESS));
 80034a2:	eb05 0544 	add.w	r5, r5, r4, lsl #1
  uint32_t n = ((uint32_t)wNBytes + 1U) >> 1;
 80034a6:	087f      	lsrs	r7, r7, #1
  for (i = n; i != 0U; i--)
 80034a8:	e69d      	b.n	80031e6 <USB_EPStartXfer+0x3fe>
            PCD_SET_EP_DBUF0_CNT(USBx, ep->num, ep->is_in, len);
 80034aa:	2a01      	cmp	r2, #1
 80034ac:	d109      	bne.n	80034c2 <USB_EPStartXfer+0x6da>
 80034ae:	f8b3 2050 	ldrh.w	r2, [r3, #80]	; 0x50
 80034b2:	780d      	ldrb	r5, [r1, #0]
 80034b4:	b296      	uxth	r6, r2
 80034b6:	f203 4204 	addw	r2, r3, #1028	; 0x404
 80034ba:	4432      	add	r2, r6
 80034bc:	012d      	lsls	r5, r5, #4
 80034be:	b286      	uxth	r6, r0
 80034c0:	52ae      	strh	r6, [r5, r2]
  pdwVal = (__IO uint16_t *)(BaseAddr + 0x400U + ((uint32_t)wPMABufAddr * PMA_ACCESS));
 80034c2:	890d      	ldrh	r5, [r1, #8]
  uint32_t n = ((uint32_t)wNBytes + 1U) >> 1;
 80034c4:	b280      	uxth	r0, r0
 80034c6:	3001      	adds	r0, #1
  pdwVal = (__IO uint16_t *)(BaseAddr + 0x400U + ((uint32_t)wPMABufAddr * PMA_ACCESS));
 80034c8:	f503 6280 	add.w	r2, r3, #1024	; 0x400
 80034cc:	eb02 0245 	add.w	r2, r2, r5, lsl #1
  for (i = n; i != 0U; i--)
 80034d0:	0845      	lsrs	r5, r0, #1
 80034d2:	f47f ad6d 	bne.w	8002fb0 <USB_EPStartXfer+0x1c8>
 80034d6:	e591      	b.n	8002ffc <USB_EPStartXfer+0x214>
          PCD_SET_EP_DBUF1_CNT(USBx, ep->num, ep->is_in, len);
 80034d8:	2a3e      	cmp	r2, #62	; 0x3e
 80034da:	f200 8103 	bhi.w	80036e4 <USB_EPStartXfer+0x8fc>
 80034de:	0854      	lsrs	r4, r2, #1
 80034e0:	f012 0f01 	tst.w	r2, #1
 80034e4:	bf18      	it	ne
 80034e6:	3401      	addne	r4, #1
 80034e8:	02a4      	lsls	r4, r4, #10
 80034ea:	b2a4      	uxth	r4, r4
 80034ec:	537c      	strh	r4, [r7, r5]
  pdwVal = (__IO uint16_t *)(BaseAddr + 0x400U + ((uint32_t)wPMABufAddr * PMA_ACCESS));
 80034ee:	894d      	ldrh	r5, [r1, #10]
 80034f0:	f503 6480 	add.w	r4, r3, #1024	; 0x400
  uint32_t n = ((uint32_t)wNBytes + 1U) >> 1;
 80034f4:	1c57      	adds	r7, r2, #1
          USB_WritePMA(USBx, ep->xfer_buff, pmabuffer, (uint16_t)len);
 80034f6:	f8d1 e014 	ldr.w	lr, [r1, #20]
  pdwVal = (__IO uint16_t *)(BaseAddr + 0x400U + ((uint32_t)wPMABufAddr * PMA_ACCESS));
 80034fa:	eb04 0445 	add.w	r4, r4, r5, lsl #1
  uint32_t n = ((uint32_t)wNBytes + 1U) >> 1;
 80034fe:	087f      	lsrs	r7, r7, #1
  for (i = n; i != 0U; i--)
 8003500:	e524      	b.n	8002f4c <USB_EPStartXfer+0x164>
            PCD_SET_EP_DBUF1_CNT(USBx, ep->num, ep->is_in, len);
 8003502:	2a01      	cmp	r2, #1
 8003504:	d109      	bne.n	800351a <USB_EPStartXfer+0x732>
 8003506:	f8b3 2050 	ldrh.w	r2, [r3, #80]	; 0x50
 800350a:	780c      	ldrb	r4, [r1, #0]
 800350c:	b292      	uxth	r2, r2
 800350e:	f202 420c 	addw	r2, r2, #1036	; 0x40c
 8003512:	eb02 1204 	add.w	r2, r2, r4, lsl #4
 8003516:	b284      	uxth	r4, r0
 8003518:	529c      	strh	r4, [r3, r2]
  uint32_t n = ((uint32_t)wNBytes + 1U) >> 1;
 800351a:	b282      	uxth	r2, r0
  pdwVal = (__IO uint16_t *)(BaseAddr + 0x400U + ((uint32_t)wPMABufAddr * PMA_ACCESS));
 800351c:	894c      	ldrh	r4, [r1, #10]
  uint32_t n = ((uint32_t)wNBytes + 1U) >> 1;
 800351e:	3201      	adds	r2, #1
  pdwVal = (__IO uint16_t *)(BaseAddr + 0x400U + ((uint32_t)wPMABufAddr * PMA_ACCESS));
 8003520:	eb03 0044 	add.w	r0, r3, r4, lsl #1
  for (i = n; i != 0U; i--)
 8003524:	0852      	lsrs	r2, r2, #1
  pdwVal = (__IO uint16_t *)(BaseAddr + 0x400U + ((uint32_t)wPMABufAddr * PMA_ACCESS));
 8003526:	f500 6080 	add.w	r0, r0, #1024	; 0x400
  for (i = n; i != 0U; i--)
 800352a:	f47f ae8f 	bne.w	800324c <USB_EPStartXfer+0x464>
 800352e:	e565      	b.n	8002ffc <USB_EPStartXfer+0x214>
        PCD_SET_EP_DBUF_CNT(USBx, ep->num, ep->is_in, len);
 8003530:	f8b3 0050 	ldrh.w	r0, [r3, #80]	; 0x50
 8003534:	780c      	ldrb	r4, [r1, #0]
 8003536:	b286      	uxth	r6, r0
 8003538:	f203 400c 	addw	r0, r3, #1036	; 0x40c
 800353c:	462a      	mov	r2, r5
 800353e:	4430      	add	r0, r6
 8003540:	0124      	lsls	r4, r4, #4
 8003542:	b107      	cbz	r7, 8003546 <USB_EPStartXfer+0x75e>
 8003544:	3201      	adds	r2, #1
 8003546:	0292      	lsls	r2, r2, #10
 8003548:	b292      	uxth	r2, r2
 800354a:	5222      	strh	r2, [r4, r0]
 800354c:	780a      	ldrb	r2, [r1, #0]
 800354e:	eb03 0282 	add.w	r2, r3, r2, lsl #2
 8003552:	e4ac      	b.n	8002eae <USB_EPStartXfer+0xc6>
 8003554:	0947      	lsrs	r7, r0, #5
 8003556:	46bc      	mov	ip, r7
 8003558:	4d56      	ldr	r5, [pc, #344]	; (80036b4 <USB_EPStartXfer+0x8cc>)
 800355a:	f010 061f 	ands.w	r6, r0, #31
 800355e:	bf08      	it	eq
 8003560:	f107 3cff 	addeq.w	ip, r7, #4294967295	; 0xffffffff
 8003564:	ea45 258c 	orr.w	r5, r5, ip, lsl #10
 8003568:	b2ad      	uxth	r5, r5
 800356a:	52a5      	strh	r5, [r4, r2]
 800356c:	784c      	ldrb	r4, [r1, #1]
 800356e:	2c00      	cmp	r4, #0
 8003570:	f47f ac6e 	bne.w	8002e50 <USB_EPStartXfer+0x68>
 8003574:	f8b3 0050 	ldrh.w	r0, [r3, #80]	; 0x50
 8003578:	780d      	ldrb	r5, [r1, #0]
 800357a:	b284      	uxth	r4, r0
 800357c:	f203 400c 	addw	r0, r3, #1036	; 0x40c
 8003580:	463a      	mov	r2, r7
 8003582:	4420      	add	r0, r4
 8003584:	012d      	lsls	r5, r5, #4
 8003586:	b906      	cbnz	r6, 800358a <USB_EPStartXfer+0x7a2>
 8003588:	3a01      	subs	r2, #1
 800358a:	4c4a      	ldr	r4, [pc, #296]	; (80036b4 <USB_EPStartXfer+0x8cc>)
 800358c:	ea44 2282 	orr.w	r2, r4, r2, lsl #10
 8003590:	b292      	uxth	r2, r2
 8003592:	522a      	strh	r2, [r5, r0]
 8003594:	780a      	ldrb	r2, [r1, #0]
 8003596:	eb03 0282 	add.w	r2, r3, r2, lsl #2
 800359a:	e488      	b.n	8002eae <USB_EPStartXfer+0xc6>
            PCD_SET_EP_DBUF0_CNT(USBx, ep->num, ep->is_in, len);
 800359c:	2a01      	cmp	r2, #1
 800359e:	d109      	bne.n	80035b4 <USB_EPStartXfer+0x7cc>
 80035a0:	f8b3 2050 	ldrh.w	r2, [r3, #80]	; 0x50
 80035a4:	780d      	ldrb	r5, [r1, #0]
 80035a6:	b296      	uxth	r6, r2
 80035a8:	f203 4204 	addw	r2, r3, #1028	; 0x404
 80035ac:	4432      	add	r2, r6
 80035ae:	012d      	lsls	r5, r5, #4
 80035b0:	b286      	uxth	r6, r0
 80035b2:	52ae      	strh	r6, [r5, r2]
  uint32_t n = ((uint32_t)wNBytes + 1U) >> 1;
 80035b4:	b280      	uxth	r0, r0
  pdwVal = (__IO uint16_t *)(BaseAddr + 0x400U + ((uint32_t)wPMABufAddr * PMA_ACCESS));
 80035b6:	890d      	ldrh	r5, [r1, #8]
  uint32_t n = ((uint32_t)wNBytes + 1U) >> 1;
 80035b8:	3001      	adds	r0, #1
  pdwVal = (__IO uint16_t *)(BaseAddr + 0x400U + ((uint32_t)wPMABufAddr * PMA_ACCESS));
 80035ba:	f503 6280 	add.w	r2, r3, #1024	; 0x400
  for (i = n; i != 0U; i--)
 80035be:	0840      	lsrs	r0, r0, #1
  pdwVal = (__IO uint16_t *)(BaseAddr + 0x400U + ((uint32_t)wPMABufAddr * PMA_ACCESS));
 80035c0:	eb02 0245 	add.w	r2, r2, r5, lsl #1
  for (i = n; i != 0U; i--)
 80035c4:	f43f ad1a 	beq.w	8002ffc <USB_EPStartXfer+0x214>
 80035c8:	eb04 0540 	add.w	r5, r4, r0, lsl #1
    temp1 = *pBuf;
 80035cc:	f834 0b02 	ldrh.w	r0, [r4], #2
  for (i = n; i != 0U; i--)
 80035d0:	42a5      	cmp	r5, r4
    *pdwVal = (uint16_t)temp2;
 80035d2:	f822 0b04 	strh.w	r0, [r2], #4
  for (i = n; i != 0U; i--)
 80035d6:	d1f9      	bne.n	80035cc <USB_EPStartXfer+0x7e4>
 80035d8:	e510      	b.n	8002ffc <USB_EPStartXfer+0x214>
            PCD_SET_EP_DBUF1_CNT(USBx, ep->num, ep->is_in, len);
 80035da:	2d01      	cmp	r5, #1
 80035dc:	d108      	bne.n	80035f0 <USB_EPStartXfer+0x808>
 80035de:	f8b3 7050 	ldrh.w	r7, [r3, #80]	; 0x50
 80035e2:	f203 450c 	addw	r5, r3, #1036	; 0x40c
 80035e6:	b2bf      	uxth	r7, r7
 80035e8:	443d      	add	r5, r7
 80035ea:	0124      	lsls	r4, r4, #4
 80035ec:	b297      	uxth	r7, r2
 80035ee:	532f      	strh	r7, [r5, r4]
  pdwVal = (__IO uint16_t *)(BaseAddr + 0x400U + ((uint32_t)wPMABufAddr * PMA_ACCESS));
 80035f0:	894f      	ldrh	r7, [r1, #10]
  uint32_t n = ((uint32_t)wNBytes + 1U) >> 1;
 80035f2:	b295      	uxth	r5, r2
 80035f4:	3501      	adds	r5, #1
  pdwVal = (__IO uint16_t *)(BaseAddr + 0x400U + ((uint32_t)wPMABufAddr * PMA_ACCESS));
 80035f6:	f503 6480 	add.w	r4, r3, #1024	; 0x400
 80035fa:	eb04 0447 	add.w	r4, r4, r7, lsl #1
  for (i = n; i != 0U; i--)
 80035fe:	086f      	lsrs	r7, r5, #1
            USB_WritePMA(USBx, ep->xfer_buff, pmabuffer, (uint16_t)len);
 8003600:	f8d1 e014 	ldr.w	lr, [r1, #20]
  for (i = n; i != 0U; i--)
 8003604:	f43f adaf 	beq.w	8003166 <USB_EPStartXfer+0x37e>
{
 8003608:	4675      	mov	r5, lr
 800360a:	eb04 0787 	add.w	r7, r4, r7, lsl #2
    temp1 = *pBuf;
 800360e:	f835 cb02 	ldrh.w	ip, [r5], #2
    *pdwVal = (uint16_t)temp2;
 8003612:	f824 cb04 	strh.w	ip, [r4], #4
  for (i = n; i != 0U; i--)
 8003616:	42bc      	cmp	r4, r7
 8003618:	d1f9      	bne.n	800360e <USB_EPStartXfer+0x826>
 800361a:	e5a4      	b.n	8003166 <USB_EPStartXfer+0x37e>
            PCD_SET_EP_DBUF1_CNT(USBx, ep->num, ep->is_in, len);
 800361c:	2a01      	cmp	r2, #1
 800361e:	d109      	bne.n	8003634 <USB_EPStartXfer+0x84c>
 8003620:	f8b3 2050 	ldrh.w	r2, [r3, #80]	; 0x50
 8003624:	780d      	ldrb	r5, [r1, #0]
 8003626:	b292      	uxth	r2, r2
 8003628:	f202 420c 	addw	r2, r2, #1036	; 0x40c
 800362c:	eb02 1205 	add.w	r2, r2, r5, lsl #4
 8003630:	b285      	uxth	r5, r0
 8003632:	529d      	strh	r5, [r3, r2]
  pdwVal = (__IO uint16_t *)(BaseAddr + 0x400U + ((uint32_t)wPMABufAddr * PMA_ACCESS));
 8003634:	894a      	ldrh	r2, [r1, #10]
  uint32_t n = ((uint32_t)wNBytes + 1U) >> 1;
 8003636:	b280      	uxth	r0, r0
 8003638:	3001      	adds	r0, #1
  pdwVal = (__IO uint16_t *)(BaseAddr + 0x400U + ((uint32_t)wPMABufAddr * PMA_ACCESS));
 800363a:	eb03 0242 	add.w	r2, r3, r2, lsl #1
  for (i = n; i != 0U; i--)
 800363e:	0840      	lsrs	r0, r0, #1
  pdwVal = (__IO uint16_t *)(BaseAddr + 0x400U + ((uint32_t)wPMABufAddr * PMA_ACCESS));
 8003640:	f502 6280 	add.w	r2, r2, #1024	; 0x400
  for (i = n; i != 0U; i--)
 8003644:	f43f acda 	beq.w	8002ffc <USB_EPStartXfer+0x214>
 8003648:	eb02 0080 	add.w	r0, r2, r0, lsl #2
    temp1 = *pBuf;
 800364c:	f834 5b02 	ldrh.w	r5, [r4], #2
    *pdwVal = (uint16_t)temp2;
 8003650:	f822 5b04 	strh.w	r5, [r2], #4
  for (i = n; i != 0U; i--)
 8003654:	4290      	cmp	r0, r2
 8003656:	d1f9      	bne.n	800364c <USB_EPStartXfer+0x864>
 8003658:	e4d0      	b.n	8002ffc <USB_EPStartXfer+0x214>
            PCD_SET_EP_DBUF0_CNT(USBx, ep->num, ep->is_in, len);
 800365a:	2d01      	cmp	r5, #1
 800365c:	d108      	bne.n	8003670 <USB_EPStartXfer+0x888>
 800365e:	f8b3 7050 	ldrh.w	r7, [r3, #80]	; 0x50
 8003662:	f203 4504 	addw	r5, r3, #1028	; 0x404
 8003666:	b2bf      	uxth	r7, r7
 8003668:	443d      	add	r5, r7
 800366a:	0124      	lsls	r4, r4, #4
 800366c:	b297      	uxth	r7, r2
 800366e:	532f      	strh	r7, [r5, r4]
  pdwVal = (__IO uint16_t *)(BaseAddr + 0x400U + ((uint32_t)wPMABufAddr * PMA_ACCESS));
 8003670:	890c      	ldrh	r4, [r1, #8]
  uint32_t n = ((uint32_t)wNBytes + 1U) >> 1;
 8003672:	b295      	uxth	r5, r2
 8003674:	3501      	adds	r5, #1
  pdwVal = (__IO uint16_t *)(BaseAddr + 0x400U + ((uint32_t)wPMABufAddr * PMA_ACCESS));
 8003676:	eb03 0444 	add.w	r4, r3, r4, lsl #1
  for (i = n; i != 0U; i--)
 800367a:	086f      	lsrs	r7, r5, #1
            USB_WritePMA(USBx, ep->xfer_buff, pmabuffer, (uint16_t)len);
 800367c:	f8d1 e014 	ldr.w	lr, [r1, #20]
  pdwVal = (__IO uint16_t *)(BaseAddr + 0x400U + ((uint32_t)wPMABufAddr * PMA_ACCESS));
 8003680:	f504 6480 	add.w	r4, r4, #1024	; 0x400
  for (i = n; i != 0U; i--)
 8003684:	f43f aed4 	beq.w	8003430 <USB_EPStartXfer+0x648>
              ep->xfer_len_db = 0U;
 8003688:	4675      	mov	r5, lr
 800368a:	eb04 0787 	add.w	r7, r4, r7, lsl #2
    temp1 = *pBuf;
 800368e:	f835 cb02 	ldrh.w	ip, [r5], #2
    *pdwVal = (uint16_t)temp2;
 8003692:	f824 cb04 	strh.w	ip, [r4], #4
  for (i = n; i != 0U; i--)
 8003696:	42a7      	cmp	r7, r4
 8003698:	d1f9      	bne.n	800368e <USB_EPStartXfer+0x8a6>
 800369a:	e6c9      	b.n	8003430 <USB_EPStartXfer+0x648>
          PCD_SET_EP_DBUF0_CNT(USBx, ep->num, ep->is_in, len);
 800369c:	ea4f 1c52 	mov.w	ip, r2, lsr #5
 80036a0:	06d5      	lsls	r5, r2, #27
 80036a2:	4d04      	ldr	r5, [pc, #16]	; (80036b4 <USB_EPStartXfer+0x8cc>)
 80036a4:	bf08      	it	eq
 80036a6:	f10c 3cff 	addeq.w	ip, ip, #4294967295	; 0xffffffff
 80036aa:	ea45 258c 	orr.w	r5, r5, ip, lsl #10
 80036ae:	b2ad      	uxth	r5, r5
 80036b0:	533d      	strh	r5, [r7, r4]
 80036b2:	e58d      	b.n	80031d0 <USB_EPStartXfer+0x3e8>
 80036b4:	ffff8000 	.word	0xffff8000
            PCD_SET_EP_DBUF0_CNT(USBx, ep->num, ep->is_in, len);
 80036b8:	0947      	lsrs	r7, r0, #5
 80036ba:	06c5      	lsls	r5, r0, #27
 80036bc:	4d4b      	ldr	r5, [pc, #300]	; (80037ec <USB_EPStartXfer+0xa04>)
 80036be:	bf08      	it	eq
 80036c0:	f107 37ff 	addeq.w	r7, r7, #4294967295	; 0xffffffff
 80036c4:	ea45 2587 	orr.w	r5, r5, r7, lsl #10
 80036c8:	b2ad      	uxth	r5, r5
 80036ca:	52b5      	strh	r5, [r6, r2]
 80036cc:	e6f9      	b.n	80034c2 <USB_EPStartXfer+0x6da>
            PCD_SET_EP_DBUF1_CNT(USBx, ep->num, ep->is_in, len);
 80036ce:	0946      	lsrs	r6, r0, #5
 80036d0:	4c46      	ldr	r4, [pc, #280]	; (80037ec <USB_EPStartXfer+0xa04>)
 80036d2:	06c7      	lsls	r7, r0, #27
 80036d4:	bf08      	it	eq
 80036d6:	f106 36ff 	addeq.w	r6, r6, #4294967295	; 0xffffffff
 80036da:	ea44 2486 	orr.w	r4, r4, r6, lsl #10
 80036de:	b2a4      	uxth	r4, r4
 80036e0:	8014      	strh	r4, [r2, #0]
 80036e2:	e71a      	b.n	800351a <USB_EPStartXfer+0x732>
          PCD_SET_EP_DBUF1_CNT(USBx, ep->num, ep->is_in, len);
 80036e4:	ea4f 1c52 	mov.w	ip, r2, lsr #5
 80036e8:	06d4      	lsls	r4, r2, #27
 80036ea:	4c40      	ldr	r4, [pc, #256]	; (80037ec <USB_EPStartXfer+0xa04>)
 80036ec:	bf08      	it	eq
 80036ee:	f10c 3cff 	addeq.w	ip, ip, #4294967295	; 0xffffffff
 80036f2:	ea44 248c 	orr.w	r4, r4, ip, lsl #10
 80036f6:	b2a4      	uxth	r4, r4
 80036f8:	537c      	strh	r4, [r7, r5]
 80036fa:	e41c      	b.n	8002f36 <USB_EPStartXfer+0x14e>
            PCD_SET_EP_DBUF1_CNT(USBx, ep->num, ep->is_in, len);
 80036fc:	283e      	cmp	r0, #62	; 0x3e
 80036fe:	d847      	bhi.n	8003790 <USB_EPStartXfer+0x9a8>
 8003700:	0842      	lsrs	r2, r0, #1
 8003702:	07c6      	lsls	r6, r0, #31
 8003704:	bf48      	it	mi
 8003706:	3201      	addmi	r2, #1
 8003708:	0292      	lsls	r2, r2, #10
 800370a:	b292      	uxth	r2, r2
 800370c:	802a      	strh	r2, [r5, #0]
  pdwVal = (__IO uint16_t *)(BaseAddr + 0x400U + ((uint32_t)wPMABufAddr * PMA_ACCESS));
 800370e:	894a      	ldrh	r2, [r1, #10]
  uint32_t n = ((uint32_t)wNBytes + 1U) >> 1;
 8003710:	3001      	adds	r0, #1
  pdwVal = (__IO uint16_t *)(BaseAddr + 0x400U + ((uint32_t)wPMABufAddr * PMA_ACCESS));
 8003712:	eb03 0242 	add.w	r2, r3, r2, lsl #1
  uint32_t n = ((uint32_t)wNBytes + 1U) >> 1;
 8003716:	0840      	lsrs	r0, r0, #1
  pdwVal = (__IO uint16_t *)(BaseAddr + 0x400U + ((uint32_t)wPMABufAddr * PMA_ACCESS));
 8003718:	f502 6280 	add.w	r2, r2, #1024	; 0x400
  for (i = n; i != 0U; i--)
 800371c:	e794      	b.n	8003648 <USB_EPStartXfer+0x860>
            PCD_SET_EP_DBUF0_CNT(USBx, ep->num, ep->is_in, len);
 800371e:	2a3e      	cmp	r2, #62	; 0x3e
 8003720:	d84c      	bhi.n	80037bc <USB_EPStartXfer+0x9d4>
 8003722:	0857      	lsrs	r7, r2, #1
 8003724:	f012 0f01 	tst.w	r2, #1
 8003728:	bf18      	it	ne
 800372a:	3701      	addne	r7, #1
 800372c:	02bf      	lsls	r7, r7, #10
 800372e:	b2bf      	uxth	r7, r7
 8003730:	532f      	strh	r7, [r5, r4]
  pdwVal = (__IO uint16_t *)(BaseAddr + 0x400U + ((uint32_t)wPMABufAddr * PMA_ACCESS));
 8003732:	890d      	ldrh	r5, [r1, #8]
 8003734:	f503 6480 	add.w	r4, r3, #1024	; 0x400
  uint32_t n = ((uint32_t)wNBytes + 1U) >> 1;
 8003738:	1c57      	adds	r7, r2, #1
            USB_WritePMA(USBx, ep->xfer_buff, pmabuffer, (uint16_t)len);
 800373a:	f8d1 e014 	ldr.w	lr, [r1, #20]
  pdwVal = (__IO uint16_t *)(BaseAddr + 0x400U + ((uint32_t)wPMABufAddr * PMA_ACCESS));
 800373e:	eb04 0445 	add.w	r4, r4, r5, lsl #1
  uint32_t n = ((uint32_t)wNBytes + 1U) >> 1;
 8003742:	087f      	lsrs	r7, r7, #1
  for (i = n; i != 0U; i--)
 8003744:	e7a0      	b.n	8003688 <USB_EPStartXfer+0x8a0>
            PCD_SET_EP_DBUF1_CNT(USBx, ep->num, ep->is_in, len);
 8003746:	2a3e      	cmp	r2, #62	; 0x3e
 8003748:	d844      	bhi.n	80037d4 <USB_EPStartXfer+0x9ec>
 800374a:	0857      	lsrs	r7, r2, #1
 800374c:	f012 0f01 	tst.w	r2, #1
 8003750:	bf18      	it	ne
 8003752:	3701      	addne	r7, #1
 8003754:	02bf      	lsls	r7, r7, #10
 8003756:	b2bf      	uxth	r7, r7
 8003758:	532f      	strh	r7, [r5, r4]
  pdwVal = (__IO uint16_t *)(BaseAddr + 0x400U + ((uint32_t)wPMABufAddr * PMA_ACCESS));
 800375a:	894d      	ldrh	r5, [r1, #10]
 800375c:	f503 6480 	add.w	r4, r3, #1024	; 0x400
  uint32_t n = ((uint32_t)wNBytes + 1U) >> 1;
 8003760:	1c57      	adds	r7, r2, #1
            USB_WritePMA(USBx, ep->xfer_buff, pmabuffer, (uint16_t)len);
 8003762:	f8d1 e014 	ldr.w	lr, [r1, #20]
  pdwVal = (__IO uint16_t *)(BaseAddr + 0x400U + ((uint32_t)wPMABufAddr * PMA_ACCESS));
 8003766:	eb04 0445 	add.w	r4, r4, r5, lsl #1
  uint32_t n = ((uint32_t)wNBytes + 1U) >> 1;
 800376a:	087f      	lsrs	r7, r7, #1
  for (i = n; i != 0U; i--)
 800376c:	e74c      	b.n	8003608 <USB_EPStartXfer+0x820>
            PCD_SET_EP_DBUF0_CNT(USBx, ep->num, ep->is_in, len);
 800376e:	283e      	cmp	r0, #62	; 0x3e
 8003770:	d819      	bhi.n	80037a6 <USB_EPStartXfer+0x9be>
 8003772:	0846      	lsrs	r6, r0, #1
 8003774:	07c7      	lsls	r7, r0, #31
 8003776:	bf48      	it	mi
 8003778:	3601      	addmi	r6, #1
 800377a:	02b6      	lsls	r6, r6, #10
 800377c:	b2b6      	uxth	r6, r6
 800377e:	5356      	strh	r6, [r2, r5]
  pdwVal = (__IO uint16_t *)(BaseAddr + 0x400U + ((uint32_t)wPMABufAddr * PMA_ACCESS));
 8003780:	890d      	ldrh	r5, [r1, #8]
  uint32_t n = ((uint32_t)wNBytes + 1U) >> 1;
 8003782:	3001      	adds	r0, #1
  pdwVal = (__IO uint16_t *)(BaseAddr + 0x400U + ((uint32_t)wPMABufAddr * PMA_ACCESS));
 8003784:	f503 6280 	add.w	r2, r3, #1024	; 0x400
  uint32_t n = ((uint32_t)wNBytes + 1U) >> 1;
 8003788:	0840      	lsrs	r0, r0, #1
  pdwVal = (__IO uint16_t *)(BaseAddr + 0x400U + ((uint32_t)wPMABufAddr * PMA_ACCESS));
 800378a:	eb02 0245 	add.w	r2, r2, r5, lsl #1
  for (i = n; i != 0U; i--)
 800378e:	e71b      	b.n	80035c8 <USB_EPStartXfer+0x7e0>
            PCD_SET_EP_DBUF1_CNT(USBx, ep->num, ep->is_in, len);
 8003790:	0946      	lsrs	r6, r0, #5
 8003792:	06c2      	lsls	r2, r0, #27
 8003794:	4a15      	ldr	r2, [pc, #84]	; (80037ec <USB_EPStartXfer+0xa04>)
 8003796:	bf08      	it	eq
 8003798:	f106 36ff 	addeq.w	r6, r6, #4294967295	; 0xffffffff
 800379c:	ea42 2286 	orr.w	r2, r2, r6, lsl #10
 80037a0:	b292      	uxth	r2, r2
 80037a2:	802a      	strh	r2, [r5, #0]
 80037a4:	e746      	b.n	8003634 <USB_EPStartXfer+0x84c>
            PCD_SET_EP_DBUF0_CNT(USBx, ep->num, ep->is_in, len);
 80037a6:	0947      	lsrs	r7, r0, #5
 80037a8:	06c6      	lsls	r6, r0, #27
 80037aa:	4e10      	ldr	r6, [pc, #64]	; (80037ec <USB_EPStartXfer+0xa04>)
 80037ac:	bf08      	it	eq
 80037ae:	f107 37ff 	addeq.w	r7, r7, #4294967295	; 0xffffffff
 80037b2:	ea46 2687 	orr.w	r6, r6, r7, lsl #10
 80037b6:	b2b6      	uxth	r6, r6
 80037b8:	5356      	strh	r6, [r2, r5]
 80037ba:	e6fb      	b.n	80035b4 <USB_EPStartXfer+0x7cc>
            PCD_SET_EP_DBUF0_CNT(USBx, ep->num, ep->is_in, len);
 80037bc:	ea4f 1c52 	mov.w	ip, r2, lsr #5
 80037c0:	06d7      	lsls	r7, r2, #27
 80037c2:	4f0a      	ldr	r7, [pc, #40]	; (80037ec <USB_EPStartXfer+0xa04>)
 80037c4:	bf08      	it	eq
 80037c6:	f10c 3cff 	addeq.w	ip, ip, #4294967295	; 0xffffffff
 80037ca:	ea47 278c 	orr.w	r7, r7, ip, lsl #10
 80037ce:	b2bf      	uxth	r7, r7
 80037d0:	532f      	strh	r7, [r5, r4]
 80037d2:	e74d      	b.n	8003670 <USB_EPStartXfer+0x888>
            PCD_SET_EP_DBUF1_CNT(USBx, ep->num, ep->is_in, len);
 80037d4:	ea4f 1c52 	mov.w	ip, r2, lsr #5
 80037d8:	06d7      	lsls	r7, r2, #27
 80037da:	4f04      	ldr	r7, [pc, #16]	; (80037ec <USB_EPStartXfer+0xa04>)
 80037dc:	bf08      	it	eq
 80037de:	f10c 3cff 	addeq.w	ip, ip, #4294967295	; 0xffffffff
 80037e2:	ea47 278c 	orr.w	r7, r7, ip, lsl #10
 80037e6:	b2bf      	uxth	r7, r7
 80037e8:	532f      	strh	r7, [r5, r4]
 80037ea:	e701      	b.n	80035f0 <USB_EPStartXfer+0x808>
 80037ec:	ffff8000 	.word	0xffff8000

080037f0 <USB_EPSetStall>:
  if (ep->is_in != 0U)
 80037f0:	784b      	ldrb	r3, [r1, #1]
    PCD_SET_EP_TX_STATUS(USBx, ep->num, USB_EP_TX_STALL);
 80037f2:	780a      	ldrb	r2, [r1, #0]
  if (ep->is_in != 0U)
 80037f4:	b18b      	cbz	r3, 800381a <USB_EPSetStall+0x2a>
    PCD_SET_EP_TX_STATUS(USBx, ep->num, USB_EP_TX_STALL);
 80037f6:	f830 3022 	ldrh.w	r3, [r0, r2, lsl #2]
 80037fa:	f423 43e0 	bic.w	r3, r3, #28672	; 0x7000
 80037fe:	f023 0340 	bic.w	r3, r3, #64	; 0x40
 8003802:	041b      	lsls	r3, r3, #16
 8003804:	0c1b      	lsrs	r3, r3, #16
 8003806:	f083 0310 	eor.w	r3, r3, #16
 800380a:	f443 4300 	orr.w	r3, r3, #32768	; 0x8000
 800380e:	f043 0380 	orr.w	r3, r3, #128	; 0x80
 8003812:	f820 3022 	strh.w	r3, [r0, r2, lsl #2]
}
 8003816:	2000      	movs	r0, #0
 8003818:	4770      	bx	lr
    PCD_SET_EP_RX_STATUS(USBx, ep->num, USB_EP_RX_STALL);
 800381a:	f830 3022 	ldrh.w	r3, [r0, r2, lsl #2]
 800381e:	f423 4380 	bic.w	r3, r3, #16384	; 0x4000
 8003822:	f023 0370 	bic.w	r3, r3, #112	; 0x70
 8003826:	041b      	lsls	r3, r3, #16
 8003828:	0c1b      	lsrs	r3, r3, #16
 800382a:	f483 5380 	eor.w	r3, r3, #4096	; 0x1000
 800382e:	f443 4300 	orr.w	r3, r3, #32768	; 0x8000
 8003832:	f043 0380 	orr.w	r3, r3, #128	; 0x80
 8003836:	f820 3022 	strh.w	r3, [r0, r2, lsl #2]
}
 800383a:	2000      	movs	r0, #0
 800383c:	4770      	bx	lr
 800383e:	bf00      	nop

08003840 <USB_EPClearStall>:
  if (ep->doublebuffer == 0U)
 8003840:	7b0b      	ldrb	r3, [r1, #12]
 8003842:	bb43      	cbnz	r3, 8003896 <USB_EPClearStall+0x56>
    if (ep->is_in != 0U)
 8003844:	784b      	ldrb	r3, [r1, #1]
 8003846:	b343      	cbz	r3, 800389a <USB_EPClearStall+0x5a>
      PCD_CLEAR_TX_DTOG(USBx, ep->num);
 8003848:	780a      	ldrb	r2, [r1, #0]
 800384a:	f830 3022 	ldrh.w	r3, [r0, r2, lsl #2]
 800384e:	065b      	lsls	r3, r3, #25
 8003850:	d50d      	bpl.n	800386e <USB_EPClearStall+0x2e>
 8003852:	f830 3022 	ldrh.w	r3, [r0, r2, lsl #2]
 8003856:	f423 43e0 	bic.w	r3, r3, #28672	; 0x7000
 800385a:	f023 0370 	bic.w	r3, r3, #112	; 0x70
 800385e:	041b      	lsls	r3, r3, #16
 8003860:	0c1b      	lsrs	r3, r3, #16
 8003862:	f443 4300 	orr.w	r3, r3, #32768	; 0x8000
 8003866:	f043 03c0 	orr.w	r3, r3, #192	; 0xc0
 800386a:	f820 3022 	strh.w	r3, [r0, r2, lsl #2]
      if (ep->type != EP_TYPE_ISOC)
 800386e:	78cb      	ldrb	r3, [r1, #3]
 8003870:	2b01      	cmp	r3, #1
 8003872:	d010      	beq.n	8003896 <USB_EPClearStall+0x56>
        PCD_SET_EP_TX_STATUS(USBx, ep->num, USB_EP_TX_NAK);
 8003874:	780a      	ldrb	r2, [r1, #0]
 8003876:	f830 3022 	ldrh.w	r3, [r0, r2, lsl #2]
 800387a:	f423 43e0 	bic.w	r3, r3, #28672	; 0x7000
 800387e:	f023 0340 	bic.w	r3, r3, #64	; 0x40
 8003882:	041b      	lsls	r3, r3, #16
 8003884:	0c1b      	lsrs	r3, r3, #16
 8003886:	f083 0320 	eor.w	r3, r3, #32
 800388a:	f443 4300 	orr.w	r3, r3, #32768	; 0x8000
 800388e:	f043 0380 	orr.w	r3, r3, #128	; 0x80
 8003892:	f820 3022 	strh.w	r3, [r0, r2, lsl #2]
}
 8003896:	2000      	movs	r0, #0
 8003898:	4770      	bx	lr
{
 800389a:	b410      	push	{r4}
      PCD_CLEAR_RX_DTOG(USBx, ep->num);
 800389c:	780c      	ldrb	r4, [r1, #0]
 800389e:	f830 3024 	ldrh.w	r3, [r0, r4, lsl #2]
 80038a2:	eb00 0284 	add.w	r2, r0, r4, lsl #2
 80038a6:	045b      	lsls	r3, r3, #17
 80038a8:	d510      	bpl.n	80038cc <USB_EPClearStall+0x8c>
 80038aa:	f830 3024 	ldrh.w	r3, [r0, r4, lsl #2]
 80038ae:	f423 43e0 	bic.w	r3, r3, #28672	; 0x7000
 80038b2:	f023 0370 	bic.w	r3, r3, #112	; 0x70
 80038b6:	041b      	lsls	r3, r3, #16
 80038b8:	0c1b      	lsrs	r3, r3, #16
 80038ba:	f443 4340 	orr.w	r3, r3, #49152	; 0xc000
 80038be:	f043 0380 	orr.w	r3, r3, #128	; 0x80
 80038c2:	f820 3024 	strh.w	r3, [r0, r4, lsl #2]
 80038c6:	780a      	ldrb	r2, [r1, #0]
 80038c8:	eb00 0282 	add.w	r2, r0, r2, lsl #2
      PCD_SET_EP_RX_STATUS(USBx, ep->num, USB_EP_RX_VALID);
 80038cc:	8813      	ldrh	r3, [r2, #0]
}
 80038ce:	2000      	movs	r0, #0
      PCD_SET_EP_RX_STATUS(USBx, ep->num, USB_EP_RX_VALID);
 80038d0:	f423 4380 	bic.w	r3, r3, #16384	; 0x4000
 80038d4:	f023 0370 	bic.w	r3, r3, #112	; 0x70
 80038d8:	041b      	lsls	r3, r3, #16
 80038da:	0c1b      	lsrs	r3, r3, #16
 80038dc:	f483 5340 	eor.w	r3, r3, #12288	; 0x3000
 80038e0:	f443 4300 	orr.w	r3, r3, #32768	; 0x8000
 80038e4:	f043 0380 	orr.w	r3, r3, #128	; 0x80
}
 80038e8:	bc10      	pop	{r4}
      PCD_SET_EP_RX_STATUS(USBx, ep->num, USB_EP_RX_VALID);
 80038ea:	8013      	strh	r3, [r2, #0]
}
 80038ec:	4770      	bx	lr
 80038ee:	bf00      	nop

080038f0 <USB_SetDevAddress>:
  if (address == 0U)
 80038f0:	b911      	cbnz	r1, 80038f8 <USB_SetDevAddress+0x8>
    USBx->DADDR = (uint16_t)USB_DADDR_EF;
 80038f2:	2380      	movs	r3, #128	; 0x80
 80038f4:	f8a0 304c 	strh.w	r3, [r0, #76]	; 0x4c
}
 80038f8:	2000      	movs	r0, #0
 80038fa:	4770      	bx	lr

080038fc <USB_DevConnect>:
 80038fc:	2000      	movs	r0, #0
 80038fe:	4770      	bx	lr

08003900 <USB_DevDisconnect>:
 8003900:	2000      	movs	r0, #0
 8003902:	4770      	bx	lr

08003904 <USB_ReadInterrupts>:
  tmpreg = USBx->ISTR;
 8003904:	f8b0 0044 	ldrh.w	r0, [r0, #68]	; 0x44
}
 8003908:	b280      	uxth	r0, r0
 800390a:	4770      	bx	lr

0800390c <USB_EP0_OutStart>:
}
 800390c:	2000      	movs	r0, #0
 800390e:	4770      	bx	lr

08003910 <USB_WritePMA>:
  uint32_t n = ((uint32_t)wNBytes + 1U) >> 1;
 8003910:	3301      	adds	r3, #1
  pdwVal = (__IO uint16_t *)(BaseAddr + 0x400U + ((uint32_t)wPMABufAddr * PMA_ACCESS));
 8003912:	eb00 0242 	add.w	r2, r0, r2, lsl #1
  for (i = n; i != 0U; i--)
 8003916:	085b      	lsrs	r3, r3, #1
  pdwVal = (__IO uint16_t *)(BaseAddr + 0x400U + ((uint32_t)wPMABufAddr * PMA_ACCESS));
 8003918:	f502 6280 	add.w	r2, r2, #1024	; 0x400
  for (i = n; i != 0U; i--)
 800391c:	d007      	beq.n	800392e <USB_WritePMA+0x1e>
 800391e:	eb02 0083 	add.w	r0, r2, r3, lsl #2
    temp2 = temp1 | ((uint16_t)((uint16_t) *pBuf << 8));
 8003922:	f831 3b02 	ldrh.w	r3, [r1], #2
    *pdwVal = (uint16_t)temp2;
 8003926:	f822 3b04 	strh.w	r3, [r2], #4
  for (i = n; i != 0U; i--)
 800392a:	4282      	cmp	r2, r0
 800392c:	d1f9      	bne.n	8003922 <USB_WritePMA+0x12>
    pdwVal++;
#endif

    pBuf++;
  }
}
 800392e:	4770      	bx	lr

08003930 <USB_ReadPMA>:
  uint32_t BaseAddr = (uint32_t)USBx;
  uint32_t i, temp;
  __IO uint16_t *pdwVal;
  uint8_t *pBuf = pbUsrBuf;

  pdwVal = (__IO uint16_t *)(BaseAddr + 0x400U + ((uint32_t)wPMABufAddr * PMA_ACCESS));
 8003930:	eb00 0042 	add.w	r0, r0, r2, lsl #1

  for (i = n; i != 0U; i--)
 8003934:	ea5f 0c53 	movs.w	ip, r3, lsr #1
{
 8003938:	b4f0      	push	{r4, r5, r6, r7}
  pdwVal = (__IO uint16_t *)(BaseAddr + 0x400U + ((uint32_t)wPMABufAddr * PMA_ACCESS));
 800393a:	f500 6780 	add.w	r7, r0, #1024	; 0x400
  for (i = n; i != 0U; i--)
 800393e:	d013      	beq.n	8003968 <USB_ReadPMA+0x38>
  pdwVal = (__IO uint16_t *)(BaseAddr + 0x400U + ((uint32_t)wPMABufAddr * PMA_ACCESS));
 8003940:	463d      	mov	r5, r7
  for (i = n; i != 0U; i--)
 8003942:	4664      	mov	r4, ip
 8003944:	1c88      	adds	r0, r1, #2
  {
    temp = *(__IO uint16_t *)pdwVal;
 8003946:	f835 2b04 	ldrh.w	r2, [r5], #4
  for (i = n; i != 0U; i--)
 800394a:	3c01      	subs	r4, #1
    temp = *(__IO uint16_t *)pdwVal;
 800394c:	b292      	uxth	r2, r2
    pdwVal++;
    *pBuf = (uint8_t)((temp >> 0) & 0xFFU);
    pBuf++;
    *pBuf = (uint8_t)((temp >> 8) & 0xFFU);
 800394e:	ea4f 2612 	mov.w	r6, r2, lsr #8
    *pBuf = (uint8_t)((temp >> 0) & 0xFFU);
 8003952:	f800 2c02 	strb.w	r2, [r0, #-2]
    *pBuf = (uint8_t)((temp >> 8) & 0xFFU);
 8003956:	f800 6c01 	strb.w	r6, [r0, #-1]
  for (i = n; i != 0U; i--)
 800395a:	f100 0002 	add.w	r0, r0, #2
 800395e:	d1f2      	bne.n	8003946 <USB_ReadPMA+0x16>
 8003960:	eb01 014c 	add.w	r1, r1, ip, lsl #1
 8003964:	eb07 078c 	add.w	r7, r7, ip, lsl #2
#if PMA_ACCESS > 1U
    pdwVal++;
#endif
  }

  if ((wNBytes % 2U) != 0U)
 8003968:	07db      	lsls	r3, r3, #31
  {
    temp = *pdwVal;
 800396a:	bf48      	it	mi
 800396c:	883b      	ldrhmi	r3, [r7, #0]
    *pBuf = (uint8_t)((temp >> 0) & 0xFFU);
  }
}
 800396e:	bcf0      	pop	{r4, r5, r6, r7}
    *pBuf = (uint8_t)((temp >> 0) & 0xFFU);
 8003970:	bf48      	it	mi
 8003972:	700b      	strbmi	r3, [r1, #0]
}
 8003974:	4770      	bx	lr
 8003976:	bf00      	nop

08003978 <USBD_Init>:
*/
USBD_StatusTypeDef USBD_Init(USBD_HandleTypeDef *pdev,
                             USBD_DescriptorsTypeDef *pdesc, uint8_t id)
{
  /* Check whether the USB Host handle is valid */
  if (pdev == NULL)
 8003978:	b188      	cbz	r0, 800399e <USBD_Init+0x26>
{
 800397a:	b508      	push	{r3, lr}
#endif
    return USBD_FAIL;
  }

  /* Unlink previous class*/
  if (pdev->pClass != NULL)
 800397c:	f8d0 32b4 	ldr.w	r3, [r0, #692]	; 0x2b4
 8003980:	b113      	cbz	r3, 8003988 <USBD_Init+0x10>
  {
    pdev->pClass = NULL;
 8003982:	2300      	movs	r3, #0
 8003984:	f8c0 32b4 	str.w	r3, [r0, #692]	; 0x2b4
  }

  /* Assign USBD Descriptors */
  if (pdesc != NULL)
 8003988:	b109      	cbz	r1, 800398e <USBD_Init+0x16>
  {
    pdev->pDesc = pdesc;
 800398a:	f8c0 12b0 	str.w	r1, [r0, #688]	; 0x2b0
  }

  /* Set Device initial State */
  pdev->dev_state = USBD_STATE_DEFAULT;
 800398e:	2301      	movs	r3, #1
  pdev->id = id;
 8003990:	7002      	strb	r2, [r0, #0]
  pdev->dev_state = USBD_STATE_DEFAULT;
 8003992:	f880 329c 	strb.w	r3, [r0, #668]	; 0x29c
  /* Initialize low level driver */
  USBD_LL_Init(pdev);
 8003996:	f000 fd61 	bl	800445c <USBD_LL_Init>

  return USBD_OK;
 800399a:	2000      	movs	r0, #0
}
 800399c:	bd08      	pop	{r3, pc}
    return USBD_FAIL;
 800399e:	2002      	movs	r0, #2
}
 80039a0:	4770      	bx	lr
 80039a2:	bf00      	nop

080039a4 <USBD_RegisterClass>:
  * @retval USBD Status
  */
USBD_StatusTypeDef  USBD_RegisterClass(USBD_HandleTypeDef *pdev, USBD_ClassTypeDef *pclass)
{
  USBD_StatusTypeDef status = USBD_OK;
  if (pclass != NULL)
 80039a4:	b119      	cbz	r1, 80039ae <USBD_RegisterClass+0xa>
  {
    /* link the class to the USB Device handle */
    pdev->pClass = pclass;
 80039a6:	f8c0 12b4 	str.w	r1, [r0, #692]	; 0x2b4
    status = USBD_OK;
 80039aa:	2000      	movs	r0, #0
 80039ac:	4770      	bx	lr
  else
  {
#if (USBD_DEBUG_LEVEL > 1U)
    USBD_ErrLog("Invalid Class handle");
#endif
    status = USBD_FAIL;
 80039ae:	2002      	movs	r0, #2
  }

  return status;
}
 80039b0:	4770      	bx	lr
 80039b2:	bf00      	nop

080039b4 <USBD_Start>:
  *         Start the USB Device Core.
  * @param  pdev: Device Handle
  * @retval USBD Status
  */
USBD_StatusTypeDef  USBD_Start(USBD_HandleTypeDef *pdev)
{
 80039b4:	b508      	push	{r3, lr}
  /* Start the low level driver  */
  USBD_LL_Start(pdev);
 80039b6:	f000 fd93 	bl	80044e0 <USBD_LL_Start>

  return USBD_OK;
}
 80039ba:	2000      	movs	r0, #0
 80039bc:	bd08      	pop	{r3, pc}
 80039be:	bf00      	nop

080039c0 <USBD_SetClassConfig>:
* @param  cfgidx: configuration index
* @retval status
*/

USBD_StatusTypeDef USBD_SetClassConfig(USBD_HandleTypeDef  *pdev, uint8_t cfgidx)
{
 80039c0:	b508      	push	{r3, lr}
  USBD_StatusTypeDef ret = USBD_FAIL;

  if (pdev->pClass != NULL)
 80039c2:	f8d0 32b4 	ldr.w	r3, [r0, #692]	; 0x2b4
 80039c6:	b11b      	cbz	r3, 80039d0 <USBD_SetClassConfig+0x10>
  {
    /* Set configuration  and Start the Class*/
    if (pdev->pClass->Init(pdev, cfgidx) == 0U)
 80039c8:	681b      	ldr	r3, [r3, #0]
 80039ca:	4798      	blx	r3
 80039cc:	b900      	cbnz	r0, 80039d0 <USBD_SetClassConfig+0x10>
      ret = USBD_OK;
    }
  }

  return ret;
}
 80039ce:	bd08      	pop	{r3, pc}
  USBD_StatusTypeDef ret = USBD_FAIL;
 80039d0:	2002      	movs	r0, #2
}
 80039d2:	bd08      	pop	{r3, pc}

080039d4 <USBD_ClrClassConfig>:
* @param  pdev: device instance
* @param  cfgidx: configuration index
* @retval status: USBD_StatusTypeDef
*/
USBD_StatusTypeDef USBD_ClrClassConfig(USBD_HandleTypeDef  *pdev, uint8_t cfgidx)
{
 80039d4:	b508      	push	{r3, lr}
  /* Clear configuration  and De-initialize the Class process*/
  pdev->pClass->DeInit(pdev, cfgidx);
 80039d6:	f8d0 32b4 	ldr.w	r3, [r0, #692]	; 0x2b4
 80039da:	685b      	ldr	r3, [r3, #4]
 80039dc:	4798      	blx	r3

  return USBD_OK;
}
 80039de:	2000      	movs	r0, #0
 80039e0:	bd08      	pop	{r3, pc}
 80039e2:	bf00      	nop

080039e4 <USBD_LL_SetupStage>:
*         Handle the setup stage
* @param  pdev: device instance
* @retval status
*/
USBD_StatusTypeDef USBD_LL_SetupStage(USBD_HandleTypeDef *pdev, uint8_t *psetup)
{
 80039e4:	b538      	push	{r3, r4, r5, lr}
 80039e6:	4604      	mov	r4, r0
  USBD_ParseSetupRequest(&pdev->request, psetup);
 80039e8:	f500 752a 	add.w	r5, r0, #680	; 0x2a8
 80039ec:	4628      	mov	r0, r5
 80039ee:	f000 fb59 	bl	80040a4 <USBD_ParseSetupRequest>

  pdev->ep0_state = USBD_EP0_SETUP;
 80039f2:	2001      	movs	r0, #1

  pdev->ep0_data_len = pdev->request.wLength;

  switch (pdev->request.bmRequest & 0x1FU)
 80039f4:	f894 12a8 	ldrb.w	r1, [r4, #680]	; 0x2a8
  pdev->ep0_data_len = pdev->request.wLength;
 80039f8:	f8b4 22ae 	ldrh.w	r2, [r4, #686]	; 0x2ae
 80039fc:	f001 031f 	and.w	r3, r1, #31
  switch (pdev->request.bmRequest & 0x1FU)
 8003a00:	4283      	cmp	r3, r0
  pdev->ep0_data_len = pdev->request.wLength;
 8003a02:	e9c4 02a5 	strd	r0, r2, [r4, #660]	; 0x294
  switch (pdev->request.bmRequest & 0x1FU)
 8003a06:	d009      	beq.n	8003a1c <USBD_LL_SetupStage+0x38>
 8003a08:	2b02      	cmp	r3, #2
 8003a0a:	d013      	beq.n	8003a34 <USBD_LL_SetupStage+0x50>
 8003a0c:	b163      	cbz	r3, 8003a28 <USBD_LL_SetupStage+0x44>
    case USB_REQ_RECIPIENT_ENDPOINT:
      USBD_StdEPReq(pdev, &pdev->request);
      break;

    default:
      USBD_LL_StallEP(pdev, (pdev->request.bmRequest & 0x80U));
 8003a0e:	4620      	mov	r0, r4
 8003a10:	f001 0180 	and.w	r1, r1, #128	; 0x80
 8003a14:	f000 fd90 	bl	8004538 <USBD_LL_StallEP>
      break;
  }

  return USBD_OK;
}
 8003a18:	2000      	movs	r0, #0
 8003a1a:	bd38      	pop	{r3, r4, r5, pc}
      USBD_StdItfReq(pdev, &pdev->request);
 8003a1c:	4629      	mov	r1, r5
 8003a1e:	4620      	mov	r0, r4
 8003a20:	f000 fa74 	bl	8003f0c <USBD_StdItfReq>
}
 8003a24:	2000      	movs	r0, #0
 8003a26:	bd38      	pop	{r3, r4, r5, pc}
      USBD_StdDevReq(pdev, &pdev->request);
 8003a28:	4629      	mov	r1, r5
 8003a2a:	4620      	mov	r0, r4
 8003a2c:	f000 f8f4 	bl	8003c18 <USBD_StdDevReq>
}
 8003a30:	2000      	movs	r0, #0
 8003a32:	bd38      	pop	{r3, r4, r5, pc}
      USBD_StdEPReq(pdev, &pdev->request);
 8003a34:	4629      	mov	r1, r5
 8003a36:	4620      	mov	r0, r4
 8003a38:	f000 fa9c 	bl	8003f74 <USBD_StdEPReq>
}
 8003a3c:	2000      	movs	r0, #0
 8003a3e:	bd38      	pop	{r3, r4, r5, pc}

08003a40 <USBD_LL_DataOutStage>:
* @param  epnum: endpoint index
* @retval status
*/
USBD_StatusTypeDef USBD_LL_DataOutStage(USBD_HandleTypeDef *pdev,
                                        uint8_t epnum, uint8_t *pdata)
{
 8003a40:	b538      	push	{r3, r4, r5, lr}
 8003a42:	4605      	mov	r5, r0
  USBD_EndpointTypeDef *pep;

  if (epnum == 0U)
 8003a44:	b969      	cbnz	r1, 8003a62 <USBD_LL_DataOutStage+0x22>
 8003a46:	4613      	mov	r3, r2
  {
    pep = &pdev->ep_out[0];

    if (pdev->ep0_state == USBD_EP0_DATA_OUT)
 8003a48:	f8d0 2294 	ldr.w	r2, [r0, #660]	; 0x294
 8003a4c:	2a03      	cmp	r2, #3
 8003a4e:	d015      	beq.n	8003a7c <USBD_LL_DataOutStage+0x3c>
        USBD_CtlSendStatus(pdev);
      }
    }
    else
    {
      if (pdev->ep0_state == USBD_EP0_STATUS_OUT)
 8003a50:	2a05      	cmp	r2, #5
 8003a52:	460c      	mov	r4, r1
 8003a54:	d10e      	bne.n	8003a74 <USBD_LL_DataOutStage+0x34>
      {
        /*
         * STATUS PHASE completed, update ep0_state to idle
         */
        pdev->ep0_state = USBD_EP0_IDLE;
 8003a56:	f8c5 1294 	str.w	r1, [r5, #660]	; 0x294
        USBD_LL_StallEP(pdev, 0U);
 8003a5a:	f000 fd6d 	bl	8004538 <USBD_LL_StallEP>
  {
    /* should never be in this condition */
    return USBD_FAIL;
  }

  return USBD_OK;
 8003a5e:	4620      	mov	r0, r4
}
 8003a60:	bd38      	pop	{r3, r4, r5, pc}
  else if ((pdev->pClass->DataOut != NULL) &&
 8003a62:	f8d0 32b4 	ldr.w	r3, [r0, #692]	; 0x2b4
 8003a66:	699b      	ldr	r3, [r3, #24]
 8003a68:	b133      	cbz	r3, 8003a78 <USBD_LL_DataOutStage+0x38>
 8003a6a:	f890 229c 	ldrb.w	r2, [r0, #668]	; 0x29c
 8003a6e:	2a03      	cmp	r2, #3
 8003a70:	d102      	bne.n	8003a78 <USBD_LL_DataOutStage+0x38>
    pdev->pClass->DataOut(pdev, epnum);
 8003a72:	4798      	blx	r3
  return USBD_OK;
 8003a74:	2000      	movs	r0, #0
}
 8003a76:	bd38      	pop	{r3, r4, r5, pc}
    return USBD_FAIL;
 8003a78:	2002      	movs	r0, #2
}
 8003a7a:	bd38      	pop	{r3, r4, r5, pc}
      if (pep->rem_length > pep->maxpacket)
 8003a7c:	e9d0 1258 	ldrd	r1, r2, [r0, #352]	; 0x160
 8003a80:	4291      	cmp	r1, r2
 8003a82:	d90c      	bls.n	8003a9e <USBD_LL_DataOutStage+0x5e>
        pep->rem_length -= pep->maxpacket;
 8003a84:	1a89      	subs	r1, r1, r2
        USBD_CtlContinueRx(pdev, pdata,
 8003a86:	428a      	cmp	r2, r1
 8003a88:	bf88      	it	hi
 8003a8a:	b28a      	uxthhi	r2, r1
        pep->rem_length -= pep->maxpacket;
 8003a8c:	f8c0 1160 	str.w	r1, [r0, #352]	; 0x160
        USBD_CtlContinueRx(pdev, pdata,
 8003a90:	bf98      	it	ls
 8003a92:	b292      	uxthls	r2, r2
 8003a94:	4619      	mov	r1, r3
 8003a96:	f000 fb57 	bl	8004148 <USBD_CtlContinueRx>
  return USBD_OK;
 8003a9a:	2000      	movs	r0, #0
}
 8003a9c:	bd38      	pop	{r3, r4, r5, pc}
        if ((pdev->pClass->EP0_RxReady != NULL) &&
 8003a9e:	f8d0 32b4 	ldr.w	r3, [r0, #692]	; 0x2b4
 8003aa2:	691b      	ldr	r3, [r3, #16]
 8003aa4:	b11b      	cbz	r3, 8003aae <USBD_LL_DataOutStage+0x6e>
 8003aa6:	f890 229c 	ldrb.w	r2, [r0, #668]	; 0x29c
 8003aaa:	2a03      	cmp	r2, #3
 8003aac:	d004      	beq.n	8003ab8 <USBD_LL_DataOutStage+0x78>
        USBD_CtlSendStatus(pdev);
 8003aae:	4628      	mov	r0, r5
 8003ab0:	f000 fb54 	bl	800415c <USBD_CtlSendStatus>
  return USBD_OK;
 8003ab4:	2000      	movs	r0, #0
}
 8003ab6:	bd38      	pop	{r3, r4, r5, pc}
          pdev->pClass->EP0_RxReady(pdev);
 8003ab8:	4798      	blx	r3
 8003aba:	e7f8      	b.n	8003aae <USBD_LL_DataOutStage+0x6e>

08003abc <USBD_LL_DataInStage>:
* @param  epnum: endpoint index
* @retval status
*/
USBD_StatusTypeDef USBD_LL_DataInStage(USBD_HandleTypeDef *pdev,
                                       uint8_t epnum, uint8_t *pdata)
{
 8003abc:	b570      	push	{r4, r5, r6, lr}
 8003abe:	4604      	mov	r4, r0
  USBD_EndpointTypeDef *pep;

  if (epnum == 0U)
 8003ac0:	b981      	cbnz	r1, 8003ae4 <USBD_LL_DataInStage+0x28>
 8003ac2:	4613      	mov	r3, r2
  {
    pep = &pdev->ep_in[0];

    if (pdev->ep0_state == USBD_EP0_DATA_IN)
 8003ac4:	f8d0 2294 	ldr.w	r2, [r0, #660]	; 0x294
 8003ac8:	2a02      	cmp	r2, #2
 8003aca:	d01b      	beq.n	8003b04 <USBD_LL_DataInStage+0x48>
        }
      }
    }
    else
    {
      if ((pdev->ep0_state == USBD_EP0_STATUS_IN) ||
 8003acc:	f032 0304 	bics.w	r3, r2, #4
 8003ad0:	d102      	bne.n	8003ad8 <USBD_LL_DataInStage+0x1c>
          (pdev->ep0_state == USBD_EP0_IDLE))
      {
        USBD_LL_StallEP(pdev, 0x80U);
 8003ad2:	2180      	movs	r1, #128	; 0x80
 8003ad4:	f000 fd30 	bl	8004538 <USBD_LL_StallEP>
      }
    }

    if (pdev->dev_test_mode == 1U)
 8003ad8:	f894 32a0 	ldrb.w	r3, [r4, #672]	; 0x2a0
    {
      USBD_RunTestMode(pdev);
      pdev->dev_test_mode = 0U;
 8003adc:	2000      	movs	r0, #0
    if (pdev->dev_test_mode == 1U)
 8003ade:	2b01      	cmp	r3, #1
 8003ae0:	d00d      	beq.n	8003afe <USBD_LL_DataInStage+0x42>
    /* should never be in this condition */
    return USBD_FAIL;
  }

  return USBD_OK;
}
 8003ae2:	bd70      	pop	{r4, r5, r6, pc}
  else if ((pdev->pClass->DataIn != NULL) &&
 8003ae4:	f8d0 32b4 	ldr.w	r3, [r0, #692]	; 0x2b4
 8003ae8:	695b      	ldr	r3, [r3, #20]
 8003aea:	b133      	cbz	r3, 8003afa <USBD_LL_DataInStage+0x3e>
 8003aec:	f890 229c 	ldrb.w	r2, [r0, #668]	; 0x29c
 8003af0:	2a03      	cmp	r2, #3
 8003af2:	d102      	bne.n	8003afa <USBD_LL_DataInStage+0x3e>
    pdev->pClass->DataIn(pdev, epnum);
 8003af4:	4798      	blx	r3
  return USBD_OK;
 8003af6:	2000      	movs	r0, #0
}
 8003af8:	bd70      	pop	{r4, r5, r6, pc}
    return USBD_FAIL;
 8003afa:	2002      	movs	r0, #2
}
 8003afc:	bd70      	pop	{r4, r5, r6, pc}
      pdev->dev_test_mode = 0U;
 8003afe:	f884 02a0 	strb.w	r0, [r4, #672]	; 0x2a0
}
 8003b02:	bd70      	pop	{r4, r5, r6, pc}
      if (pep->rem_length > pep->maxpacket)
 8003b04:	e9d0 2608 	ldrd	r2, r6, [r0, #32]
 8003b08:	42b2      	cmp	r2, r6
 8003b0a:	d826      	bhi.n	8003b5a <USBD_LL_DataInStage+0x9e>
        if ((pep->total_length % pep->maxpacket == 0U) &&
 8003b0c:	69c3      	ldr	r3, [r0, #28]
 8003b0e:	fbb3 f5f6 	udiv	r5, r3, r6
 8003b12:	fb06 3515 	mls	r5, r6, r5, r3
 8003b16:	b95d      	cbnz	r5, 8003b30 <USBD_LL_DataInStage+0x74>
 8003b18:	429e      	cmp	r6, r3
 8003b1a:	d809      	bhi.n	8003b30 <USBD_LL_DataInStage+0x74>
            (pep->total_length >= pep->maxpacket) &&
 8003b1c:	f8d0 2298 	ldr.w	r2, [r0, #664]	; 0x298
 8003b20:	4293      	cmp	r3, r2
 8003b22:	d205      	bcs.n	8003b30 <USBD_LL_DataInStage+0x74>
          USBD_CtlContinueSendData(pdev, NULL, 0U);
 8003b24:	462a      	mov	r2, r5
 8003b26:	f000 fb05 	bl	8004134 <USBD_CtlContinueSendData>
          pdev->ep0_data_len = 0U;
 8003b2a:	f8c4 5298 	str.w	r5, [r4, #664]	; 0x298
 8003b2e:	e01b      	b.n	8003b68 <USBD_LL_DataInStage+0xac>
          if ((pdev->pClass->EP0_TxSent != NULL) &&
 8003b30:	f8d4 32b4 	ldr.w	r3, [r4, #692]	; 0x2b4
 8003b34:	68db      	ldr	r3, [r3, #12]
 8003b36:	b11b      	cbz	r3, 8003b40 <USBD_LL_DataInStage+0x84>
 8003b38:	f894 229c 	ldrb.w	r2, [r4, #668]	; 0x29c
 8003b3c:	2a03      	cmp	r2, #3
 8003b3e:	d01a      	beq.n	8003b76 <USBD_LL_DataInStage+0xba>
          USBD_LL_StallEP(pdev, 0x80U);
 8003b40:	2180      	movs	r1, #128	; 0x80
 8003b42:	4620      	mov	r0, r4
 8003b44:	f000 fcf8 	bl	8004538 <USBD_LL_StallEP>
          USBD_CtlReceiveStatus(pdev);
 8003b48:	4620      	mov	r0, r4
 8003b4a:	f000 fb13 	bl	8004174 <USBD_CtlReceiveStatus>
    if (pdev->dev_test_mode == 1U)
 8003b4e:	f894 32a0 	ldrb.w	r3, [r4, #672]	; 0x2a0
      pdev->dev_test_mode = 0U;
 8003b52:	2000      	movs	r0, #0
    if (pdev->dev_test_mode == 1U)
 8003b54:	2b01      	cmp	r3, #1
 8003b56:	d1c4      	bne.n	8003ae2 <USBD_LL_DataInStage+0x26>
 8003b58:	e7d1      	b.n	8003afe <USBD_LL_DataInStage+0x42>
        pep->rem_length -= pep->maxpacket;
 8003b5a:	1b92      	subs	r2, r2, r6
 8003b5c:	460d      	mov	r5, r1
 8003b5e:	6202      	str	r2, [r0, #32]
        USBD_CtlContinueSendData(pdev, pdata, (uint16_t)pep->rem_length);
 8003b60:	4619      	mov	r1, r3
 8003b62:	b292      	uxth	r2, r2
 8003b64:	f000 fae6 	bl	8004134 <USBD_CtlContinueSendData>
          USBD_LL_PrepareReceive(pdev, 0U, NULL, 0U);
 8003b68:	462b      	mov	r3, r5
 8003b6a:	462a      	mov	r2, r5
 8003b6c:	4629      	mov	r1, r5
 8003b6e:	4620      	mov	r0, r4
 8003b70:	f000 fd2e 	bl	80045d0 <USBD_LL_PrepareReceive>
 8003b74:	e7b0      	b.n	8003ad8 <USBD_LL_DataInStage+0x1c>
            pdev->pClass->EP0_TxSent(pdev);
 8003b76:	4620      	mov	r0, r4
 8003b78:	4798      	blx	r3
 8003b7a:	e7e1      	b.n	8003b40 <USBD_LL_DataInStage+0x84>

08003b7c <USBD_LL_Reset>:
* @param  pdev: device instance
* @retval status
*/

USBD_StatusTypeDef USBD_LL_Reset(USBD_HandleTypeDef *pdev)
{
 8003b7c:	b570      	push	{r4, r5, r6, lr}
  /* Open EP0 OUT */
  USBD_LL_OpenEP(pdev, 0x00U, USBD_EP_TYPE_CTRL, USB_MAX_EP0_SIZE);
 8003b7e:	2200      	movs	r2, #0
  pdev->ep_out[0x00U & 0xFU].is_used = 1U;

  pdev->ep_out[0].maxpacket = USB_MAX_EP0_SIZE;
 8003b80:	2640      	movs	r6, #64	; 0x40
{
 8003b82:	4604      	mov	r4, r0
  pdev->ep_out[0x00U & 0xFU].is_used = 1U;
 8003b84:	2501      	movs	r5, #1
  USBD_LL_OpenEP(pdev, 0x00U, USBD_EP_TYPE_CTRL, USB_MAX_EP0_SIZE);
 8003b86:	4611      	mov	r1, r2
 8003b88:	4633      	mov	r3, r6
 8003b8a:	f000 fcb7 	bl	80044fc <USBD_LL_OpenEP>

  /* Open EP0 IN */
  USBD_LL_OpenEP(pdev, 0x80U, USBD_EP_TYPE_CTRL, USB_MAX_EP0_SIZE);
 8003b8e:	4633      	mov	r3, r6
 8003b90:	2180      	movs	r1, #128	; 0x80
 8003b92:	4620      	mov	r0, r4
 8003b94:	2200      	movs	r2, #0
  pdev->ep_out[0x00U & 0xFU].is_used = 1U;
 8003b96:	f8c4 5158 	str.w	r5, [r4, #344]	; 0x158
  pdev->ep_out[0].maxpacket = USB_MAX_EP0_SIZE;
 8003b9a:	f8c4 6164 	str.w	r6, [r4, #356]	; 0x164
  USBD_LL_OpenEP(pdev, 0x80U, USBD_EP_TYPE_CTRL, USB_MAX_EP0_SIZE);
 8003b9e:	f000 fcad 	bl	80044fc <USBD_LL_OpenEP>

  pdev->ep_in[0].maxpacket = USB_MAX_EP0_SIZE;

  /* Upon Reset call user call back */
  pdev->dev_state = USBD_STATE_DEFAULT;
  pdev->ep0_state = USBD_EP0_IDLE;
 8003ba2:	2100      	movs	r1, #0
  pdev->dev_config = 0U;
  pdev->dev_remote_wakeup = 0U;

  if (pdev->pClassData)
 8003ba4:	f8d4 32b8 	ldr.w	r3, [r4, #696]	; 0x2b8
  pdev->ep_in[0x80U & 0xFU].is_used = 1U;
 8003ba8:	61a5      	str	r5, [r4, #24]
  pdev->ep_in[0].maxpacket = USB_MAX_EP0_SIZE;
 8003baa:	6266      	str	r6, [r4, #36]	; 0x24
  pdev->dev_state = USBD_STATE_DEFAULT;
 8003bac:	f884 529c 	strb.w	r5, [r4, #668]	; 0x29c
  pdev->ep0_state = USBD_EP0_IDLE;
 8003bb0:	f8c4 1294 	str.w	r1, [r4, #660]	; 0x294
  pdev->dev_config = 0U;
 8003bb4:	6061      	str	r1, [r4, #4]
  pdev->dev_remote_wakeup = 0U;
 8003bb6:	f8c4 12a4 	str.w	r1, [r4, #676]	; 0x2a4
  if (pdev->pClassData)
 8003bba:	b123      	cbz	r3, 8003bc6 <USBD_LL_Reset+0x4a>
  {
    pdev->pClass->DeInit(pdev, (uint8_t)pdev->dev_config);
 8003bbc:	f8d4 32b4 	ldr.w	r3, [r4, #692]	; 0x2b4
 8003bc0:	4620      	mov	r0, r4
 8003bc2:	685b      	ldr	r3, [r3, #4]
 8003bc4:	4798      	blx	r3
  }

  return USBD_OK;
}
 8003bc6:	2000      	movs	r0, #0
 8003bc8:	bd70      	pop	{r4, r5, r6, pc}
 8003bca:	bf00      	nop

08003bcc <USBD_LL_SetSpeed>:
* @param  pdev: device instance
* @retval status
*/
USBD_StatusTypeDef USBD_LL_SetSpeed(USBD_HandleTypeDef *pdev,
                                    USBD_SpeedTypeDef speed)
{
 8003bcc:	4603      	mov	r3, r0
  pdev->dev_speed = speed;

  return USBD_OK;
}
 8003bce:	2000      	movs	r0, #0
  pdev->dev_speed = speed;
 8003bd0:	7419      	strb	r1, [r3, #16]
}
 8003bd2:	4770      	bx	lr

08003bd4 <USBD_LL_Suspend>:
* @param  pdev: device instance
* @retval status
*/

USBD_StatusTypeDef USBD_LL_Suspend(USBD_HandleTypeDef *pdev)
{
 8003bd4:	4603      	mov	r3, r0
  pdev->dev_old_state =  pdev->dev_state;
  pdev->dev_state  = USBD_STATE_SUSPENDED;
 8003bd6:	2204      	movs	r2, #4
  pdev->dev_old_state =  pdev->dev_state;
 8003bd8:	f890 129c 	ldrb.w	r1, [r0, #668]	; 0x29c

  return USBD_OK;
}
 8003bdc:	2000      	movs	r0, #0
  pdev->dev_old_state =  pdev->dev_state;
 8003bde:	f883 129d 	strb.w	r1, [r3, #669]	; 0x29d
  pdev->dev_state  = USBD_STATE_SUSPENDED;
 8003be2:	f883 229c 	strb.w	r2, [r3, #668]	; 0x29c
}
 8003be6:	4770      	bx	lr

08003be8 <USBD_LL_Resume>:
* @retval status
*/

USBD_StatusTypeDef USBD_LL_Resume(USBD_HandleTypeDef *pdev)
{
  if (pdev->dev_state == USBD_STATE_SUSPENDED)
 8003be8:	f890 329c 	ldrb.w	r3, [r0, #668]	; 0x29c
 8003bec:	2b04      	cmp	r3, #4
  {
    pdev->dev_state = pdev->dev_old_state;
 8003bee:	bf04      	itt	eq
 8003bf0:	f890 329d 	ldrbeq.w	r3, [r0, #669]	; 0x29d
 8003bf4:	f880 329c 	strbeq.w	r3, [r0, #668]	; 0x29c
  }

  return USBD_OK;
}
 8003bf8:	2000      	movs	r0, #0
 8003bfa:	4770      	bx	lr

08003bfc <USBD_LL_SOF>:
* @retval status
*/

USBD_StatusTypeDef USBD_LL_SOF(USBD_HandleTypeDef *pdev)
{
  if (pdev->dev_state == USBD_STATE_CONFIGURED)
 8003bfc:	f890 229c 	ldrb.w	r2, [r0, #668]	; 0x29c
 8003c00:	2a03      	cmp	r2, #3
 8003c02:	d001      	beq.n	8003c08 <USBD_LL_SOF+0xc>
      pdev->pClass->SOF(pdev);
    }
  }

  return USBD_OK;
}
 8003c04:	2000      	movs	r0, #0
 8003c06:	4770      	bx	lr
{
 8003c08:	b508      	push	{r3, lr}
    if (pdev->pClass->SOF != NULL)
 8003c0a:	f8d0 32b4 	ldr.w	r3, [r0, #692]	; 0x2b4
 8003c0e:	69db      	ldr	r3, [r3, #28]
 8003c10:	b103      	cbz	r3, 8003c14 <USBD_LL_SOF+0x18>
      pdev->pClass->SOF(pdev);
 8003c12:	4798      	blx	r3
}
 8003c14:	2000      	movs	r0, #0
 8003c16:	bd08      	pop	{r3, pc}

08003c18 <USBD_StdDevReq>:
* @param  req: usb request
* @retval status
*/
USBD_StatusTypeDef  USBD_StdDevReq(USBD_HandleTypeDef *pdev,
                                   USBD_SetupReqTypedef *req)
{
 8003c18:	b530      	push	{r4, r5, lr}
 8003c1a:	780b      	ldrb	r3, [r1, #0]
 8003c1c:	460d      	mov	r5, r1
 8003c1e:	f003 0360 	and.w	r3, r3, #96	; 0x60
  USBD_StatusTypeDef ret = USBD_OK;

  switch (req->bmRequest & USB_REQ_TYPE_MASK)
 8003c22:	2b20      	cmp	r3, #32
{
 8003c24:	4604      	mov	r4, r0
 8003c26:	b083      	sub	sp, #12
  switch (req->bmRequest & USB_REQ_TYPE_MASK)
 8003c28:	d00d      	beq.n	8003c46 <USBD_StdDevReq+0x2e>
 8003c2a:	2b40      	cmp	r3, #64	; 0x40
 8003c2c:	d00b      	beq.n	8003c46 <USBD_StdDevReq+0x2e>
 8003c2e:	b19b      	cbz	r3, 8003c58 <USBD_StdDevReq+0x40>
*/

void USBD_CtlError(USBD_HandleTypeDef *pdev,
                   USBD_SetupReqTypedef *req)
{
  USBD_LL_StallEP(pdev, 0x80U);
 8003c30:	2180      	movs	r1, #128	; 0x80
 8003c32:	4620      	mov	r0, r4
 8003c34:	f000 fc80 	bl	8004538 <USBD_LL_StallEP>
  USBD_LL_StallEP(pdev, 0U);
 8003c38:	4620      	mov	r0, r4
 8003c3a:	2100      	movs	r1, #0
 8003c3c:	f000 fc7c 	bl	8004538 <USBD_LL_StallEP>
}
 8003c40:	2000      	movs	r0, #0
 8003c42:	b003      	add	sp, #12
 8003c44:	bd30      	pop	{r4, r5, pc}
      pdev->pClass->Setup(pdev, req);
 8003c46:	f8d4 32b4 	ldr.w	r3, [r4, #692]	; 0x2b4
 8003c4a:	4629      	mov	r1, r5
 8003c4c:	4620      	mov	r0, r4
 8003c4e:	689b      	ldr	r3, [r3, #8]
 8003c50:	4798      	blx	r3
}
 8003c52:	2000      	movs	r0, #0
 8003c54:	b003      	add	sp, #12
 8003c56:	bd30      	pop	{r4, r5, pc}
      switch (req->bRequest)
 8003c58:	784b      	ldrb	r3, [r1, #1]
 8003c5a:	2b09      	cmp	r3, #9
 8003c5c:	d8e8      	bhi.n	8003c30 <USBD_StdDevReq+0x18>
 8003c5e:	a201      	add	r2, pc, #4	; (adr r2, 8003c64 <USBD_StdDevReq+0x4c>)
 8003c60:	f852 f023 	ldr.w	pc, [r2, r3, lsl #2]
 8003c64:	08003cbf 	.word	0x08003cbf
 8003c68:	08003ceb 	.word	0x08003ceb
 8003c6c:	08003c31 	.word	0x08003c31
 8003c70:	08003d07 	.word	0x08003d07
 8003c74:	08003c31 	.word	0x08003c31
 8003c78:	08003d19 	.word	0x08003d19
 8003c7c:	08003d53 	.word	0x08003d53
 8003c80:	08003c31 	.word	0x08003c31
 8003c84:	08003d89 	.word	0x08003d89
 8003c88:	08003c8d 	.word	0x08003c8d
  cfgidx = (uint8_t)(req->wValue);
 8003c8c:	7889      	ldrb	r1, [r1, #2]
 8003c8e:	4d9e      	ldr	r5, [pc, #632]	; (8003f08 <USBD_StdDevReq+0x2f0>)
  if (cfgidx > USBD_MAX_NUM_CONFIGURATION)
 8003c90:	2901      	cmp	r1, #1
  cfgidx = (uint8_t)(req->wValue);
 8003c92:	7029      	strb	r1, [r5, #0]
  if (cfgidx > USBD_MAX_NUM_CONFIGURATION)
 8003c94:	d8cc      	bhi.n	8003c30 <USBD_StdDevReq+0x18>
    switch (pdev->dev_state)
 8003c96:	f890 329c 	ldrb.w	r3, [r0, #668]	; 0x29c
 8003c9a:	2b02      	cmp	r3, #2
 8003c9c:	f000 810f 	beq.w	8003ebe <USBD_StdDevReq+0x2a6>
 8003ca0:	2b03      	cmp	r3, #3
 8003ca2:	f000 80fb 	beq.w	8003e9c <USBD_StdDevReq+0x284>
  USBD_LL_StallEP(pdev, 0x80U);
 8003ca6:	2180      	movs	r1, #128	; 0x80
 8003ca8:	f000 fc46 	bl	8004538 <USBD_LL_StallEP>
  USBD_LL_StallEP(pdev, 0U);
 8003cac:	2100      	movs	r1, #0
 8003cae:	4620      	mov	r0, r4
 8003cb0:	f000 fc42 	bl	8004538 <USBD_LL_StallEP>
        USBD_ClrClassConfig(pdev, cfgidx);
 8003cb4:	4620      	mov	r0, r4
 8003cb6:	7829      	ldrb	r1, [r5, #0]
 8003cb8:	f7ff fe8c 	bl	80039d4 <USBD_ClrClassConfig>
        break;
 8003cbc:	e7c0      	b.n	8003c40 <USBD_StdDevReq+0x28>
  switch (pdev->dev_state)
 8003cbe:	f890 329c 	ldrb.w	r3, [r0, #668]	; 0x29c
 8003cc2:	3b01      	subs	r3, #1
 8003cc4:	2b02      	cmp	r3, #2
 8003cc6:	d8b3      	bhi.n	8003c30 <USBD_StdDevReq+0x18>
      if (req->wLength != 0x2U)
 8003cc8:	88cb      	ldrh	r3, [r1, #6]
 8003cca:	2b02      	cmp	r3, #2
 8003ccc:	d1b0      	bne.n	8003c30 <USBD_StdDevReq+0x18>
      pdev->dev_config_status = USB_CONFIG_SELF_POWERED;
 8003cce:	2201      	movs	r2, #1
      if (pdev->dev_remote_wakeup)
 8003cd0:	f8d0 32a4 	ldr.w	r3, [r0, #676]	; 0x2a4
      pdev->dev_config_status = USB_CONFIG_SELF_POWERED;
 8003cd4:	60c2      	str	r2, [r0, #12]
      if (pdev->dev_remote_wakeup)
 8003cd6:	b10b      	cbz	r3, 8003cdc <USBD_StdDevReq+0xc4>
        pdev->dev_config_status |= USB_CONFIG_REMOTE_WAKEUP;
 8003cd8:	2303      	movs	r3, #3
 8003cda:	60c3      	str	r3, [r0, #12]
      USBD_CtlSendData(pdev, (uint8_t *)(void *)&pdev->dev_config_status, 2U);
 8003cdc:	2202      	movs	r2, #2
 8003cde:	4620      	mov	r0, r4
 8003ce0:	f104 010c 	add.w	r1, r4, #12
 8003ce4:	f000 fa18 	bl	8004118 <USBD_CtlSendData>
      break;
 8003ce8:	e7aa      	b.n	8003c40 <USBD_StdDevReq+0x28>
  switch (pdev->dev_state)
 8003cea:	f890 329c 	ldrb.w	r3, [r0, #668]	; 0x29c
 8003cee:	3b01      	subs	r3, #1
 8003cf0:	2b02      	cmp	r3, #2
 8003cf2:	d89d      	bhi.n	8003c30 <USBD_StdDevReq+0x18>
      if (req->wValue == USB_FEATURE_REMOTE_WAKEUP)
 8003cf4:	884b      	ldrh	r3, [r1, #2]
 8003cf6:	2b01      	cmp	r3, #1
 8003cf8:	d1a2      	bne.n	8003c40 <USBD_StdDevReq+0x28>
        pdev->dev_remote_wakeup = 0U;
 8003cfa:	2300      	movs	r3, #0
 8003cfc:	f8c0 32a4 	str.w	r3, [r0, #676]	; 0x2a4
        USBD_CtlSendStatus(pdev);
 8003d00:	f000 fa2c 	bl	800415c <USBD_CtlSendStatus>
 8003d04:	e79c      	b.n	8003c40 <USBD_StdDevReq+0x28>
  if (req->wValue == USB_FEATURE_REMOTE_WAKEUP)
 8003d06:	884b      	ldrh	r3, [r1, #2]
 8003d08:	2b01      	cmp	r3, #1
 8003d0a:	d199      	bne.n	8003c40 <USBD_StdDevReq+0x28>
    pdev->dev_remote_wakeup = 1U;
 8003d0c:	f8c0 32a4 	str.w	r3, [r0, #676]	; 0x2a4
    USBD_CtlSendStatus(pdev);
 8003d10:	4620      	mov	r0, r4
 8003d12:	f000 fa23 	bl	800415c <USBD_CtlSendStatus>
 8003d16:	e793      	b.n	8003c40 <USBD_StdDevReq+0x28>
  if ((req->wIndex == 0U) && (req->wLength == 0U) && (req->wValue < 128U))
 8003d18:	888b      	ldrh	r3, [r1, #4]
 8003d1a:	2b00      	cmp	r3, #0
 8003d1c:	d188      	bne.n	8003c30 <USBD_StdDevReq+0x18>
 8003d1e:	88cb      	ldrh	r3, [r1, #6]
 8003d20:	2b00      	cmp	r3, #0
 8003d22:	d185      	bne.n	8003c30 <USBD_StdDevReq+0x18>
 8003d24:	884d      	ldrh	r5, [r1, #2]
 8003d26:	2d7f      	cmp	r5, #127	; 0x7f
 8003d28:	d882      	bhi.n	8003c30 <USBD_StdDevReq+0x18>
    if (pdev->dev_state == USBD_STATE_CONFIGURED)
 8003d2a:	f890 329c 	ldrb.w	r3, [r0, #668]	; 0x29c
 8003d2e:	2b03      	cmp	r3, #3
 8003d30:	f43f af7e 	beq.w	8003c30 <USBD_StdDevReq+0x18>
    dev_addr = (uint8_t)(req->wValue) & 0x7FU;
 8003d34:	b2e9      	uxtb	r1, r5
      pdev->dev_address = dev_addr;
 8003d36:	f880 129e 	strb.w	r1, [r0, #670]	; 0x29e
      USBD_LL_SetUSBAddress(pdev, dev_addr);
 8003d3a:	f000 fc2d 	bl	8004598 <USBD_LL_SetUSBAddress>
      USBD_CtlSendStatus(pdev);
 8003d3e:	4620      	mov	r0, r4
 8003d40:	f000 fa0c 	bl	800415c <USBD_CtlSendStatus>
      if (dev_addr != 0U)
 8003d44:	2d00      	cmp	r5, #0
 8003d46:	f000 80db 	beq.w	8003f00 <USBD_StdDevReq+0x2e8>
        pdev->dev_state = USBD_STATE_ADDRESSED;
 8003d4a:	2302      	movs	r3, #2
 8003d4c:	f884 329c 	strb.w	r3, [r4, #668]	; 0x29c
 8003d50:	e776      	b.n	8003c40 <USBD_StdDevReq+0x28>
  uint16_t len = 0U;
 8003d52:	2300      	movs	r3, #0
          USBD_GetDescriptor(pdev, req);
 8003d54:	884a      	ldrh	r2, [r1, #2]
  uint16_t len = 0U;
 8003d56:	f8ad 3006 	strh.w	r3, [sp, #6]
  switch (req->wValue >> 8)
 8003d5a:	0a13      	lsrs	r3, r2, #8
 8003d5c:	3b01      	subs	r3, #1
 8003d5e:	2b06      	cmp	r3, #6
 8003d60:	f63f af66 	bhi.w	8003c30 <USBD_StdDevReq+0x18>
 8003d64:	a101      	add	r1, pc, #4	; (adr r1, 8003d6c <USBD_StdDevReq+0x154>)
 8003d66:	f851 f023 	ldr.w	pc, [r1, r3, lsl #2]
 8003d6a:	bf00      	nop
 8003d6c:	08003e2d 	.word	0x08003e2d
 8003d70:	08003e15 	.word	0x08003e15
 8003d74:	08003e03 	.word	0x08003e03
 8003d78:	08003c31 	.word	0x08003c31
 8003d7c:	08003c31 	.word	0x08003c31
 8003d80:	08003ded 	.word	0x08003ded
 8003d84:	08003dad 	.word	0x08003dad
  if (req->wLength != 1U)
 8003d88:	88ca      	ldrh	r2, [r1, #6]
 8003d8a:	2a01      	cmp	r2, #1
 8003d8c:	f47f af50 	bne.w	8003c30 <USBD_StdDevReq+0x18>
    switch (pdev->dev_state)
 8003d90:	f890 329c 	ldrb.w	r3, [r0, #668]	; 0x29c
 8003d94:	2b02      	cmp	r3, #2
 8003d96:	d87a      	bhi.n	8003e8e <USBD_StdDevReq+0x276>
 8003d98:	2b00      	cmp	r3, #0
 8003d9a:	f43f af49 	beq.w	8003c30 <USBD_StdDevReq+0x18>
        pdev->dev_default_config = 0U;
 8003d9e:	2300      	movs	r3, #0
 8003da0:	4601      	mov	r1, r0
 8003da2:	f841 3f08 	str.w	r3, [r1, #8]!
        USBD_CtlSendData(pdev, (uint8_t *)(void *)&pdev->dev_default_config, 1U);
 8003da6:	f000 f9b7 	bl	8004118 <USBD_CtlSendData>
        break;
 8003daa:	e749      	b.n	8003c40 <USBD_StdDevReq+0x28>
      if (pdev->dev_speed == USBD_SPEED_HIGH)
 8003dac:	7c03      	ldrb	r3, [r0, #16]
 8003dae:	2b00      	cmp	r3, #0
 8003db0:	f47f af3e 	bne.w	8003c30 <USBD_StdDevReq+0x18>
        pbuf = pdev->pClass->GetOtherSpeedConfigDescriptor(&len);
 8003db4:	f8d0 32b4 	ldr.w	r3, [r0, #692]	; 0x2b4
 8003db8:	f10d 0006 	add.w	r0, sp, #6
 8003dbc:	6b1b      	ldr	r3, [r3, #48]	; 0x30
 8003dbe:	4798      	blx	r3
        pbuf[1] = USB_DESC_TYPE_OTHER_SPEED_CONFIGURATION;
 8003dc0:	2307      	movs	r3, #7
 8003dc2:	7043      	strb	r3, [r0, #1]
    if ((len != 0U) && (req->wLength != 0U))
 8003dc4:	f8bd 2006 	ldrh.w	r2, [sp, #6]
 8003dc8:	b15a      	cbz	r2, 8003de2 <USBD_StdDevReq+0x1ca>
 8003dca:	88eb      	ldrh	r3, [r5, #6]
 8003dcc:	2b00      	cmp	r3, #0
 8003dce:	d09f      	beq.n	8003d10 <USBD_StdDevReq+0xf8>
      len = MIN(len, req->wLength);
 8003dd0:	429a      	cmp	r2, r3
 8003dd2:	bf28      	it	cs
 8003dd4:	461a      	movcs	r2, r3
      (void)USBD_CtlSendData(pdev, pbuf, len);
 8003dd6:	4601      	mov	r1, r0
 8003dd8:	4620      	mov	r0, r4
      len = MIN(len, req->wLength);
 8003dda:	f8ad 2006 	strh.w	r2, [sp, #6]
      (void)USBD_CtlSendData(pdev, pbuf, len);
 8003dde:	f000 f99b 	bl	8004118 <USBD_CtlSendData>
    if (req->wLength == 0U)
 8003de2:	88eb      	ldrh	r3, [r5, #6]
 8003de4:	2b00      	cmp	r3, #0
 8003de6:	f47f af2b 	bne.w	8003c40 <USBD_StdDevReq+0x28>
 8003dea:	e791      	b.n	8003d10 <USBD_StdDevReq+0xf8>
      if (pdev->dev_speed == USBD_SPEED_HIGH)
 8003dec:	7c03      	ldrb	r3, [r0, #16]
 8003dee:	2b00      	cmp	r3, #0
 8003df0:	f47f af1e 	bne.w	8003c30 <USBD_StdDevReq+0x18>
        pbuf = pdev->pClass->GetDeviceQualifierDescriptor(&len);
 8003df4:	f8d0 32b4 	ldr.w	r3, [r0, #692]	; 0x2b4
 8003df8:	f10d 0006 	add.w	r0, sp, #6
 8003dfc:	6b5b      	ldr	r3, [r3, #52]	; 0x34
 8003dfe:	4798      	blx	r3
  if (err != 0U)
 8003e00:	e7e0      	b.n	8003dc4 <USBD_StdDevReq+0x1ac>
      switch ((uint8_t)(req->wValue))
 8003e02:	b2d2      	uxtb	r2, r2
 8003e04:	2a05      	cmp	r2, #5
 8003e06:	f63f af13 	bhi.w	8003c30 <USBD_StdDevReq+0x18>
 8003e0a:	e8df f002 	tbb	[pc, r2]
 8003e0e:	343a      	.short	0x343a
 8003e10:	1722282e 	.word	0x1722282e
      if (pdev->dev_speed == USBD_SPEED_HIGH)
 8003e14:	7c03      	ldrb	r3, [r0, #16]
 8003e16:	2b00      	cmp	r3, #0
 8003e18:	d15f      	bne.n	8003eda <USBD_StdDevReq+0x2c2>
        pbuf = pdev->pClass->GetHSConfigDescriptor(&len);
 8003e1a:	f8d0 32b4 	ldr.w	r3, [r0, #692]	; 0x2b4
 8003e1e:	f10d 0006 	add.w	r0, sp, #6
 8003e22:	6a9b      	ldr	r3, [r3, #40]	; 0x28
 8003e24:	4798      	blx	r3
        pbuf[1] = USB_DESC_TYPE_CONFIGURATION;
 8003e26:	2302      	movs	r3, #2
 8003e28:	7043      	strb	r3, [r0, #1]
  if (err != 0U)
 8003e2a:	e7cb      	b.n	8003dc4 <USBD_StdDevReq+0x1ac>
      pbuf = pdev->pDesc->GetDeviceDescriptor(pdev->dev_speed, &len);
 8003e2c:	f8d0 32b0 	ldr.w	r3, [r0, #688]	; 0x2b0
 8003e30:	f10d 0106 	add.w	r1, sp, #6
 8003e34:	681b      	ldr	r3, [r3, #0]
 8003e36:	7c00      	ldrb	r0, [r0, #16]
 8003e38:	4798      	blx	r3
  if (err != 0U)
 8003e3a:	e7c3      	b.n	8003dc4 <USBD_StdDevReq+0x1ac>
          if (pdev->pDesc->GetInterfaceStrDescriptor != NULL)
 8003e3c:	f8d0 32b0 	ldr.w	r3, [r0, #688]	; 0x2b0
 8003e40:	699b      	ldr	r3, [r3, #24]
 8003e42:	2b00      	cmp	r3, #0
 8003e44:	f43f aef4 	beq.w	8003c30 <USBD_StdDevReq+0x18>
            pbuf = pdev->pDesc->GetInterfaceStrDescriptor(pdev->dev_speed, &len);
 8003e48:	7c20      	ldrb	r0, [r4, #16]
 8003e4a:	f10d 0106 	add.w	r1, sp, #6
 8003e4e:	4798      	blx	r3
  if (err != 0U)
 8003e50:	e7b8      	b.n	8003dc4 <USBD_StdDevReq+0x1ac>
          if (pdev->pDesc->GetConfigurationStrDescriptor != NULL)
 8003e52:	f8d0 32b0 	ldr.w	r3, [r0, #688]	; 0x2b0
 8003e56:	695b      	ldr	r3, [r3, #20]
 8003e58:	2b00      	cmp	r3, #0
 8003e5a:	d1f5      	bne.n	8003e48 <USBD_StdDevReq+0x230>
 8003e5c:	e6e8      	b.n	8003c30 <USBD_StdDevReq+0x18>
          if (pdev->pDesc->GetSerialStrDescriptor != NULL)
 8003e5e:	f8d0 32b0 	ldr.w	r3, [r0, #688]	; 0x2b0
 8003e62:	691b      	ldr	r3, [r3, #16]
 8003e64:	2b00      	cmp	r3, #0
 8003e66:	d1ef      	bne.n	8003e48 <USBD_StdDevReq+0x230>
 8003e68:	e6e2      	b.n	8003c30 <USBD_StdDevReq+0x18>
          if (pdev->pDesc->GetProductStrDescriptor != NULL)
 8003e6a:	f8d0 32b0 	ldr.w	r3, [r0, #688]	; 0x2b0
 8003e6e:	68db      	ldr	r3, [r3, #12]
 8003e70:	2b00      	cmp	r3, #0
 8003e72:	d1e9      	bne.n	8003e48 <USBD_StdDevReq+0x230>
 8003e74:	e6dc      	b.n	8003c30 <USBD_StdDevReq+0x18>
          if (pdev->pDesc->GetManufacturerStrDescriptor != NULL)
 8003e76:	f8d0 32b0 	ldr.w	r3, [r0, #688]	; 0x2b0
 8003e7a:	689b      	ldr	r3, [r3, #8]
 8003e7c:	2b00      	cmp	r3, #0
 8003e7e:	d1e3      	bne.n	8003e48 <USBD_StdDevReq+0x230>
 8003e80:	e6d6      	b.n	8003c30 <USBD_StdDevReq+0x18>
          if (pdev->pDesc->GetLangIDStrDescriptor != NULL)
 8003e82:	f8d0 32b0 	ldr.w	r3, [r0, #688]	; 0x2b0
 8003e86:	685b      	ldr	r3, [r3, #4]
 8003e88:	2b00      	cmp	r3, #0
 8003e8a:	d1dd      	bne.n	8003e48 <USBD_StdDevReq+0x230>
 8003e8c:	e6d0      	b.n	8003c30 <USBD_StdDevReq+0x18>
    switch (pdev->dev_state)
 8003e8e:	2b03      	cmp	r3, #3
 8003e90:	f47f aece 	bne.w	8003c30 <USBD_StdDevReq+0x18>
        USBD_CtlSendData(pdev, (uint8_t *)(void *)&pdev->dev_config, 1U);
 8003e94:	1d01      	adds	r1, r0, #4
 8003e96:	f000 f93f 	bl	8004118 <USBD_CtlSendData>
        break;
 8003e9a:	e6d1      	b.n	8003c40 <USBD_StdDevReq+0x28>
        if (cfgidx == 0U)
 8003e9c:	b331      	cbz	r1, 8003eec <USBD_StdDevReq+0x2d4>
        else if (cfgidx != pdev->dev_config)
 8003e9e:	6841      	ldr	r1, [r0, #4]
 8003ea0:	2901      	cmp	r1, #1
 8003ea2:	f43f af35 	beq.w	8003d10 <USBD_StdDevReq+0xf8>
          USBD_ClrClassConfig(pdev, (uint8_t)pdev->dev_config);
 8003ea6:	b2c9      	uxtb	r1, r1
 8003ea8:	f7ff fd94 	bl	80039d4 <USBD_ClrClassConfig>
          pdev->dev_config = cfgidx;
 8003eac:	7829      	ldrb	r1, [r5, #0]
          if (USBD_SetClassConfig(pdev, cfgidx) == USBD_FAIL)
 8003eae:	4620      	mov	r0, r4
          pdev->dev_config = cfgidx;
 8003eb0:	6061      	str	r1, [r4, #4]
          if (USBD_SetClassConfig(pdev, cfgidx) == USBD_FAIL)
 8003eb2:	f7ff fd85 	bl	80039c0 <USBD_SetClassConfig>
 8003eb6:	2802      	cmp	r0, #2
 8003eb8:	f47f af2a 	bne.w	8003d10 <USBD_StdDevReq+0xf8>
 8003ebc:	e6b8      	b.n	8003c30 <USBD_StdDevReq+0x18>
        if (cfgidx)
 8003ebe:	2900      	cmp	r1, #0
 8003ec0:	f43f af26 	beq.w	8003d10 <USBD_StdDevReq+0xf8>
          pdev->dev_config = cfgidx;
 8003ec4:	2101      	movs	r1, #1
          pdev->dev_state = USBD_STATE_CONFIGURED;
 8003ec6:	2303      	movs	r3, #3
          pdev->dev_config = cfgidx;
 8003ec8:	6041      	str	r1, [r0, #4]
          pdev->dev_state = USBD_STATE_CONFIGURED;
 8003eca:	f880 329c 	strb.w	r3, [r0, #668]	; 0x29c
          if (USBD_SetClassConfig(pdev, cfgidx) == USBD_FAIL)
 8003ece:	f7ff fd77 	bl	80039c0 <USBD_SetClassConfig>
 8003ed2:	2802      	cmp	r0, #2
 8003ed4:	f47f af1c 	bne.w	8003d10 <USBD_StdDevReq+0xf8>
 8003ed8:	e6aa      	b.n	8003c30 <USBD_StdDevReq+0x18>
        pbuf = pdev->pClass->GetFSConfigDescriptor(&len);
 8003eda:	f8d0 32b4 	ldr.w	r3, [r0, #692]	; 0x2b4
 8003ede:	f10d 0006 	add.w	r0, sp, #6
 8003ee2:	6adb      	ldr	r3, [r3, #44]	; 0x2c
 8003ee4:	4798      	blx	r3
        pbuf[1] = USB_DESC_TYPE_CONFIGURATION;
 8003ee6:	2302      	movs	r3, #2
 8003ee8:	7043      	strb	r3, [r0, #1]
  if (err != 0U)
 8003eea:	e76b      	b.n	8003dc4 <USBD_StdDevReq+0x1ac>
          pdev->dev_state = USBD_STATE_ADDRESSED;
 8003eec:	2302      	movs	r3, #2
          pdev->dev_config = cfgidx;
 8003eee:	6041      	str	r1, [r0, #4]
          pdev->dev_state = USBD_STATE_ADDRESSED;
 8003ef0:	f880 329c 	strb.w	r3, [r0, #668]	; 0x29c
          USBD_ClrClassConfig(pdev, cfgidx);
 8003ef4:	f7ff fd6e 	bl	80039d4 <USBD_ClrClassConfig>
          USBD_CtlSendStatus(pdev);
 8003ef8:	4620      	mov	r0, r4
 8003efa:	f000 f92f 	bl	800415c <USBD_CtlSendStatus>
 8003efe:	e69f      	b.n	8003c40 <USBD_StdDevReq+0x28>
        pdev->dev_state = USBD_STATE_DEFAULT;
 8003f00:	2301      	movs	r3, #1
 8003f02:	f884 329c 	strb.w	r3, [r4, #668]	; 0x29c
 8003f06:	e69b      	b.n	8003c40 <USBD_StdDevReq+0x28>
 8003f08:	2000060c 	.word	0x2000060c

08003f0c <USBD_StdItfReq>:
{
 8003f0c:	b538      	push	{r3, r4, r5, lr}
  switch (req->bmRequest & USB_REQ_TYPE_MASK)
 8003f0e:	780b      	ldrb	r3, [r1, #0]
{
 8003f10:	460d      	mov	r5, r1
  switch (req->bmRequest & USB_REQ_TYPE_MASK)
 8003f12:	f003 0260 	and.w	r2, r3, #96	; 0x60
 8003f16:	2a40      	cmp	r2, #64	; 0x40
{
 8003f18:	4604      	mov	r4, r0
  switch (req->bmRequest & USB_REQ_TYPE_MASK)
 8003f1a:	d00a      	beq.n	8003f32 <USBD_StdItfReq+0x26>
 8003f1c:	065b      	lsls	r3, r3, #25
 8003f1e:	d508      	bpl.n	8003f32 <USBD_StdItfReq+0x26>
  USBD_LL_StallEP(pdev, 0x80U);
 8003f20:	2180      	movs	r1, #128	; 0x80
 8003f22:	f000 fb09 	bl	8004538 <USBD_LL_StallEP>
  USBD_LL_StallEP(pdev, 0U);
 8003f26:	4620      	mov	r0, r4
 8003f28:	2100      	movs	r1, #0
 8003f2a:	f000 fb05 	bl	8004538 <USBD_LL_StallEP>
}
 8003f2e:	2000      	movs	r0, #0
 8003f30:	bd38      	pop	{r3, r4, r5, pc}
      switch (pdev->dev_state)
 8003f32:	f894 329c 	ldrb.w	r3, [r4, #668]	; 0x29c
 8003f36:	3b01      	subs	r3, #1
 8003f38:	2b02      	cmp	r3, #2
 8003f3a:	d811      	bhi.n	8003f60 <USBD_StdItfReq+0x54>
          if (LOBYTE(req->wIndex) <= USBD_MAX_NUM_INTERFACES)
 8003f3c:	792b      	ldrb	r3, [r5, #4]
 8003f3e:	2b01      	cmp	r3, #1
 8003f40:	d80e      	bhi.n	8003f60 <USBD_StdItfReq+0x54>
            ret = (USBD_StatusTypeDef)pdev->pClass->Setup(pdev, req);
 8003f42:	f8d4 32b4 	ldr.w	r3, [r4, #692]	; 0x2b4
 8003f46:	4629      	mov	r1, r5
 8003f48:	689b      	ldr	r3, [r3, #8]
 8003f4a:	4620      	mov	r0, r4
 8003f4c:	4798      	blx	r3
            if ((req->wLength == 0U) && (ret == USBD_OK))
 8003f4e:	88eb      	ldrh	r3, [r5, #6]
 8003f50:	2b00      	cmp	r3, #0
 8003f52:	d1ec      	bne.n	8003f2e <USBD_StdItfReq+0x22>
 8003f54:	2800      	cmp	r0, #0
 8003f56:	d1ea      	bne.n	8003f2e <USBD_StdItfReq+0x22>
              USBD_CtlSendStatus(pdev);
 8003f58:	4620      	mov	r0, r4
 8003f5a:	f000 f8ff 	bl	800415c <USBD_CtlSendStatus>
 8003f5e:	e7e6      	b.n	8003f2e <USBD_StdItfReq+0x22>
  USBD_LL_StallEP(pdev, 0x80U);
 8003f60:	2180      	movs	r1, #128	; 0x80
 8003f62:	4620      	mov	r0, r4
 8003f64:	f000 fae8 	bl	8004538 <USBD_LL_StallEP>
  USBD_LL_StallEP(pdev, 0U);
 8003f68:	4620      	mov	r0, r4
 8003f6a:	2100      	movs	r1, #0
 8003f6c:	f000 fae4 	bl	8004538 <USBD_LL_StallEP>
}
 8003f70:	2000      	movs	r0, #0
 8003f72:	bd38      	pop	{r3, r4, r5, pc}

08003f74 <USBD_StdEPReq>:
{
 8003f74:	b570      	push	{r4, r5, r6, lr}
 8003f76:	780b      	ldrb	r3, [r1, #0]
 8003f78:	4604      	mov	r4, r0
  switch (req->bmRequest & USB_REQ_TYPE_MASK)
 8003f7a:	f003 0360 	and.w	r3, r3, #96	; 0x60
 8003f7e:	2b20      	cmp	r3, #32
 8003f80:	d00c      	beq.n	8003f9c <USBD_StdEPReq+0x28>
 8003f82:	2b40      	cmp	r3, #64	; 0x40
 8003f84:	d00a      	beq.n	8003f9c <USBD_StdEPReq+0x28>
 8003f86:	b183      	cbz	r3, 8003faa <USBD_StdEPReq+0x36>
  USBD_LL_StallEP(pdev, 0x80U);
 8003f88:	2180      	movs	r1, #128	; 0x80
 8003f8a:	4620      	mov	r0, r4
 8003f8c:	f000 fad4 	bl	8004538 <USBD_LL_StallEP>
  USBD_LL_StallEP(pdev, 0U);
 8003f90:	4620      	mov	r0, r4
 8003f92:	2100      	movs	r1, #0
 8003f94:	f000 fad0 	bl	8004538 <USBD_LL_StallEP>
}
 8003f98:	2000      	movs	r0, #0
 8003f9a:	bd70      	pop	{r4, r5, r6, pc}
      pdev->pClass->Setup(pdev, req);
 8003f9c:	f8d4 32b4 	ldr.w	r3, [r4, #692]	; 0x2b4
 8003fa0:	4620      	mov	r0, r4
 8003fa2:	689b      	ldr	r3, [r3, #8]
 8003fa4:	4798      	blx	r3
}
 8003fa6:	2000      	movs	r0, #0
 8003fa8:	bd70      	pop	{r4, r5, r6, pc}
      switch (req->bRequest)
 8003faa:	784b      	ldrb	r3, [r1, #1]
  ep_addr  = LOBYTE(req->wIndex);
 8003fac:	888a      	ldrh	r2, [r1, #4]
 8003fae:	2b01      	cmp	r3, #1
 8003fb0:	b2d5      	uxtb	r5, r2
      switch (req->bRequest)
 8003fb2:	d03d      	beq.n	8004030 <USBD_StdEPReq+0xbc>
 8003fb4:	2b03      	cmp	r3, #3
 8003fb6:	d02a      	beq.n	800400e <USBD_StdEPReq+0x9a>
 8003fb8:	2b00      	cmp	r3, #0
 8003fba:	d1e5      	bne.n	8003f88 <USBD_StdEPReq+0x14>
          switch (pdev->dev_state)
 8003fbc:	f890 329c 	ldrb.w	r3, [r0, #668]	; 0x29c
 8003fc0:	2b02      	cmp	r3, #2
 8003fc2:	d04e      	beq.n	8004062 <USBD_StdEPReq+0xee>
 8003fc4:	2b03      	cmp	r3, #3
 8003fc6:	d1df      	bne.n	8003f88 <USBD_StdEPReq+0x14>
                if (pdev->ep_in[ep_addr & 0xFU].is_used == 0U)
 8003fc8:	f005 030f 	and.w	r3, r5, #15
 8003fcc:	eb03 0383 	add.w	r3, r3, r3, lsl #2
              if ((ep_addr & 0x80U) == 0x80U)
 8003fd0:	0612      	lsls	r2, r2, #24
                if (pdev->ep_in[ep_addr & 0xFU].is_used == 0U)
 8003fd2:	eb00 0383 	add.w	r3, r0, r3, lsl #2
              if ((ep_addr & 0x80U) == 0x80U)
 8003fd6:	d453      	bmi.n	8004080 <USBD_StdEPReq+0x10c>
                if (pdev->ep_out[ep_addr & 0xFU].is_used == 0U)
 8003fd8:	f8d3 3158 	ldr.w	r3, [r3, #344]	; 0x158
 8003fdc:	2b00      	cmp	r3, #0
 8003fde:	d0d3      	beq.n	8003f88 <USBD_StdEPReq+0x14>
              pep = ((ep_addr & 0x80U) == 0x80U) ? &pdev->ep_in[ep_addr & 0x7FU] : \
 8003fe0:	f005 037f 	and.w	r3, r5, #127	; 0x7f
 8003fe4:	eb03 0683 	add.w	r6, r3, r3, lsl #2
 8003fe8:	eb00 0686 	add.w	r6, r0, r6, lsl #2
 8003fec:	f506 76aa 	add.w	r6, r6, #340	; 0x154
              if ((ep_addr == 0x00U) || (ep_addr == 0x80U))
 8003ff0:	b133      	cbz	r3, 8004000 <USBD_StdEPReq+0x8c>
              else if (USBD_LL_IsStallEP(pdev, ep_addr))
 8003ff2:	4629      	mov	r1, r5
 8003ff4:	4620      	mov	r0, r4
 8003ff6:	f000 fabb 	bl	8004570 <USBD_LL_IsStallEP>
 8003ffa:	2800      	cmp	r0, #0
 8003ffc:	d04b      	beq.n	8004096 <USBD_StdEPReq+0x122>
                pep->status = 0x0001U;
 8003ffe:	2301      	movs	r3, #1
 8004000:	6033      	str	r3, [r6, #0]
              USBD_CtlSendData(pdev, (uint8_t *)(void *)&pep->status, 2U);
 8004002:	4631      	mov	r1, r6
 8004004:	4620      	mov	r0, r4
 8004006:	2202      	movs	r2, #2
 8004008:	f000 f886 	bl	8004118 <USBD_CtlSendData>
              break;
 800400c:	e7c4      	b.n	8003f98 <USBD_StdEPReq+0x24>
          switch (pdev->dev_state)
 800400e:	f890 329c 	ldrb.w	r3, [r0, #668]	; 0x29c
 8004012:	2b02      	cmp	r3, #2
 8004014:	d01b      	beq.n	800404e <USBD_StdEPReq+0xda>
 8004016:	2b03      	cmp	r3, #3
 8004018:	d1b6      	bne.n	8003f88 <USBD_StdEPReq+0x14>
              if (req->wValue == USB_FEATURE_EP_HALT)
 800401a:	884b      	ldrh	r3, [r1, #2]
 800401c:	b923      	cbnz	r3, 8004028 <USBD_StdEPReq+0xb4>
                if ((ep_addr != 0x00U) &&
 800401e:	066a      	lsls	r2, r5, #25
 8004020:	d002      	beq.n	8004028 <USBD_StdEPReq+0xb4>
                    (ep_addr != 0x80U) && (req->wLength == 0x00U))
 8004022:	88cb      	ldrh	r3, [r1, #6]
 8004024:	2b00      	cmp	r3, #0
 8004026:	d038      	beq.n	800409a <USBD_StdEPReq+0x126>
              USBD_CtlSendStatus(pdev);
 8004028:	4620      	mov	r0, r4
 800402a:	f000 f897 	bl	800415c <USBD_CtlSendStatus>
              break;
 800402e:	e7b3      	b.n	8003f98 <USBD_StdEPReq+0x24>
          switch (pdev->dev_state)
 8004030:	f890 329c 	ldrb.w	r3, [r0, #668]	; 0x29c
 8004034:	2b02      	cmp	r3, #2
 8004036:	d00a      	beq.n	800404e <USBD_StdEPReq+0xda>
 8004038:	2b03      	cmp	r3, #3
 800403a:	d1a5      	bne.n	8003f88 <USBD_StdEPReq+0x14>
              if (req->wValue == USB_FEATURE_EP_HALT)
 800403c:	884b      	ldrh	r3, [r1, #2]
 800403e:	2b00      	cmp	r3, #0
 8004040:	d1aa      	bne.n	8003f98 <USBD_StdEPReq+0x24>
                if ((ep_addr & 0x7FU) != 0x00U)
 8004042:	066e      	lsls	r6, r5, #25
 8004044:	d0f0      	beq.n	8004028 <USBD_StdEPReq+0xb4>
                  USBD_LL_ClearStallEP(pdev, ep_addr);
 8004046:	4629      	mov	r1, r5
 8004048:	f000 fa84 	bl	8004554 <USBD_LL_ClearStallEP>
 800404c:	e7ec      	b.n	8004028 <USBD_StdEPReq+0xb4>
              if ((ep_addr != 0x00U) && (ep_addr != 0x80U))
 800404e:	066b      	lsls	r3, r5, #25
 8004050:	d09a      	beq.n	8003f88 <USBD_StdEPReq+0x14>
                USBD_LL_StallEP(pdev, ep_addr);
 8004052:	4629      	mov	r1, r5
 8004054:	f000 fa70 	bl	8004538 <USBD_LL_StallEP>
                USBD_LL_StallEP(pdev, 0x80U);
 8004058:	4620      	mov	r0, r4
 800405a:	2180      	movs	r1, #128	; 0x80
 800405c:	f000 fa6c 	bl	8004538 <USBD_LL_StallEP>
 8004060:	e79a      	b.n	8003f98 <USBD_StdEPReq+0x24>
              if ((ep_addr != 0x00U) && (ep_addr != 0x80U))
 8004062:	0668      	lsls	r0, r5, #25
 8004064:	d190      	bne.n	8003f88 <USBD_StdEPReq+0x14>
              pep->status = 0x0000U;
 8004066:	2300      	movs	r3, #0
              pep = ((ep_addr & 0x80U) == 0x80U) ? &pdev->ep_in[ep_addr & 0x7FU] : \
 8004068:	0611      	lsls	r1, r2, #24
 800406a:	bf4c      	ite	mi
 800406c:	f104 0114 	addmi.w	r1, r4, #20
 8004070:	f504 71aa 	addpl.w	r1, r4, #340	; 0x154
              USBD_CtlSendData(pdev, (uint8_t *)(void *)&pep->status, 2U);
 8004074:	4620      	mov	r0, r4
 8004076:	2202      	movs	r2, #2
              pep->status = 0x0000U;
 8004078:	600b      	str	r3, [r1, #0]
              USBD_CtlSendData(pdev, (uint8_t *)(void *)&pep->status, 2U);
 800407a:	f000 f84d 	bl	8004118 <USBD_CtlSendData>
              break;
 800407e:	e78b      	b.n	8003f98 <USBD_StdEPReq+0x24>
                if (pdev->ep_in[ep_addr & 0xFU].is_used == 0U)
 8004080:	699b      	ldr	r3, [r3, #24]
 8004082:	2b00      	cmp	r3, #0
 8004084:	d080      	beq.n	8003f88 <USBD_StdEPReq+0x14>
              pep = ((ep_addr & 0x80U) == 0x80U) ? &pdev->ep_in[ep_addr & 0x7FU] : \
 8004086:	f005 037f 	and.w	r3, r5, #127	; 0x7f
 800408a:	1c5e      	adds	r6, r3, #1
 800408c:	eb06 0686 	add.w	r6, r6, r6, lsl #2
 8004090:	eb00 0686 	add.w	r6, r0, r6, lsl #2
 8004094:	e7ac      	b.n	8003ff0 <USBD_StdEPReq+0x7c>
                pep->status = 0x0000U;
 8004096:	6030      	str	r0, [r6, #0]
 8004098:	e7b3      	b.n	8004002 <USBD_StdEPReq+0x8e>
                  USBD_LL_StallEP(pdev, ep_addr);
 800409a:	4629      	mov	r1, r5
 800409c:	f000 fa4c 	bl	8004538 <USBD_LL_StallEP>
 80040a0:	e7c2      	b.n	8004028 <USBD_StdEPReq+0xb4>
 80040a2:	bf00      	nop

080040a4 <USBD_ParseSetupRequest>:
  req->bmRequest = *(uint8_t *)(pdata);
 80040a4:	780b      	ldrb	r3, [r1, #0]
 80040a6:	7003      	strb	r3, [r0, #0]
  req->bRequest = *(uint8_t *)(pdata + 1U);
 80040a8:	784b      	ldrb	r3, [r1, #1]
 80040aa:	7043      	strb	r3, [r0, #1]
  req->wValue = SWAPBYTE(pdata + 2U);
 80040ac:	78ca      	ldrb	r2, [r1, #3]
 80040ae:	788b      	ldrb	r3, [r1, #2]
 80040b0:	eb03 2302 	add.w	r3, r3, r2, lsl #8
 80040b4:	8043      	strh	r3, [r0, #2]
  req->wIndex = SWAPBYTE(pdata + 4U);
 80040b6:	794a      	ldrb	r2, [r1, #5]
 80040b8:	790b      	ldrb	r3, [r1, #4]
 80040ba:	eb03 2302 	add.w	r3, r3, r2, lsl #8
 80040be:	8083      	strh	r3, [r0, #4]
  req->wLength = SWAPBYTE(pdata + 6U);
 80040c0:	79ca      	ldrb	r2, [r1, #7]
 80040c2:	798b      	ldrb	r3, [r1, #6]
 80040c4:	eb03 2302 	add.w	r3, r3, r2, lsl #8
 80040c8:	80c3      	strh	r3, [r0, #6]
}
 80040ca:	4770      	bx	lr

080040cc <USBD_GetString>:
  */
void USBD_GetString(uint8_t *desc, uint8_t *unicode, uint16_t *len)
{
  uint8_t idx = 0U;

  if (desc != NULL)
 80040cc:	b308      	cbz	r0, 8004112 <USBD_GetString+0x46>
  */
static uint8_t USBD_GetLen(uint8_t *buf)
{
  uint8_t  len = 0U;

  while (*buf != '\0')
 80040ce:	7803      	ldrb	r3, [r0, #0]
{
 80040d0:	b470      	push	{r4, r5, r6}
  while (*buf != '\0')
 80040d2:	b1fb      	cbz	r3, 8004114 <USBD_GetString+0x48>
 80040d4:	4604      	mov	r4, r0
 80040d6:	f1c0 0601 	rsb	r6, r0, #1
  {
    len++;
 80040da:	19a3      	adds	r3, r4, r6
  while (*buf != '\0')
 80040dc:	f814 5f01 	ldrb.w	r5, [r4, #1]!
 80040e0:	b2db      	uxtb	r3, r3
 80040e2:	2d00      	cmp	r5, #0
 80040e4:	d1f9      	bne.n	80040da <USBD_GetString+0xe>
 80040e6:	3301      	adds	r3, #1
 80040e8:	005b      	lsls	r3, r3, #1
    unicode[idx++] = USB_DESC_TYPE_STRING;
 80040ea:	2403      	movs	r4, #3
    *len = (uint16_t)USBD_GetLen(desc) * 2U + 2U;
 80040ec:	8013      	strh	r3, [r2, #0]
    unicode[idx++] = *(uint8_t *)(void *)len;
 80040ee:	700b      	strb	r3, [r1, #0]
    unicode[idx++] = USB_DESC_TYPE_STRING;
 80040f0:	704c      	strb	r4, [r1, #1]
    while (*desc != '\0')
 80040f2:	7804      	ldrb	r4, [r0, #0]
 80040f4:	b15c      	cbz	r4, 800410e <USBD_GetString+0x42>
    unicode[idx++] = USB_DESC_TYPE_STRING;
 80040f6:	2302      	movs	r3, #2
      unicode[idx++] =  0U;
 80040f8:	2500      	movs	r5, #0
      unicode[idx++] = *desc++;
 80040fa:	1c5a      	adds	r2, r3, #1
 80040fc:	b2d2      	uxtb	r2, r2
 80040fe:	54cc      	strb	r4, [r1, r3]
      unicode[idx++] =  0U;
 8004100:	548d      	strb	r5, [r1, r2]
    while (*desc != '\0')
 8004102:	f810 4f01 	ldrb.w	r4, [r0, #1]!
      unicode[idx++] =  0U;
 8004106:	3302      	adds	r3, #2
 8004108:	b2db      	uxtb	r3, r3
    while (*desc != '\0')
 800410a:	2c00      	cmp	r4, #0
 800410c:	d1f5      	bne.n	80040fa <USBD_GetString+0x2e>
}
 800410e:	bc70      	pop	{r4, r5, r6}
 8004110:	4770      	bx	lr
 8004112:	4770      	bx	lr
  while (*buf != '\0')
 8004114:	2302      	movs	r3, #2
 8004116:	e7e8      	b.n	80040ea <USBD_GetString+0x1e>

08004118 <USBD_CtlSendData>:
* @param  len: length of data to be sent
* @retval status
*/
USBD_StatusTypeDef USBD_CtlSendData(USBD_HandleTypeDef *pdev,
                                    uint8_t *pbuf, uint16_t len)
{
 8004118:	b538      	push	{r3, r4, r5, lr}
 800411a:	4613      	mov	r3, r2
  /* Set EP0 State */
  pdev->ep0_state = USBD_EP0_DATA_IN;
 800411c:	2502      	movs	r5, #2
{
 800411e:	460a      	mov	r2, r1
  pdev->ep_in[0].total_length = len;
  pdev->ep_in[0].rem_length   = len;
 8004120:	e9c0 3307 	strd	r3, r3, [r0, #28]

  /* Start the transfer */
  USBD_LL_Transmit(pdev, 0x00U, pbuf, len);
 8004124:	2100      	movs	r1, #0
  pdev->ep0_state = USBD_EP0_DATA_IN;
 8004126:	f8c0 5294 	str.w	r5, [r0, #660]	; 0x294
  USBD_LL_Transmit(pdev, 0x00U, pbuf, len);
 800412a:	f000 fa43 	bl	80045b4 <USBD_LL_Transmit>

  return USBD_OK;
}
 800412e:	2000      	movs	r0, #0
 8004130:	bd38      	pop	{r3, r4, r5, pc}
 8004132:	bf00      	nop

08004134 <USBD_CtlContinueSendData>:
* @param  len: length of data to be sent
* @retval status
*/
USBD_StatusTypeDef USBD_CtlContinueSendData(USBD_HandleTypeDef *pdev,
                                            uint8_t *pbuf, uint16_t len)
{
 8004134:	b510      	push	{r4, lr}
 8004136:	460c      	mov	r4, r1
 8004138:	4613      	mov	r3, r2
  /* Start the next transfer */
  USBD_LL_Transmit(pdev, 0x00U, pbuf, len);
 800413a:	2100      	movs	r1, #0
 800413c:	4622      	mov	r2, r4
 800413e:	f000 fa39 	bl	80045b4 <USBD_LL_Transmit>

  return USBD_OK;
}
 8004142:	2000      	movs	r0, #0
 8004144:	bd10      	pop	{r4, pc}
 8004146:	bf00      	nop

08004148 <USBD_CtlContinueRx>:
* @param  len: length of data to be received
* @retval status
*/
USBD_StatusTypeDef USBD_CtlContinueRx(USBD_HandleTypeDef *pdev,
                                      uint8_t *pbuf, uint16_t len)
{
 8004148:	b510      	push	{r4, lr}
 800414a:	460c      	mov	r4, r1
 800414c:	4613      	mov	r3, r2
  USBD_LL_PrepareReceive(pdev, 0U, pbuf, len);
 800414e:	2100      	movs	r1, #0
 8004150:	4622      	mov	r2, r4
 8004152:	f000 fa3d 	bl	80045d0 <USBD_LL_PrepareReceive>

  return USBD_OK;
}
 8004156:	2000      	movs	r0, #0
 8004158:	bd10      	pop	{r4, pc}
 800415a:	bf00      	nop

0800415c <USBD_CtlSendStatus>:
*         send zero lzngth packet on the ctl pipe
* @param  pdev: device instance
* @retval status
*/
USBD_StatusTypeDef USBD_CtlSendStatus(USBD_HandleTypeDef *pdev)
{
 800415c:	b508      	push	{r3, lr}
  /* Set EP0 State */
  pdev->ep0_state = USBD_EP0_STATUS_IN;
 800415e:	2204      	movs	r2, #4

  /* Start the transfer */
  USBD_LL_Transmit(pdev, 0x00U, NULL, 0U);
 8004160:	2300      	movs	r3, #0
  pdev->ep0_state = USBD_EP0_STATUS_IN;
 8004162:	f8c0 2294 	str.w	r2, [r0, #660]	; 0x294
  USBD_LL_Transmit(pdev, 0x00U, NULL, 0U);
 8004166:	4619      	mov	r1, r3
 8004168:	461a      	mov	r2, r3
 800416a:	f000 fa23 	bl	80045b4 <USBD_LL_Transmit>

  return USBD_OK;
}
 800416e:	2000      	movs	r0, #0
 8004170:	bd08      	pop	{r3, pc}
 8004172:	bf00      	nop

08004174 <USBD_CtlReceiveStatus>:
*         receive zero lzngth packet on the ctl pipe
* @param  pdev: device instance
* @retval status
*/
USBD_StatusTypeDef USBD_CtlReceiveStatus(USBD_HandleTypeDef *pdev)
{
 8004174:	b508      	push	{r3, lr}
  /* Set EP0 State */
  pdev->ep0_state = USBD_EP0_STATUS_OUT;
 8004176:	2205      	movs	r2, #5

  /* Start the transfer */
  USBD_LL_PrepareReceive(pdev, 0U, NULL, 0U);
 8004178:	2300      	movs	r3, #0
  pdev->ep0_state = USBD_EP0_STATUS_OUT;
 800417a:	f8c0 2294 	str.w	r2, [r0, #660]	; 0x294
  USBD_LL_PrepareReceive(pdev, 0U, NULL, 0U);
 800417e:	4619      	mov	r1, r3
 8004180:	461a      	mov	r2, r3
 8004182:	f000 fa25 	bl	80045d0 <USBD_LL_PrepareReceive>

  return USBD_OK;
}
 8004186:	2000      	movs	r0, #0
 8004188:	bd08      	pop	{r3, pc}
 800418a:	bf00      	nop

0800418c <MX_USB_DEVICE_Init>:
/**
  * Init USB device Library, add supported class and start the library
  * @retval None
  */
void MX_USB_DEVICE_Init(void)
{
 800418c:	b508      	push	{r3, lr}
  /* USER CODE BEGIN USB_DEVICE_Init_PreTreatment */

  /* USER CODE END USB_DEVICE_Init_PreTreatment */

  /* Init Device Library, add supported class and start the library. */
	if (USBD_Init(&hUsbDeviceFS, &FS_Desc, DEVICE_FS) != USBD_OK)
 800418e:	2200      	movs	r2, #0
 8004190:	4917      	ldr	r1, [pc, #92]	; (80041f0 <MX_USB_DEVICE_Init+0x64>)
 8004192:	4818      	ldr	r0, [pc, #96]	; (80041f4 <MX_USB_DEVICE_Init+0x68>)
 8004194:	f7ff fbf0 	bl	8003978 <USBD_Init>
 8004198:	b970      	cbnz	r0, 80041b8 <MX_USB_DEVICE_Init+0x2c>
	  {
	    Error_Handler();
	  }
	  if (USBD_RegisterClass(&hUsbDeviceFS, &USBD_MIDI) != USBD_OK)
 800419a:	4917      	ldr	r1, [pc, #92]	; (80041f8 <MX_USB_DEVICE_Init+0x6c>)
 800419c:	4815      	ldr	r0, [pc, #84]	; (80041f4 <MX_USB_DEVICE_Init+0x68>)
 800419e:	f7ff fc01 	bl	80039a4 <USBD_RegisterClass>
 80041a2:	b988      	cbnz	r0, 80041c8 <MX_USB_DEVICE_Init+0x3c>
	  {
	    Error_Handler();
	  }
	  if (USBD_MIDI_RegisterInterface(&hUsbDeviceFS, &USBD_Interface_fops_FS) != USBD_OK)
 80041a4:	4915      	ldr	r1, [pc, #84]	; (80041fc <MX_USB_DEVICE_Init+0x70>)
 80041a6:	4813      	ldr	r0, [pc, #76]	; (80041f4 <MX_USB_DEVICE_Init+0x68>)
 80041a8:	f7fc feca 	bl	8000f40 <USBD_MIDI_RegisterInterface>
 80041ac:	b9a0      	cbnz	r0, 80041d8 <MX_USB_DEVICE_Init+0x4c>
	  {
	    Error_Handler();
	  }
	  if (USBD_Start(&hUsbDeviceFS) != USBD_OK)
 80041ae:	4811      	ldr	r0, [pc, #68]	; (80041f4 <MX_USB_DEVICE_Init+0x68>)
 80041b0:	f7ff fc00 	bl	80039b4 <USBD_Start>
 80041b4:	b9b8      	cbnz	r0, 80041e6 <MX_USB_DEVICE_Init+0x5a>
	  }

  /* USER CODE BEGIN USB_DEVICE_Init_PostTreatment */

  /* USER CODE END USB_DEVICE_Init_PostTreatment */
}
 80041b6:	bd08      	pop	{r3, pc}
	    Error_Handler();
 80041b8:	f7fc fdaa 	bl	8000d10 <Error_Handler>
	  if (USBD_RegisterClass(&hUsbDeviceFS, &USBD_MIDI) != USBD_OK)
 80041bc:	490e      	ldr	r1, [pc, #56]	; (80041f8 <MX_USB_DEVICE_Init+0x6c>)
 80041be:	480d      	ldr	r0, [pc, #52]	; (80041f4 <MX_USB_DEVICE_Init+0x68>)
 80041c0:	f7ff fbf0 	bl	80039a4 <USBD_RegisterClass>
 80041c4:	2800      	cmp	r0, #0
 80041c6:	d0ed      	beq.n	80041a4 <MX_USB_DEVICE_Init+0x18>
	    Error_Handler();
 80041c8:	f7fc fda2 	bl	8000d10 <Error_Handler>
	  if (USBD_MIDI_RegisterInterface(&hUsbDeviceFS, &USBD_Interface_fops_FS) != USBD_OK)
 80041cc:	490b      	ldr	r1, [pc, #44]	; (80041fc <MX_USB_DEVICE_Init+0x70>)
 80041ce:	4809      	ldr	r0, [pc, #36]	; (80041f4 <MX_USB_DEVICE_Init+0x68>)
 80041d0:	f7fc feb6 	bl	8000f40 <USBD_MIDI_RegisterInterface>
 80041d4:	2800      	cmp	r0, #0
 80041d6:	d0ea      	beq.n	80041ae <MX_USB_DEVICE_Init+0x22>
	    Error_Handler();
 80041d8:	f7fc fd9a 	bl	8000d10 <Error_Handler>
	  if (USBD_Start(&hUsbDeviceFS) != USBD_OK)
 80041dc:	4805      	ldr	r0, [pc, #20]	; (80041f4 <MX_USB_DEVICE_Init+0x68>)
 80041de:	f7ff fbe9 	bl	80039b4 <USBD_Start>
 80041e2:	2800      	cmp	r0, #0
 80041e4:	d0e7      	beq.n	80041b6 <MX_USB_DEVICE_Init+0x2a>
}
 80041e6:	e8bd 4008 	ldmia.w	sp!, {r3, lr}
	    Error_Handler();
 80041ea:	f7fc bd91 	b.w	8000d10 <Error_Handler>
 80041ee:	bf00      	nop
 80041f0:	200000b0 	.word	0x200000b0
 80041f4:	20000ebc 	.word	0x20000ebc
 80041f8:	20000004 	.word	0x20000004
 80041fc:	200000a4 	.word	0x200000a4

08004200 <USBD_FS_DeviceDescriptor>:
  * @retval Pointer to descriptor buffer
  */
uint8_t * USBD_FS_DeviceDescriptor(USBD_SpeedTypeDef speed, uint16_t *length)
{
  UNUSED(speed);
  *length = sizeof(USBD_FS_DeviceDesc);
 8004200:	2312      	movs	r3, #18
  return USBD_FS_DeviceDesc;
}
 8004202:	4801      	ldr	r0, [pc, #4]	; (8004208 <USBD_FS_DeviceDescriptor+0x8>)
  *length = sizeof(USBD_FS_DeviceDesc);
 8004204:	800b      	strh	r3, [r1, #0]
}
 8004206:	4770      	bx	lr
 8004208:	200000cc 	.word	0x200000cc

0800420c <USBD_FS_LangIDStrDescriptor>:
  * @retval Pointer to descriptor buffer
  */
uint8_t * USBD_FS_LangIDStrDescriptor(USBD_SpeedTypeDef speed, uint16_t *length)
{
  UNUSED(speed);
  *length = sizeof(USBD_LangIDDesc);
 800420c:	2304      	movs	r3, #4
  return USBD_LangIDDesc;
}
 800420e:	4801      	ldr	r0, [pc, #4]	; (8004214 <USBD_FS_LangIDStrDescriptor+0x8>)
  *length = sizeof(USBD_LangIDDesc);
 8004210:	800b      	strh	r3, [r1, #0]
}
 8004212:	4770      	bx	lr
 8004214:	200000e0 	.word	0x200000e0

08004218 <USBD_FS_ManufacturerStrDescriptor>:
  * @param  speed : Current device speed
  * @param  length : Pointer to data length variable
  * @retval Pointer to descriptor buffer
  */
uint8_t * USBD_FS_ManufacturerStrDescriptor(USBD_SpeedTypeDef speed, uint16_t *length)
{
 8004218:	b510      	push	{r4, lr}
  UNUSED(speed);
  USBD_GetString((uint8_t *)USBD_MANUFACTURER_STRING, USBD_StrDesc, length);
 800421a:	4c04      	ldr	r4, [pc, #16]	; (800422c <USBD_FS_ManufacturerStrDescriptor+0x14>)
{
 800421c:	460a      	mov	r2, r1
  USBD_GetString((uint8_t *)USBD_MANUFACTURER_STRING, USBD_StrDesc, length);
 800421e:	4804      	ldr	r0, [pc, #16]	; (8004230 <USBD_FS_ManufacturerStrDescriptor+0x18>)
 8004220:	4621      	mov	r1, r4
 8004222:	f7ff ff53 	bl	80040cc <USBD_GetString>
  return USBD_StrDesc;
}
 8004226:	4620      	mov	r0, r4
 8004228:	bd10      	pop	{r4, pc}
 800422a:	bf00      	nop
 800422c:	20001180 	.word	0x20001180
 8004230:	08004674 	.word	0x08004674

08004234 <USBD_FS_ProductStrDescriptor>:
{
 8004234:	b510      	push	{r4, lr}
    USBD_GetString((uint8_t *)USBD_PRODUCT_STRING_FS, USBD_StrDesc, length);
 8004236:	4c04      	ldr	r4, [pc, #16]	; (8004248 <USBD_FS_ProductStrDescriptor+0x14>)
{
 8004238:	460a      	mov	r2, r1
    USBD_GetString((uint8_t *)USBD_PRODUCT_STRING_FS, USBD_StrDesc, length);
 800423a:	4804      	ldr	r0, [pc, #16]	; (800424c <USBD_FS_ProductStrDescriptor+0x18>)
 800423c:	4621      	mov	r1, r4
 800423e:	f7ff ff45 	bl	80040cc <USBD_GetString>
}
 8004242:	4620      	mov	r0, r4
 8004244:	bd10      	pop	{r4, pc}
 8004246:	bf00      	nop
 8004248:	20001180 	.word	0x20001180
 800424c:	08004688 	.word	0x08004688

08004250 <USBD_FS_ConfigStrDescriptor>:
  * @param  speed : Current device speed
  * @param  length : Pointer to data length variable
  * @retval Pointer to descriptor buffer
  */
uint8_t * USBD_FS_ConfigStrDescriptor(USBD_SpeedTypeDef speed, uint16_t *length)
{
 8004250:	b510      	push	{r4, lr}
  if(speed == USBD_SPEED_HIGH)
  {
    USBD_GetString((uint8_t *)USBD_CONFIGURATION_STRING_FS, USBD_StrDesc, length);
 8004252:	4c04      	ldr	r4, [pc, #16]	; (8004264 <USBD_FS_ConfigStrDescriptor+0x14>)
{
 8004254:	460a      	mov	r2, r1
    USBD_GetString((uint8_t *)USBD_CONFIGURATION_STRING_FS, USBD_StrDesc, length);
 8004256:	4804      	ldr	r0, [pc, #16]	; (8004268 <USBD_FS_ConfigStrDescriptor+0x18>)
 8004258:	4621      	mov	r1, r4
 800425a:	f7ff ff37 	bl	80040cc <USBD_GetString>
  else
  {
    USBD_GetString((uint8_t *)USBD_CONFIGURATION_STRING_FS, USBD_StrDesc, length);
  }
  return USBD_StrDesc;
}
 800425e:	4620      	mov	r0, r4
 8004260:	bd10      	pop	{r4, pc}
 8004262:	bf00      	nop
 8004264:	20001180 	.word	0x20001180
 8004268:	08004694 	.word	0x08004694

0800426c <USBD_FS_InterfaceStrDescriptor>:
  * @param  speed : Current device speed
  * @param  length : Pointer to data length variable
  * @retval Pointer to descriptor buffer
  */
uint8_t * USBD_FS_InterfaceStrDescriptor(USBD_SpeedTypeDef speed, uint16_t *length)
{
 800426c:	b510      	push	{r4, lr}
  if(speed == 0)
  {
    USBD_GetString((uint8_t *)USBD_INTERFACE_STRING_FS, USBD_StrDesc, length);
 800426e:	4c04      	ldr	r4, [pc, #16]	; (8004280 <USBD_FS_InterfaceStrDescriptor+0x14>)
{
 8004270:	460a      	mov	r2, r1
    USBD_GetString((uint8_t *)USBD_INTERFACE_STRING_FS, USBD_StrDesc, length);
 8004272:	4804      	ldr	r0, [pc, #16]	; (8004284 <USBD_FS_InterfaceStrDescriptor+0x18>)
 8004274:	4621      	mov	r1, r4
 8004276:	f7ff ff29 	bl	80040cc <USBD_GetString>
  else
  {
    USBD_GetString((uint8_t *)USBD_INTERFACE_STRING_FS, USBD_StrDesc, length);
  }
  return USBD_StrDesc;
}
 800427a:	4620      	mov	r0, r4
 800427c:	bd10      	pop	{r4, pc}
 800427e:	bf00      	nop
 8004280:	20001180 	.word	0x20001180
 8004284:	080046a0 	.word	0x080046a0

08004288 <USBD_FS_SerialStrDescriptor>:
  *length = USB_SIZ_STRING_SERIAL;
 8004288:	201a      	movs	r0, #26
  */
static void Get_SerialNum(void)
{
  uint32_t deviceserial0, deviceserial1, deviceserial2;

  deviceserial0 = *(uint32_t *) DEVICE_ID1;
 800428a:	4a3e      	ldr	r2, [pc, #248]	; (8004384 <USBD_FS_SerialStrDescriptor+0xfc>)
  deviceserial1 = *(uint32_t *) DEVICE_ID2;
  deviceserial2 = *(uint32_t *) DEVICE_ID3;
 800428c:	4b3e      	ldr	r3, [pc, #248]	; (8004388 <USBD_FS_SerialStrDescriptor+0x100>)
  deviceserial0 = *(uint32_t *) DEVICE_ID1;
 800428e:	6812      	ldr	r2, [r2, #0]

  deviceserial0 += deviceserial2;
 8004290:	681b      	ldr	r3, [r3, #0]
  *length = USB_SIZ_STRING_SERIAL;
 8004292:	8008      	strh	r0, [r1, #0]

  if (deviceserial0 != 0)
 8004294:	18d3      	adds	r3, r2, r3
 8004296:	d101      	bne.n	800429c <USBD_FS_SerialStrDescriptor+0x14>
}
 8004298:	483c      	ldr	r0, [pc, #240]	; (800438c <USBD_FS_SerialStrDescriptor+0x104>)
 800429a:	4770      	bx	lr
{
 800429c:	b410      	push	{r4}
      pbuf[2 * idx] = (value >> 28) + 'A' - 10;
    }

    value = value << 4;

    pbuf[2 * idx + 1] = 0;
 800429e:	2400      	movs	r4, #0
  deviceserial1 = *(uint32_t *) DEVICE_ID2;
 80042a0:	4a3b      	ldr	r2, [pc, #236]	; (8004390 <USBD_FS_SerialStrDescriptor+0x108>)
    if (((value >> 28)) < 0xA)
 80042a2:	0f18      	lsrs	r0, r3, #28
  deviceserial1 = *(uint32_t *) DEVICE_ID2;
 80042a4:	6811      	ldr	r1, [r2, #0]
    if (((value >> 28)) < 0xA)
 80042a6:	f1b3 4f20 	cmp.w	r3, #2684354560	; 0xa0000000
      pbuf[2 * idx] = (value >> 28) + '0';
 80042aa:	4a38      	ldr	r2, [pc, #224]	; (800438c <USBD_FS_SerialStrDescriptor+0x104>)
      pbuf[2 * idx] = (value >> 28) + 'A' - 10;
 80042ac:	bf2c      	ite	cs
 80042ae:	3037      	addcs	r0, #55	; 0x37
      pbuf[2 * idx] = (value >> 28) + '0';
 80042b0:	3030      	addcc	r0, #48	; 0x30
 80042b2:	7090      	strb	r0, [r2, #2]
    if (((value >> 28)) < 0xA)
 80042b4:	f3c3 6003 	ubfx	r0, r3, #24, #4
 80042b8:	2809      	cmp	r0, #9
      pbuf[2 * idx] = (value >> 28) + 'A' - 10;
 80042ba:	bf8c      	ite	hi
 80042bc:	3037      	addhi	r0, #55	; 0x37
      pbuf[2 * idx] = (value >> 28) + '0';
 80042be:	3030      	addls	r0, #48	; 0x30
 80042c0:	7110      	strb	r0, [r2, #4]
    if (((value >> 28)) < 0xA)
 80042c2:	f3c3 5003 	ubfx	r0, r3, #20, #4
 80042c6:	2809      	cmp	r0, #9
      pbuf[2 * idx] = (value >> 28) + 'A' - 10;
 80042c8:	bf8c      	ite	hi
 80042ca:	3037      	addhi	r0, #55	; 0x37
      pbuf[2 * idx] = (value >> 28) + '0';
 80042cc:	3030      	addls	r0, #48	; 0x30
 80042ce:	7190      	strb	r0, [r2, #6]
    if (((value >> 28)) < 0xA)
 80042d0:	f3c3 4003 	ubfx	r0, r3, #16, #4
 80042d4:	2809      	cmp	r0, #9
      pbuf[2 * idx] = (value >> 28) + 'A' - 10;
 80042d6:	bf8c      	ite	hi
 80042d8:	3037      	addhi	r0, #55	; 0x37
      pbuf[2 * idx] = (value >> 28) + '0';
 80042da:	3030      	addls	r0, #48	; 0x30
 80042dc:	7210      	strb	r0, [r2, #8]
    if (((value >> 28)) < 0xA)
 80042de:	f3c3 3003 	ubfx	r0, r3, #12, #4
 80042e2:	2809      	cmp	r0, #9
      pbuf[2 * idx] = (value >> 28) + 'A' - 10;
 80042e4:	bf8c      	ite	hi
 80042e6:	3037      	addhi	r0, #55	; 0x37
      pbuf[2 * idx] = (value >> 28) + '0';
 80042e8:	3030      	addls	r0, #48	; 0x30
 80042ea:	7290      	strb	r0, [r2, #10]
    if (((value >> 28)) < 0xA)
 80042ec:	f3c3 2003 	ubfx	r0, r3, #8, #4
 80042f0:	2809      	cmp	r0, #9
      pbuf[2 * idx] = (value >> 28) + 'A' - 10;
 80042f2:	bf8c      	ite	hi
 80042f4:	3037      	addhi	r0, #55	; 0x37
      pbuf[2 * idx] = (value >> 28) + '0';
 80042f6:	3030      	addls	r0, #48	; 0x30
 80042f8:	7310      	strb	r0, [r2, #12]
    if (((value >> 28)) < 0xA)
 80042fa:	f3c3 1003 	ubfx	r0, r3, #4, #4
 80042fe:	2809      	cmp	r0, #9
      pbuf[2 * idx] = (value >> 28) + 'A' - 10;
 8004300:	bf8c      	ite	hi
 8004302:	3037      	addhi	r0, #55	; 0x37
      pbuf[2 * idx] = (value >> 28) + '0';
 8004304:	3030      	addls	r0, #48	; 0x30
    pbuf[2 * idx + 1] = 0;
 8004306:	70d4      	strb	r4, [r2, #3]
      pbuf[2 * idx] = (value >> 28) + '0';
 8004308:	7390      	strb	r0, [r2, #14]
    pbuf[2 * idx + 1] = 0;
 800430a:	2400      	movs	r4, #0
 800430c:	2000      	movs	r0, #0
 800430e:	7154      	strb	r4, [r2, #5]
 8004310:	73d0      	strb	r0, [r2, #15]
 8004312:	2400      	movs	r4, #0
 8004314:	2000      	movs	r0, #0
 8004316:	71d4      	strb	r4, [r2, #7]
 8004318:	7450      	strb	r0, [r2, #17]
 800431a:	2400      	movs	r4, #0
 800431c:	2000      	movs	r0, #0
 800431e:	7254      	strb	r4, [r2, #9]
 8004320:	74d0      	strb	r0, [r2, #19]
 8004322:	2400      	movs	r4, #0
 8004324:	2000      	movs	r0, #0
    if (((value >> 28)) < 0xA)
 8004326:	f003 030f 	and.w	r3, r3, #15
 800432a:	2b09      	cmp	r3, #9
      pbuf[2 * idx] = (value >> 28) + '0';
 800432c:	bf94      	ite	ls
 800432e:	3330      	addls	r3, #48	; 0x30
      pbuf[2 * idx] = (value >> 28) + 'A' - 10;
 8004330:	3337      	addhi	r3, #55	; 0x37
 8004332:	7413      	strb	r3, [r2, #16]
    if (((value >> 28)) < 0xA)
 8004334:	f1b1 4f20 	cmp.w	r1, #2684354560	; 0xa0000000
 8004338:	ea4f 7311 	mov.w	r3, r1, lsr #28
      pbuf[2 * idx] = (value >> 28) + 'A' - 10;
 800433c:	bf2c      	ite	cs
 800433e:	3337      	addcs	r3, #55	; 0x37
      pbuf[2 * idx] = (value >> 28) + '0';
 8004340:	3330      	addcc	r3, #48	; 0x30
 8004342:	7493      	strb	r3, [r2, #18]
    if (((value >> 28)) < 0xA)
 8004344:	f3c1 6303 	ubfx	r3, r1, #24, #4
 8004348:	2b09      	cmp	r3, #9
      pbuf[2 * idx] = (value >> 28) + 'A' - 10;
 800434a:	bf8c      	ite	hi
 800434c:	3337      	addhi	r3, #55	; 0x37
      pbuf[2 * idx] = (value >> 28) + '0';
 800434e:	3330      	addls	r3, #48	; 0x30
 8004350:	7513      	strb	r3, [r2, #20]
    if (((value >> 28)) < 0xA)
 8004352:	f3c1 5303 	ubfx	r3, r1, #20, #4
 8004356:	2b09      	cmp	r3, #9
      pbuf[2 * idx] = (value >> 28) + 'A' - 10;
 8004358:	bf8c      	ite	hi
 800435a:	3337      	addhi	r3, #55	; 0x37
      pbuf[2 * idx] = (value >> 28) + '0';
 800435c:	3330      	addls	r3, #48	; 0x30
 800435e:	7593      	strb	r3, [r2, #22]
    if (((value >> 28)) < 0xA)
 8004360:	f3c1 4303 	ubfx	r3, r1, #16, #4
 8004364:	2b09      	cmp	r3, #9
      pbuf[2 * idx] = (value >> 28) + '0';
 8004366:	bf94      	ite	ls
 8004368:	3330      	addls	r3, #48	; 0x30
      pbuf[2 * idx] = (value >> 28) + 'A' - 10;
 800436a:	3337      	addhi	r3, #55	; 0x37
    pbuf[2 * idx + 1] = 0;
 800436c:	72d4      	strb	r4, [r2, #11]
 800436e:	7550      	strb	r0, [r2, #21]
 8004370:	2400      	movs	r4, #0
 8004372:	2000      	movs	r0, #0
      pbuf[2 * idx] = (value >> 28) + 'A' - 10;
 8004374:	7613      	strb	r3, [r2, #24]
    pbuf[2 * idx + 1] = 0;
 8004376:	2300      	movs	r3, #0
 8004378:	75d0      	strb	r0, [r2, #23]
 800437a:	7354      	strb	r4, [r2, #13]
 800437c:	7653      	strb	r3, [r2, #25]
}
 800437e:	4803      	ldr	r0, [pc, #12]	; (800438c <USBD_FS_SerialStrDescriptor+0x104>)
 8004380:	bc10      	pop	{r4}
 8004382:	4770      	bx	lr
 8004384:	1ffff7e8 	.word	0x1ffff7e8
 8004388:	1ffff7f0 	.word	0x1ffff7f0
 800438c:	200000e4 	.word	0x200000e4
 8004390:	1ffff7ec 	.word	0x1ffff7ec

08004394 <HAL_PCD_MspInit>:
*******************************************************************************/
/* MSP Init */

void HAL_PCD_MspInit(PCD_HandleTypeDef* pcdHandle)
{
  if(pcdHandle->Instance==USB)
 8004394:	4b0e      	ldr	r3, [pc, #56]	; (80043d0 <HAL_PCD_MspInit+0x3c>)
 8004396:	6802      	ldr	r2, [r0, #0]
 8004398:	429a      	cmp	r2, r3
 800439a:	d000      	beq.n	800439e <HAL_PCD_MspInit+0xa>
 800439c:	4770      	bx	lr
  /* USER CODE END USB_MspInit 0 */
    /* Peripheral clock enable */
    __HAL_RCC_USB_CLK_ENABLE();

    /* Peripheral interrupt init */
    HAL_NVIC_SetPriority(USB_LP_CAN1_RX0_IRQn, 0, 0);
 800439e:	2200      	movs	r2, #0
    __HAL_RCC_USB_CLK_ENABLE();
 80043a0:	f503 33da 	add.w	r3, r3, #111616	; 0x1b400
{
 80043a4:	b510      	push	{r4, lr}
    __HAL_RCC_USB_CLK_ENABLE();
 80043a6:	69dc      	ldr	r4, [r3, #28]
{
 80043a8:	b082      	sub	sp, #8
    __HAL_RCC_USB_CLK_ENABLE();
 80043aa:	f444 0400 	orr.w	r4, r4, #8388608	; 0x800000
 80043ae:	61dc      	str	r4, [r3, #28]
 80043b0:	69db      	ldr	r3, [r3, #28]
    HAL_NVIC_SetPriority(USB_LP_CAN1_RX0_IRQn, 0, 0);
 80043b2:	4611      	mov	r1, r2
    __HAL_RCC_USB_CLK_ENABLE();
 80043b4:	f403 0300 	and.w	r3, r3, #8388608	; 0x800000
 80043b8:	9301      	str	r3, [sp, #4]
    HAL_NVIC_SetPriority(USB_LP_CAN1_RX0_IRQn, 0, 0);
 80043ba:	2014      	movs	r0, #20
    __HAL_RCC_USB_CLK_ENABLE();
 80043bc:	9b01      	ldr	r3, [sp, #4]
    HAL_NVIC_SetPriority(USB_LP_CAN1_RX0_IRQn, 0, 0);
 80043be:	f7fc ff03 	bl	80011c8 <HAL_NVIC_SetPriority>
    HAL_NVIC_EnableIRQ(USB_LP_CAN1_RX0_IRQn);
 80043c2:	2014      	movs	r0, #20
  /* USER CODE BEGIN USB_MspInit 1 */

  /* USER CODE END USB_MspInit 1 */
  }
}
 80043c4:	b002      	add	sp, #8
 80043c6:	e8bd 4010 	ldmia.w	sp!, {r4, lr}
    HAL_NVIC_EnableIRQ(USB_LP_CAN1_RX0_IRQn);
 80043ca:	f7fc bf35 	b.w	8001238 <HAL_NVIC_EnableIRQ>
 80043ce:	bf00      	nop
 80043d0:	40005c00 	.word	0x40005c00

080043d4 <HAL_PCD_SetupStageCallback>:
static void PCD_SetupStageCallback(PCD_HandleTypeDef *hpcd)
#else
void HAL_PCD_SetupStageCallback(PCD_HandleTypeDef *hpcd)
#endif /* USE_HAL_PCD_REGISTER_CALLBACKS */
{
  USBD_LL_SetupStage((USBD_HandleTypeDef*)hpcd->pData, (uint8_t *)hpcd->Setup);
 80043d4:	f500 712c 	add.w	r1, r0, #688	; 0x2b0
 80043d8:	f8d0 02e8 	ldr.w	r0, [r0, #744]	; 0x2e8
 80043dc:	f7ff bb02 	b.w	80039e4 <USBD_LL_SetupStage>

080043e0 <HAL_PCD_DataOutStageCallback>:
static void PCD_DataOutStageCallback(PCD_HandleTypeDef *hpcd, uint8_t epnum)
#else
void HAL_PCD_DataOutStageCallback(PCD_HandleTypeDef *hpcd, uint8_t epnum)
#endif /* USE_HAL_PCD_REGISTER_CALLBACKS */
{
  USBD_LL_DataOutStage((USBD_HandleTypeDef*)hpcd->pData, epnum, hpcd->OUT_ep[epnum].xfer_buff);
 80043e0:	eb01 0381 	add.w	r3, r1, r1, lsl #2
 80043e4:	eb00 03c3 	add.w	r3, r0, r3, lsl #3
 80043e8:	f8d3 217c 	ldr.w	r2, [r3, #380]	; 0x17c
 80043ec:	f8d0 02e8 	ldr.w	r0, [r0, #744]	; 0x2e8
 80043f0:	f7ff bb26 	b.w	8003a40 <USBD_LL_DataOutStage>

080043f4 <HAL_PCD_DataInStageCallback>:
static void PCD_DataInStageCallback(PCD_HandleTypeDef *hpcd, uint8_t epnum)
#else
void HAL_PCD_DataInStageCallback(PCD_HandleTypeDef *hpcd, uint8_t epnum)
#endif /* USE_HAL_PCD_REGISTER_CALLBACKS */
{
  USBD_LL_DataInStage((USBD_HandleTypeDef*)hpcd->pData, epnum, hpcd->IN_ep[epnum].xfer_buff);
 80043f4:	eb01 0381 	add.w	r3, r1, r1, lsl #2
 80043f8:	eb00 03c3 	add.w	r3, r0, r3, lsl #3
 80043fc:	6bda      	ldr	r2, [r3, #60]	; 0x3c
 80043fe:	f8d0 02e8 	ldr.w	r0, [r0, #744]	; 0x2e8
 8004402:	f7ff bb5b 	b.w	8003abc <USBD_LL_DataInStage>
 8004406:	bf00      	nop

08004408 <HAL_PCD_SOFCallback>:
static void PCD_SOFCallback(PCD_HandleTypeDef *hpcd)
#else
void HAL_PCD_SOFCallback(PCD_HandleTypeDef *hpcd)
#endif /* USE_HAL_PCD_REGISTER_CALLBACKS */
{
  USBD_LL_SOF((USBD_HandleTypeDef*)hpcd->pData);
 8004408:	f8d0 02e8 	ldr.w	r0, [r0, #744]	; 0x2e8
 800440c:	f7ff bbf6 	b.w	8003bfc <USBD_LL_SOF>

08004410 <HAL_PCD_ResetCallback>:
void HAL_PCD_ResetCallback(PCD_HandleTypeDef *hpcd)
#endif /* USE_HAL_PCD_REGISTER_CALLBACKS */
{
  USBD_SpeedTypeDef speed = USBD_SPEED_FULL;

  if ( hpcd->Init.speed != PCD_SPEED_FULL)
 8004410:	6883      	ldr	r3, [r0, #8]
{
 8004412:	b510      	push	{r4, lr}
  if ( hpcd->Init.speed != PCD_SPEED_FULL)
 8004414:	2b02      	cmp	r3, #2
{
 8004416:	4604      	mov	r4, r0
  if ( hpcd->Init.speed != PCD_SPEED_FULL)
 8004418:	d001      	beq.n	800441e <HAL_PCD_ResetCallback+0xe>
  {
    Error_Handler();
 800441a:	f7fc fc79 	bl	8000d10 <Error_Handler>
  }
    /* Set Speed. */
  USBD_LL_SetSpeed((USBD_HandleTypeDef*)hpcd->pData, speed);
 800441e:	f8d4 02e8 	ldr.w	r0, [r4, #744]	; 0x2e8
 8004422:	2101      	movs	r1, #1
 8004424:	f7ff fbd2 	bl	8003bcc <USBD_LL_SetSpeed>

  /* Reset Device. */
  USBD_LL_Reset((USBD_HandleTypeDef*)hpcd->pData);
 8004428:	f8d4 02e8 	ldr.w	r0, [r4, #744]	; 0x2e8
}
 800442c:	e8bd 4010 	ldmia.w	sp!, {r4, lr}
  USBD_LL_Reset((USBD_HandleTypeDef*)hpcd->pData);
 8004430:	f7ff bba4 	b.w	8003b7c <USBD_LL_Reset>

08004434 <HAL_PCD_SuspendCallback>:
#if (USE_HAL_PCD_REGISTER_CALLBACKS == 1U)
static void PCD_SuspendCallback(PCD_HandleTypeDef *hpcd)
#else
void HAL_PCD_SuspendCallback(PCD_HandleTypeDef *hpcd)
#endif /* USE_HAL_PCD_REGISTER_CALLBACKS */
{
 8004434:	b510      	push	{r4, lr}
 8004436:	4604      	mov	r4, r0
  /* Inform USB library that core enters in suspend Mode. */
  USBD_LL_Suspend((USBD_HandleTypeDef*)hpcd->pData);
 8004438:	f8d0 02e8 	ldr.w	r0, [r0, #744]	; 0x2e8
 800443c:	f7ff fbca 	bl	8003bd4 <USBD_LL_Suspend>
  /* Enter in STOP mode. */
  /* USER CODE BEGIN 2 */
  if (hpcd->Init.low_power_enable)
 8004440:	69a3      	ldr	r3, [r4, #24]
 8004442:	b123      	cbz	r3, 800444e <HAL_PCD_SuspendCallback+0x1a>
  {
    /* Set SLEEPDEEP bit and SleepOnExit of Cortex System Control Register. */
    SCB->SCR |= (uint32_t)((uint32_t)(SCB_SCR_SLEEPDEEP_Msk | SCB_SCR_SLEEPONEXIT_Msk));
 8004444:	4a02      	ldr	r2, [pc, #8]	; (8004450 <HAL_PCD_SuspendCallback+0x1c>)
 8004446:	6913      	ldr	r3, [r2, #16]
 8004448:	f043 0306 	orr.w	r3, r3, #6
 800444c:	6113      	str	r3, [r2, #16]
  }
  /* USER CODE END 2 */
}
 800444e:	bd10      	pop	{r4, pc}
 8004450:	e000ed00 	.word	0xe000ed00

08004454 <HAL_PCD_ResumeCallback>:
#endif /* USE_HAL_PCD_REGISTER_CALLBACKS */
{
  /* USER CODE BEGIN 3 */

  /* USER CODE END 3 */
  USBD_LL_Resume((USBD_HandleTypeDef*)hpcd->pData);
 8004454:	f8d0 02e8 	ldr.w	r0, [r0, #744]	; 0x2e8
 8004458:	f7ff bbc6 	b.w	8003be8 <USBD_LL_Resume>

0800445c <USBD_LL_Init>:
  * @brief  Initializes the low level portion of the device driver.
  * @param  pdev: Device handle
  * @retval USBD status
  */
USBD_StatusTypeDef USBD_LL_Init(USBD_HandleTypeDef *pdev)
{
 800445c:	b538      	push	{r3, r4, r5, lr}
 800445e:	4604      	mov	r4, r0
  pdev->pData = &hpcd_USB_FS;

  hpcd_USB_FS.Instance = USB;
  hpcd_USB_FS.Init.dev_endpoints = 8;
  hpcd_USB_FS.Init.speed = PCD_SPEED_FULL;
  hpcd_USB_FS.Init.low_power_enable = DISABLE;
 8004460:	2300      	movs	r3, #0
  hpcd_USB_FS.Init.dev_endpoints = 8;
 8004462:	2108      	movs	r1, #8
  hpcd_USB_FS.Init.speed = PCD_SPEED_FULL;
 8004464:	2202      	movs	r2, #2
  hpcd_USB_FS.pData = pdev;
 8004466:	481c      	ldr	r0, [pc, #112]	; (80044d8 <USBD_LL_Init+0x7c>)
  hpcd_USB_FS.Instance = USB;
 8004468:	4d1c      	ldr	r5, [pc, #112]	; (80044dc <USBD_LL_Init+0x80>)
  hpcd_USB_FS.pData = pdev;
 800446a:	f8c0 42e8 	str.w	r4, [r0, #744]	; 0x2e8
  pdev->pData = &hpcd_USB_FS;
 800446e:	f8c4 02c0 	str.w	r0, [r4, #704]	; 0x2c0
  hpcd_USB_FS.Init.dev_endpoints = 8;
 8004472:	e9c0 5100 	strd	r5, r1, [r0]
  hpcd_USB_FS.Init.lpm_enable = DISABLE;
 8004476:	e9c0 3306 	strd	r3, r3, [r0, #24]
  hpcd_USB_FS.Init.speed = PCD_SPEED_FULL;
 800447a:	6082      	str	r2, [r0, #8]
  hpcd_USB_FS.Init.battery_charging_enable = DISABLE;
 800447c:	6203      	str	r3, [r0, #32]
  if (HAL_PCD_Init(&hpcd_USB_FS) != HAL_OK)
 800447e:	f7fc ff01 	bl	8001284 <HAL_PCD_Init>
 8004482:	bb30      	cbnz	r0, 80044d2 <USBD_LL_Init+0x76>
  HAL_PCD_RegisterDataInStageCallback(&hpcd_USB_FS, PCD_DataInStageCallback);
  HAL_PCD_RegisterIsoOutIncpltCallback(&hpcd_USB_FS, PCD_ISOOUTIncompleteCallback);
  HAL_PCD_RegisterIsoInIncpltCallback(&hpcd_USB_FS, PCD_ISOINIncompleteCallback);
#endif /* USE_HAL_PCD_REGISTER_CALLBACKS */
  /* USER CODE BEGIN EndPoint_Configuration */
  HAL_PCDEx_PMAConfig((PCD_HandleTypeDef*)pdev->pData , 0x00 , PCD_SNG_BUF, 0x18);
 8004484:	2200      	movs	r2, #0
 8004486:	2318      	movs	r3, #24
 8004488:	4611      	mov	r1, r2
 800448a:	f8d4 02c0 	ldr.w	r0, [r4, #704]	; 0x2c0
 800448e:	f7fd fe97 	bl	80021c0 <HAL_PCDEx_PMAConfig>
  HAL_PCDEx_PMAConfig((PCD_HandleTypeDef*)pdev->pData , 0x80 , PCD_SNG_BUF, 0x58);
 8004492:	2358      	movs	r3, #88	; 0x58
 8004494:	2200      	movs	r2, #0
 8004496:	2180      	movs	r1, #128	; 0x80
 8004498:	f8d4 02c0 	ldr.w	r0, [r4, #704]	; 0x2c0
 800449c:	f7fd fe90 	bl	80021c0 <HAL_PCDEx_PMAConfig>
  /* USER CODE END EndPoint_Configuration */
  /* USER CODE BEGIN EndPoint_Configuration_CDC */
  HAL_PCDEx_PMAConfig((PCD_HandleTypeDef*)pdev->pData , 0x81 , PCD_SNG_BUF, 0xC0);
 80044a0:	23c0      	movs	r3, #192	; 0xc0
 80044a2:	2200      	movs	r2, #0
 80044a4:	2181      	movs	r1, #129	; 0x81
 80044a6:	f8d4 02c0 	ldr.w	r0, [r4, #704]	; 0x2c0
 80044aa:	f7fd fe89 	bl	80021c0 <HAL_PCDEx_PMAConfig>
  HAL_PCDEx_PMAConfig((PCD_HandleTypeDef*)pdev->pData , 0x01 , PCD_SNG_BUF, 0x110);
 80044ae:	f44f 7388 	mov.w	r3, #272	; 0x110
 80044b2:	2200      	movs	r2, #0
 80044b4:	2101      	movs	r1, #1
 80044b6:	f8d4 02c0 	ldr.w	r0, [r4, #704]	; 0x2c0
 80044ba:	f7fd fe81 	bl	80021c0 <HAL_PCDEx_PMAConfig>
  HAL_PCDEx_PMAConfig((PCD_HandleTypeDef*)pdev->pData , 0x82 , PCD_SNG_BUF, 0x100);
 80044be:	f44f 7380 	mov.w	r3, #256	; 0x100
 80044c2:	2200      	movs	r2, #0
 80044c4:	2182      	movs	r1, #130	; 0x82
 80044c6:	f8d4 02c0 	ldr.w	r0, [r4, #704]	; 0x2c0
 80044ca:	f7fd fe79 	bl	80021c0 <HAL_PCDEx_PMAConfig>
  /* USER CODE END EndPoint_Configuration_CDC */
  return USBD_OK;
}
 80044ce:	2000      	movs	r0, #0
 80044d0:	bd38      	pop	{r3, r4, r5, pc}
    Error_Handler( );
 80044d2:	f7fc fc1d 	bl	8000d10 <Error_Handler>
 80044d6:	e7d5      	b.n	8004484 <USBD_LL_Init+0x28>
 80044d8:	20001380 	.word	0x20001380
 80044dc:	40005c00 	.word	0x40005c00

080044e0 <USBD_LL_Start>:
  * @brief  Starts the low level portion of the device driver.
  * @param  pdev: Device handle
  * @retval USBD status
  */
USBD_StatusTypeDef USBD_LL_Start(USBD_HandleTypeDef *pdev)
{
 80044e0:	b508      	push	{r3, lr}
  HAL_StatusTypeDef hal_status = HAL_OK;
  USBD_StatusTypeDef usb_status = USBD_OK;

  hal_status = HAL_PCD_Start(pdev->pData);
 80044e2:	f8d0 02c0 	ldr.w	r0, [r0, #704]	; 0x2c0
 80044e6:	f7fc ff49 	bl	800137c <HAL_PCD_Start>
  */
USBD_StatusTypeDef USBD_Get_USB_Status(HAL_StatusTypeDef hal_status)
{
  USBD_StatusTypeDef usb_status = USBD_OK;

  switch (hal_status)
 80044ea:	2803      	cmp	r0, #3
 80044ec:	bf96      	itet	ls
 80044ee:	4b02      	ldrls	r3, [pc, #8]	; (80044f8 <USBD_LL_Start+0x18>)
  hal_status = HAL_PCD_Start(pdev->pData);
 80044f0:	2002      	movhi	r0, #2
 80044f2:	5c18      	ldrbls	r0, [r3, r0]
}
 80044f4:	bd08      	pop	{r3, pc}
 80044f6:	bf00      	nop
 80044f8:	080046b0 	.word	0x080046b0

080044fc <USBD_LL_OpenEP>:
{
 80044fc:	b510      	push	{r4, lr}
 80044fe:	4614      	mov	r4, r2
  hal_status = HAL_PCD_EP_Open(pdev->pData, ep_addr, ep_mps, ep_type);
 8004500:	f8d0 02c0 	ldr.w	r0, [r0, #704]	; 0x2c0
{
 8004504:	461a      	mov	r2, r3
  hal_status = HAL_PCD_EP_Open(pdev->pData, ep_addr, ep_mps, ep_type);
 8004506:	4623      	mov	r3, r4
 8004508:	f7fd fd4a 	bl	8001fa0 <HAL_PCD_EP_Open>
  switch (hal_status)
 800450c:	2803      	cmp	r0, #3
 800450e:	bf96      	itet	ls
 8004510:	4b01      	ldrls	r3, [pc, #4]	; (8004518 <USBD_LL_OpenEP+0x1c>)
  hal_status = HAL_PCD_EP_Open(pdev->pData, ep_addr, ep_mps, ep_type);
 8004512:	2002      	movhi	r0, #2
 8004514:	5c18      	ldrbls	r0, [r3, r0]
}
 8004516:	bd10      	pop	{r4, pc}
 8004518:	080046b0 	.word	0x080046b0

0800451c <USBD_LL_CloseEP>:
{
 800451c:	b508      	push	{r3, lr}
  hal_status = HAL_PCD_EP_Close(pdev->pData, ep_addr);
 800451e:	f8d0 02c0 	ldr.w	r0, [r0, #704]	; 0x2c0
 8004522:	f7fd fd71 	bl	8002008 <HAL_PCD_EP_Close>
  switch (hal_status)
 8004526:	2803      	cmp	r0, #3
 8004528:	bf96      	itet	ls
 800452a:	4b02      	ldrls	r3, [pc, #8]	; (8004534 <USBD_LL_CloseEP+0x18>)
  hal_status = HAL_PCD_EP_Close(pdev->pData, ep_addr);
 800452c:	2002      	movhi	r0, #2
 800452e:	5c18      	ldrbls	r0, [r3, r0]
}
 8004530:	bd08      	pop	{r3, pc}
 8004532:	bf00      	nop
 8004534:	080046b0 	.word	0x080046b0

08004538 <USBD_LL_StallEP>:
{
 8004538:	b508      	push	{r3, lr}
  hal_status = HAL_PCD_EP_SetStall(pdev->pData, ep_addr);
 800453a:	f8d0 02c0 	ldr.w	r0, [r0, #704]	; 0x2c0
 800453e:	f7fd fdc9 	bl	80020d4 <HAL_PCD_EP_SetStall>
  switch (hal_status)
 8004542:	2803      	cmp	r0, #3
 8004544:	bf96      	itet	ls
 8004546:	4b02      	ldrls	r3, [pc, #8]	; (8004550 <USBD_LL_StallEP+0x18>)
  hal_status = HAL_PCD_EP_SetStall(pdev->pData, ep_addr);
 8004548:	2002      	movhi	r0, #2
 800454a:	5c18      	ldrbls	r0, [r3, r0]
}
 800454c:	bd08      	pop	{r3, pc}
 800454e:	bf00      	nop
 8004550:	080046b0 	.word	0x080046b0

08004554 <USBD_LL_ClearStallEP>:
{
 8004554:	b508      	push	{r3, lr}
  hal_status = HAL_PCD_EP_ClrStall(pdev->pData, ep_addr);
 8004556:	f8d0 02c0 	ldr.w	r0, [r0, #704]	; 0x2c0
 800455a:	f7fd fdf7 	bl	800214c <HAL_PCD_EP_ClrStall>
  switch (hal_status)
 800455e:	2803      	cmp	r0, #3
 8004560:	bf96      	itet	ls
 8004562:	4b02      	ldrls	r3, [pc, #8]	; (800456c <USBD_LL_ClearStallEP+0x18>)
  hal_status = HAL_PCD_EP_ClrStall(pdev->pData, ep_addr);
 8004564:	2002      	movhi	r0, #2
 8004566:	5c18      	ldrbls	r0, [r3, r0]
}
 8004568:	bd08      	pop	{r3, pc}
 800456a:	bf00      	nop
 800456c:	080046b0 	.word	0x080046b0

08004570 <USBD_LL_IsStallEP>:
  if((ep_addr & 0x80) == 0x80)
 8004570:	060a      	lsls	r2, r1, #24
  PCD_HandleTypeDef *hpcd = (PCD_HandleTypeDef*) pdev->pData;
 8004572:	f8d0 32c0 	ldr.w	r3, [r0, #704]	; 0x2c0
  if((ep_addr & 0x80) == 0x80)
 8004576:	d406      	bmi.n	8004586 <USBD_LL_IsStallEP+0x16>
    return hpcd->OUT_ep[ep_addr & 0x7F].is_stall;
 8004578:	eb01 0181 	add.w	r1, r1, r1, lsl #2
 800457c:	eb03 01c1 	add.w	r1, r3, r1, lsl #3
 8004580:	f891 016a 	ldrb.w	r0, [r1, #362]	; 0x16a
}
 8004584:	4770      	bx	lr
    return hpcd->IN_ep[ep_addr & 0x7F].is_stall;
 8004586:	f001 017f 	and.w	r1, r1, #127	; 0x7f
 800458a:	3101      	adds	r1, #1
 800458c:	eb01 0181 	add.w	r1, r1, r1, lsl #2
 8004590:	eb03 01c1 	add.w	r1, r3, r1, lsl #3
 8004594:	7888      	ldrb	r0, [r1, #2]
 8004596:	4770      	bx	lr

08004598 <USBD_LL_SetUSBAddress>:
{
 8004598:	b508      	push	{r3, lr}
  hal_status = HAL_PCD_SetAddress(pdev->pData, dev_addr);
 800459a:	f8d0 02c0 	ldr.w	r0, [r0, #704]	; 0x2c0
 800459e:	f7fd fceb 	bl	8001f78 <HAL_PCD_SetAddress>
  switch (hal_status)
 80045a2:	2803      	cmp	r0, #3
 80045a4:	bf96      	itet	ls
 80045a6:	4b02      	ldrls	r3, [pc, #8]	; (80045b0 <USBD_LL_SetUSBAddress+0x18>)
  hal_status = HAL_PCD_SetAddress(pdev->pData, dev_addr);
 80045a8:	2002      	movhi	r0, #2
 80045aa:	5c18      	ldrbls	r0, [r3, r0]
}
 80045ac:	bd08      	pop	{r3, pc}
 80045ae:	bf00      	nop
 80045b0:	080046b0 	.word	0x080046b0

080045b4 <USBD_LL_Transmit>:
{
 80045b4:	b508      	push	{r3, lr}
  hal_status = HAL_PCD_EP_Transmit(pdev->pData, ep_addr, pbuf, size);
 80045b6:	f8d0 02c0 	ldr.w	r0, [r0, #704]	; 0x2c0
 80045ba:	f7fd fd6d 	bl	8002098 <HAL_PCD_EP_Transmit>
  switch (hal_status)
 80045be:	2803      	cmp	r0, #3
 80045c0:	bf96      	itet	ls
 80045c2:	4b02      	ldrls	r3, [pc, #8]	; (80045cc <USBD_LL_Transmit+0x18>)
  hal_status = HAL_PCD_EP_Transmit(pdev->pData, ep_addr, pbuf, size);
 80045c4:	2002      	movhi	r0, #2
 80045c6:	5c18      	ldrbls	r0, [r3, r0]
}
 80045c8:	bd08      	pop	{r3, pc}
 80045ca:	bf00      	nop
 80045cc:	080046b0 	.word	0x080046b0

080045d0 <USBD_LL_PrepareReceive>:
{
 80045d0:	b508      	push	{r3, lr}
  hal_status = HAL_PCD_EP_Receive(pdev->pData, ep_addr, pbuf, size);
 80045d2:	f8d0 02c0 	ldr.w	r0, [r0, #704]	; 0x2c0
 80045d6:	f7fd fd47 	bl	8002068 <HAL_PCD_EP_Receive>
  switch (hal_status)
 80045da:	2803      	cmp	r0, #3
 80045dc:	bf96      	itet	ls
 80045de:	4b02      	ldrls	r3, [pc, #8]	; (80045e8 <USBD_LL_PrepareReceive+0x18>)
  hal_status = HAL_PCD_EP_Receive(pdev->pData, ep_addr, pbuf, size);
 80045e0:	2002      	movhi	r0, #2
 80045e2:	5c18      	ldrbls	r0, [r3, r0]
}
 80045e4:	bd08      	pop	{r3, pc}
 80045e6:	bf00      	nop
 80045e8:	080046b0 	.word	0x080046b0

080045ec <HAL_PCDEx_SetConnectionState>:
}
 80045ec:	4770      	bx	lr
 80045ee:	bf00      	nop

080045f0 <__libc_init_array>:
 80045f0:	b570      	push	{r4, r5, r6, lr}
 80045f2:	2600      	movs	r6, #0
 80045f4:	4d0c      	ldr	r5, [pc, #48]	; (8004628 <__libc_init_array+0x38>)
 80045f6:	4c0d      	ldr	r4, [pc, #52]	; (800462c <__libc_init_array+0x3c>)
 80045f8:	1b64      	subs	r4, r4, r5
 80045fa:	10a4      	asrs	r4, r4, #2
 80045fc:	42a6      	cmp	r6, r4
 80045fe:	d109      	bne.n	8004614 <__libc_init_array+0x24>
 8004600:	f000 f81a 	bl	8004638 <_init>
 8004604:	2600      	movs	r6, #0
 8004606:	4d0a      	ldr	r5, [pc, #40]	; (8004630 <__libc_init_array+0x40>)
 8004608:	4c0a      	ldr	r4, [pc, #40]	; (8004634 <__libc_init_array+0x44>)
 800460a:	1b64      	subs	r4, r4, r5
 800460c:	10a4      	asrs	r4, r4, #2
 800460e:	42a6      	cmp	r6, r4
 8004610:	d105      	bne.n	800461e <__libc_init_array+0x2e>
 8004612:	bd70      	pop	{r4, r5, r6, pc}
 8004614:	f855 3b04 	ldr.w	r3, [r5], #4
 8004618:	4798      	blx	r3
 800461a:	3601      	adds	r6, #1
 800461c:	e7ee      	b.n	80045fc <__libc_init_array+0xc>
 800461e:	f855 3b04 	ldr.w	r3, [r5], #4
 8004622:	4798      	blx	r3
 8004624:	3601      	adds	r6, #1
 8004626:	e7f2      	b.n	800460e <__libc_init_array+0x1e>
 8004628:	080046b4 	.word	0x080046b4
 800462c:	080046b4 	.word	0x080046b4
 8004630:	080046b4 	.word	0x080046b4
 8004634:	080046b8 	.word	0x080046b8

08004638 <_init>:
 8004638:	b5f8      	push	{r3, r4, r5, r6, r7, lr}
 800463a:	bf00      	nop
 800463c:	bcf8      	pop	{r3, r4, r5, r6, r7}
 800463e:	bc08      	pop	{r3}
 8004640:	469e      	mov	lr, r3
 8004642:	4770      	bx	lr

08004644 <_fini>:
 8004644:	b5f8      	push	{r3, r4, r5, r6, r7, lr}
 8004646:	bf00      	nop
 8004648:	bcf8      	pop	{r3, r4, r5, r6, r7}
 800464a:	bc08      	pop	{r3}
 800464c:	469e      	mov	lr, r3
 800464e:	4770      	bx	lr
